
RoomTempControllerSW.elf:     file format elf32-littlenios2
RoomTempControllerSW.elf
architecture: nios2:r1, flags 0x00000112:
EXEC_P, HAS_SYMS, D_PAGED
start address 0x04000224

Program Header:
    LOAD off    0x00001000 vaddr 0x04000000 paddr 0x04000000 align 2**12
         filesz 0x00000020 memsz 0x00000020 flags r-x
    LOAD off    0x00001020 vaddr 0x04000020 paddr 0x04000020 align 2**12
         filesz 0x00012748 memsz 0x00012748 flags r-x
    LOAD off    0x00013768 vaddr 0x04012768 paddr 0x040132e0 align 2**12
         filesz 0x00000b78 memsz 0x00000b78 flags rw-
    LOAD off    0x00014e58 vaddr 0x04013e58 paddr 0x04013e58 align 2**12
         filesz 0x00000000 memsz 0x000005b4 flags rw-

Sections:
Idx Name          Size      VMA       LMA       File off  Algn
  0 .entry        00000020  04000000  04000000  00001000  2**5
                  CONTENTS, ALLOC, LOAD, READONLY, CODE
  1 .exceptions   00000204  04000020  04000020  00001020  2**2
                  CONTENTS, ALLOC, LOAD, READONLY, CODE
  2 .text         00011e50  04000224  04000224  00001224  2**2
                  CONTENTS, ALLOC, LOAD, READONLY, CODE
  3 .rodata       000006f4  04012074  04012074  00013074  2**2
                  CONTENTS, ALLOC, LOAD, READONLY, DATA
  4 .rwdata       00000b78  04012768  040132e0  00013768  2**2
                  CONTENTS, ALLOC, LOAD, DATA, SMALL_DATA
  5 .bss          000005b4  04013e58  04013e58  00014e58  2**2
                  ALLOC, SMALL_DATA
  6 .sdram_controller_0 00000000  0401440c  0401440c  000142e0  2**0
                  CONTENTS
  7 .comment      0000002d  00000000  00000000  000142e0  2**0
                  CONTENTS, READONLY
  8 .debug_aranges 00001088  00000000  00000000  00014310  2**3
                  CONTENTS, READONLY, DEBUGGING, OCTETS
  9 .debug_info   0002eac5  00000000  00000000  00015398  2**0
                  CONTENTS, READONLY, DEBUGGING, OCTETS
 10 .debug_abbrev 0000b5fa  00000000  00000000  00043e5d  2**0
                  CONTENTS, READONLY, DEBUGGING, OCTETS
 11 .debug_line   00018722  00000000  00000000  0004f457  2**0
                  CONTENTS, READONLY, DEBUGGING, OCTETS
 12 .debug_frame  000025b0  00000000  00000000  00067b7c  2**2
                  CONTENTS, READONLY, DEBUGGING, OCTETS
 13 .debug_str    0000414d  00000000  00000000  0006a12c  2**0
                  CONTENTS, READONLY, DEBUGGING, OCTETS
 14 .debug_loc    000204cd  00000000  00000000  0006e279  2**0
                  CONTENTS, READONLY, DEBUGGING, OCTETS
 15 .debug_alt_sim_info 00000010  00000000  00000000  0008e748  2**2
                  CONTENTS, READONLY, DEBUGGING, OCTETS
 16 .debug_ranges 000026a8  00000000  00000000  0008e758  2**3
                  CONTENTS, READONLY, DEBUGGING, OCTETS
 17 .thread_model 00000003  00000000  00000000  000942e4  2**0
                  CONTENTS, READONLY
 18 .cpu          00000005  00000000  00000000  000942e7  2**0
                  CONTENTS, READONLY
 19 .qsys         00000001  00000000  00000000  000942ec  2**0
                  CONTENTS, READONLY
 20 .simulation_enabled 00000001  00000000  00000000  000942ed  2**0
                  CONTENTS, READONLY
 21 .stderr_dev   00000006  00000000  00000000  000942ee  2**0
                  CONTENTS, READONLY
 22 .stdin_dev    00000006  00000000  00000000  000942f4  2**0
                  CONTENTS, READONLY
 23 .stdout_dev   00000006  00000000  00000000  000942fa  2**0
                  CONTENTS, READONLY
 24 .sopc_system_name 00000003  00000000  00000000  00094300  2**0
                  CONTENTS, READONLY
 25 .quartus_project_dir 0000004d  00000000  00000000  00094303  2**0
                  CONTENTS, READONLY
 26 .jdi          000031de  00000000  00000000  00094350  2**0
                  CONTENTS, READONLY
SYMBOL TABLE:
04000000 l    d  .entry	00000000 .entry
04000020 l    d  .exceptions	00000000 .exceptions
04000224 l    d  .text	00000000 .text
04012074 l    d  .rodata	00000000 .rodata
04012768 l    d  .rwdata	00000000 .rwdata
04013e58 l    d  .bss	00000000 .bss
0401440c l    d  .sdram_controller_0	00000000 .sdram_controller_0
00000000 l    d  .comment	00000000 .comment
00000000 l    d  .debug_aranges	00000000 .debug_aranges
00000000 l    d  .debug_info	00000000 .debug_info
00000000 l    d  .debug_abbrev	00000000 .debug_abbrev
00000000 l    d  .debug_line	00000000 .debug_line
00000000 l    d  .debug_frame	00000000 .debug_frame
00000000 l    d  .debug_str	00000000 .debug_str
00000000 l    d  .debug_loc	00000000 .debug_loc
00000000 l    d  .debug_alt_sim_info	00000000 .debug_alt_sim_info
00000000 l    d  .debug_ranges	00000000 .debug_ranges
00000000 l    df *ABS*	00000000 c:/Users/gabri/OneDrive/Desktop/EFES_Project/projects/TempControllerRoom_FPGA/software/RoomTempControllerSW_bsp//obj/HAL/src/crt0.o
0400025c l       .text	00000000 alt_after_alt_main
00000000 l    df *ABS*	00000000 alt_irq_handler.c
00000000 l    df *ABS*	00000000 alt_instruction_exception_entry.c
00000000 l    df *ABS*	00000000 HistoryMemory.c
00000000 l    df *ABS*	00000000 adc.c
00000000 l    df *ABS*	00000000 pwm.c
00000000 l    df *ABS*	00000000 uart.c
00000000 l    df *ABS*	00000000 hello_world.c
04013e5c l     O .bss	00000004 uart0
04013e60 l     O .bss	00000008 pwm0
04013e68 l     O .bss	00000008 pwm1
04013e70 l     O .bss	00000008 history0
040132a8 l     O .rwdata	00000004 sampling_period_ms
040132ac l     O .rwdata	00000004 avg_each_count
04013ec0 l     O .bss	0000000c th0
04013ecc l     O .bss	0000000c th1
04013ed8 l     O .bss	0000000c th2
04013e78 l     O .bss	00000004 history_address
04013e7c l     O .bss	00000004 retrieve_history_address
04013e80 l     O .bss	00000004 lost_acks
04013e84 l     O .bss	00000001 buffer_post.3
04013ee4 l     O .bss	00000400 buffer.2
04013e88 l     O .bss	00000004 i.1
04013e8c l     O .bss	00000004 is_stx.0
00000000 l    df *ABS*	00000000 lib2-divmod.c
00000000 l    df *ABS*	00000000 lib2-mul.c
00000000 l    df *ABS*	00000000 divsf3.c
00000000 l    df *ABS*	00000000 gesf2.c
00000000 l    df *ABS*	00000000 fixsfsi.c
00000000 l    df *ABS*	00000000 floatsisf.c
00000000 l    df *ABS*	00000000 floatunsisf.c
00000000 l    df *ABS*	00000000 libgcc2.c
00000000 l    df *ABS*	00000000 libgcc2.c
00000000 l    df *ABS*	00000000 sprintf.c
00000000 l    df *ABS*	00000000 vfprintf.c
04012264 l     O .rodata	00000010 blanks.1
04012254 l     O .rodata	00000010 zeroes.0
00000000 l    df *ABS*	00000000 dtoa.c
04004724 l     F .text	00000220 quorem
00000000 l    df *ABS*	00000000 impure.c
04012768 l     O .rwdata	00000424 impure_data
00000000 l    df *ABS*	00000000 localeconv.c
00000000 l    df *ABS*	00000000 mallocr.c
00000000 l    df *ABS*	00000000 memchr.c
00000000 l    df *ABS*	00000000 memcpy.c
00000000 l    df *ABS*	00000000 mprec.c
04012318 l     O .rodata	0000000c p05.0
00000000 l    df *ABS*	00000000 sbrkr.c
00000000 l    df *ABS*	00000000 strlen.c
00000000 l    df *ABS*	00000000 vfprintf.c
0401244c l     O .rodata	00000010 blanks.1
0401243c l     O .rodata	00000010 zeroes.0
00000000 l    df *ABS*	00000000 assert.c
00000000 l    df *ABS*	00000000 mallocr.c
00000000 l    df *ABS*	00000000 fiprintf.c
00000000 l    df *ABS*	00000000 mallocr.c
00000000 l    df *ABS*	00000000 int_errno.c
00000000 l    df *ABS*	00000000 locale.c
00000000 l    df *ABS*	00000000 mbtowc_r.c
00000000 l    df *ABS*	00000000 memmove.c
00000000 l    df *ABS*	00000000 memset.c
00000000 l    df *ABS*	00000000 mallocr.c
00000000 l    df *ABS*	00000000 strcmp.c
00000000 l    df *ABS*	00000000 vfiprintfr_1.c
00000000 l    df *ABS*	00000000 wctomb_r.c
00000000 l    df *ABS*	00000000 abort.c
00000000 l    df *ABS*	00000000 ctype_.c
00000000 l    df *ABS*	00000000 signal.c
00000000 l    df *ABS*	00000000 signalr.c
00000000 l    df *ABS*	00000000 vfprintf.c
0400a4d0 l     F .text	000000f4 __sprint_r.part.0
0400b93c l     F .text	000000c0 __sbprintf
04012740 l     O .rodata	00000010 blanks.1
04012730 l     O .rodata	00000010 zeroes.0
00000000 l    df *ABS*	00000000 wsetup.c
00000000 l    df *ABS*	00000000 fflush.c
00000000 l    df *ABS*	00000000 findfp.c
0400be6c l     F .text	00000008 __fp_lock
0400be80 l     F .text	00000008 __fp_unlock
0400be88 l     F .text	00000168 __sinit.part.0
00000000 l    df *ABS*	00000000 fputwc.c
00000000 l    df *ABS*	00000000 fvwrite.c
00000000 l    df *ABS*	00000000 fwalk.c
00000000 l    df *ABS*	00000000 makebuf.c
00000000 l    df *ABS*	00000000 stdio.c
00000000 l    df *ABS*	00000000 wbuf.c
00000000 l    df *ABS*	00000000 wcrtomb.c
00000000 l    df *ABS*	00000000 writer.c
00000000 l    df *ABS*	00000000 closer.c
00000000 l    df *ABS*	00000000 fclose.c
0400d0b8 l     F .text	000000c0 _fclose_r.part.0
00000000 l    df *ABS*	00000000 fstatr.c
00000000 l    df *ABS*	00000000 isattyr.c
00000000 l    df *ABS*	00000000 lseekr.c
00000000 l    df *ABS*	00000000 readr.c
00000000 l    df *ABS*	00000000 libgcc2.c
00000000 l    df *ABS*	00000000 libgcc2.c
00000000 l    df *ABS*	00000000 adddf3.c
00000000 l    df *ABS*	00000000 divdf3.c
00000000 l    df *ABS*	00000000 eqdf2.c
00000000 l    df *ABS*	00000000 gedf2.c
00000000 l    df *ABS*	00000000 ledf2.c
00000000 l    df *ABS*	00000000 muldf3.c
00000000 l    df *ABS*	00000000 subdf3.c
00000000 l    df *ABS*	00000000 unorddf2.c
00000000 l    df *ABS*	00000000 fixdfsi.c
00000000 l    df *ABS*	00000000 floatsidf.c
00000000 l    df *ABS*	00000000 floatunsidf.c
00000000 l    df *ABS*	00000000 alt_close.c
040106a8 l     F .text	0000003c alt_get_errno
00000000 l    df *ABS*	00000000 alt_dev.c
040107c0 l     F .text	0000002c alt_dev_null_write
00000000 l    df *ABS*	00000000 alt_errno.c
00000000 l    df *ABS*	00000000 alt_exit.c
00000000 l    df *ABS*	00000000 alt_fstat.c
04010824 l     F .text	0000003c alt_get_errno
00000000 l    df *ABS*	00000000 alt_getpid.c
00000000 l    df *ABS*	00000000 alt_iic.c
00000000 l    df *ABS*	00000000 alt_iic_isr_register.c
00000000 l    df *ABS*	00000000 alt_irq_vars.c
00000000 l    df *ABS*	00000000 alt_isatty.c
04010bd4 l     F .text	0000003c alt_get_errno
00000000 l    df *ABS*	00000000 alt_kill.c
04010cc0 l     F .text	0000003c alt_get_errno
00000000 l    df *ABS*	00000000 alt_load.c
04010e28 l     F .text	00000068 alt_load_section
00000000 l    df *ABS*	00000000 alt_lseek.c
04010f14 l     F .text	0000003c alt_get_errno
00000000 l    df *ABS*	00000000 alt_main.c
00000000 l    df *ABS*	00000000 alt_malloc_lock.c
00000000 l    df *ABS*	00000000 alt_read.c
040110f4 l     F .text	0000003c alt_get_errno
00000000 l    df *ABS*	00000000 alt_release_fd.c
00000000 l    df *ABS*	00000000 alt_sbrk.c
040132dc l     O .rwdata	00000004 heap_end
00000000 l    df *ABS*	00000000 alt_write.c
04011360 l     F .text	0000003c alt_get_errno
00000000 l    df *ABS*	00000000 alt_sys_init.c
00000000 l    df *ABS*	00000000 altera_avalon_timer_ts.c
00000000 l    df *ABS*	00000000 altera_avalon_timer_vars.c
00000000 l    df *ABS*	00000000 alt_dcache_flush_all.c
00000000 l    df *ABS*	00000000 alt_do_ctors.c
00000000 l    df *ABS*	00000000 alt_do_dtors.c
00000000 l    df *ABS*	00000000 alt_icache_flush_all.c
00000000 l    df *ABS*	00000000 alt_io_redirect.c
040117c8 l     F .text	000000d4 alt_open_fd
00000000 l    df *ABS*	00000000 alt_open.c
04011918 l     F .text	0000003c alt_get_errno
04011954 l     F .text	000000dc alt_file_locked
00000000 l    df *ABS*	00000000 altera_nios2_gen2_irq.c
00000000 l    df *ABS*	00000000 alt_find_dev.c
00000000 l    df *ABS*	00000000 alt_find_file.c
00000000 l    df *ABS*	00000000 alt_get_fd.c
00000000 l    df *ABS*	00000000 atexit.c
00000000 l    df *ABS*	00000000 exit.c
00000000 l    df *ABS*	00000000 memcmp.c
00000000 l    df *ABS*	00000000 __atexit.c
00000000 l    df *ABS*	00000000 __call_atexit.c
04013ebc g     O .bss	00000004 alt_instruction_exception_handler
04007b00 g     F .text	00000070 _mprec_log10
04000598 g     F .text	00000038 adc_stop
04007bec g     F .text	00000060 __any_on
0400d2b8 g     F .text	00000058 _isatty_r
04012324 g     O .rodata	00000028 __mprec_tinytens
04011030 g     F .text	0000007c alt_main
04001c08 g     F .text	00000068 history0_addr_get_update
0401430c g     O .bss	00000100 alt_irq
0400d310 g     F .text	00000064 _lseek_r
040132e0 g       *ABS*	00000000 __flash_rwdata_start
0400f1dc g     F .text	00000080 .hidden __eqdf2
04000604 g     F .text	00000068 adc_start_get
0401440c g       *ABS*	00000000 __alt_heap_start
0400a46c g     F .text	00000060 _kill_r
0400cf08 g     F .text	0000006c _wcrtomb_r
04009fdc g     F .text	00000098 _signal_r
0400cd44 g     F .text	0000005c __sseek
0400c1d0 g     F .text	00000010 __sinit
0400cda8 g     F .text	00000148 __swbuf_r
040095ac g     F .text	00000074 _setlocale_r
0400bff0 g     F .text	00000078 __sfmoreglue
040110d0 g     F .text	00000024 __malloc_unlock
040002d8 g     F .text	00000100 historymem_write
04001e4c g     F .text	000003f4 .hidden __divsf3
04013eb8 g     O .bss	00000004 altera_avalon_timer_ts_freq
040096f0 g     F .text	0000012c memmove
0400c1bc g     F .text	00000014 _cleanup
04006a5c g     F .text	000000a4 _Balloc
040022f8 g     F .text	00000070 .hidden __fixsfsi
0400f25c g     F .text	000000e8 .hidden __gtdf2
04011b90 g     F .text	00000024 altera_nios2_gen2_irq_init
04000000 g     F .entry	0000000c __reset
0400608c g     F .text	00000008 __localeconv_l
04000020 g       *ABS*	00000000 __flash_exceptions_start
0400d258 g     F .text	00000060 _fstat_r
04013e9c g     O .bss	00000004 errno
0400ccbc g     F .text	00000008 __seofread
04001b28 g     F .text	0000004c gabriuart_checksum
04007f00 g     F .text	00001100 ___svfiprintf_internal_r
04013eac g     O .bss	00000004 alt_argv
0401b2a8 g       *ABS*	00000000 _gp
040003d8 g     F .text	00000080 historymem_wr_check
0401091c g     F .text	00000020 getpid
04013e58 g     O .bss	00000004 cmd_e
04013128 g     O .rwdata	00000180 alt_fd_list
04011bb4 g     F .text	00000090 alt_find_dev
0400695c g     F .text	00000100 memcpy
040008ac g     F .text	0000004c uputc
0400be74 g     F .text	0000000c _cleanup_r
04010560 g     F .text	000000b8 .hidden __floatsidf
0401189c g     F .text	0000007c alt_io_redirect
0400f344 g     F .text	000000e8 .hidden __ltdf2
04012074 g       *ABS*	00000000 __DTOR_END__
04011730 g     F .text	00000098 alt_exception_cause_generated_bad_addr
04007a5c g     F .text	000000a4 __ratio
0400b920 g     F .text	0000001c __vfiprintf_internal
04001d64 g     F .text	00000064 .hidden __udivsi3
04010c10 g     F .text	000000b0 isatty
0400a074 g     F .text	000000c4 _raise_r
04009000 g     F .text	00000064 __assert_func
04012374 g     O .rodata	000000c8 __mprec_tens
04013e98 g     O .bss	00000004 __malloc_top_pad
040007f4 g     F .text	000000b8 uprintf
0400a4cc g     F .text	00000004 _getpid_r
04006094 g     F .text	0000000c _localeconv_r
0400c418 g     F .text	000004c8 __sfvwrite_r
04006ecc g     F .text	000000b0 __i2b
0400a138 g     F .text	000000bc __sigtramp_r
04007c4c g     F .text	00000058 _sbrk_r
0400d374 g     F .text	00000064 _read_r
040132d0 g     O .rwdata	00000004 alt_max_fd
0400d178 g     F .text	00000070 _fclose_r
0400bde8 g     F .text	00000084 fflush
04013e94 g     O .bss	00000004 __malloc_max_sbrked_mem
0400dfbc g     F .text	000008f0 .hidden __adddf3
040077f0 g     F .text	00000108 __b2d
0400d9f8 g     F .text	000005c4 .hidden __umoddi3
04010f50 g     F .text	000000e0 lseek
04000000 g       *ABS*	00000000 __alt_mem_sdram_controller_0
040132b0 g     O .rwdata	00000004 _global_impure_ptr
0400990c g     F .text	00000564 _realloc_r
0401440c g       *ABS*	00000000 __bss_end
040007b4 g     F .text	00000040 uart_begin
04010aec g     F .text	000000e8 alt_iic_isr_register
0400d3d8 g     F .text	00000620 .hidden __udivdi3
0400c37c g     F .text	00000024 _fputwc_r
0401234c g     O .rodata	00000028 __mprec_bigtens
04006c80 g     F .text	00000138 __s2b
04009f68 g     F .text	00000018 abort
04010618 g     F .text	00000090 .hidden __floatunsidf
04007510 g     F .text	00000058 __mcmp
04000a0c g     F .text	000000a4 ugetc
0400c1f0 g     F .text	00000014 __fp_lock_all
04010aa0 g     F .text	0000004c alt_ic_irq_enabled
04013ea4 g     O .bss	00000004 alt_irq_active
040000fc g     F .exceptions	000000c8 alt_irq_handler
04013100 g     O .rwdata	00000028 alt_dev_null
04000748 g     F .text	0000006c pwm_set_dutycycle
040008f8 g     F .text	00000114 ugets
04011628 g     F .text	00000020 alt_dcache_flush_all
04006db8 g     F .text	00000064 __hi0bits
040104e0 g     F .text	00000080 .hidden __fixdfsi
040132e0 g       *ABS*	00000000 __ram_rwdata_end
040132c8 g     O .rwdata	00000008 alt_dev_list
0401139c g     F .text	00000104 write
04011608 g     F .text	00000020 alt_timestamp_freq
04002240 g     F .text	000000b8 .hidden __gtsf2
04012768 g       *ABS*	00000000 __ram_rodata_end
0400066c g     F .text	00000070 pwm_init
04010860 g     F .text	000000bc fstat
04010cfc g     F .text	0000012c kill
0400f344 g     F .text	000000e8 .hidden __ledf2
04007240 g     F .text	00000148 __pow5mult
04000564 g     F .text	00000034 adc_start
0400a5dc g     F .text	00001344 ___vfiprintf_internal_r
04001dc8 g     F .text	0000005c .hidden __umodsi3
0401440c g       *ABS*	00000000 end
040001c4 g     F .exceptions	00000060 alt_instruction_exception_entry
04000458 g     F .text	000000a0 historymem_read
04012074 g       *ABS*	00000000 __CTOR_LIST__
04800000 g       *ABS*	00000000 __alt_stack_pointer
04002588 g     F .text	00000054 .hidden __clzsi2
0400c1e0 g     F .text	00000004 __sfp_lock_acquire
0400688c g     F .text	000000d0 memchr
040025dc g     F .text	00000054 _sprintf_r
040092b0 g     F .text	000002fc _free_r
040125b0 g     O .rodata	00000180 _ctype_b
04009620 g     F .text	0000000c __locale_mb_cur_max
04011f54 g     F .text	00000120 __call_exitprocs
040132b8 g     O .rwdata	00000004 __malloc_sbrk_base
04000224 g     F .text	0000003c _start
04007388 g     F .text	00000188 __lshift
0400a2b0 g     F .text	000000a0 signal
04011130 g     F .text	00000108 read
040114dc g     F .text	00000034 alt_sys_init
04002368 g     F .text	00000124 .hidden __floatsisf
04007d3c g     F .text	000001c4 __ssprint_r
04011ec4 g     F .text	00000090 __register_exitproc
040006dc g     F .text	0000006c pwm_set_prescaler
04006f7c g     F .text	000002c4 __multiply
04001e24 g     F .text	00000028 .hidden __mulsi3
04012768 g       *ABS*	00000000 __ram_rwdata_start
04012074 g       *ABS*	00000000 __ram_rodata_start
040142e4 g     O .bss	00000028 __malloc_current_mallinfo
040078f8 g     F .text	00000164 __d2b
04011d4c g     F .text	000000b8 alt_get_fd
0400d060 g     F .text	00000058 _close_r
04011e4c g     F .text	00000078 memcmp
0401440c g       *ABS*	00000000 __alt_stack_base
0400b9fc g     F .text	00000164 __swsetup_r
0400e8ac g     F .text	00000930 .hidden __divdf3
0400c068 g     F .text	00000154 __sfp
04000ab0 g     F .text	0000004c uart_register_irq
04007b70 g     F .text	0000007c __copybits
04012b8c g     O .rwdata	00000408 __malloc_av_
0400c1ec g     F .text	00000004 __sinit_lock_release
0400f42c g     F .text	000007ac .hidden __muldf3
0400cc68 g     F .text	00000054 __sread
04011c44 g     F .text	00000108 alt_find_file
040110ac g     F .text	00000024 __malloc_lock
040112a8 g     F .text	000000b8 sbrk
04002694 g     F .text	00002090 ___svfprintf_internal_r
0400bd88 g     F .text	00000060 _fflush_r
04009078 g     F .text	000000c4 _calloc_r
04013e58 g       *ABS*	00000000 __bss_start
0400981c g     F .text	000000f0 memset
04000afc g     F .text	0000051c main
04013eb0 g     O .bss	00000004 alt_envp
04013e90 g     O .bss	00000004 __malloc_max_total_mem
0400cef0 g     F .text	00000018 __swbuf
0400cda0 g     F .text	00000008 __sclose
04800000 g       *ABS*	00000000 __alt_heap_limit
0400d1e8 g     F .text	00000070 fclose
04011510 g     F .text	00000078 alt_timestamp_start
04004944 g     F .text	00001748 _dtoa_r
040060ac g     F .text	000007e0 _malloc_r
04009f38 g     F .text	00000030 __ascii_wctomb
040132d4 g     O .rwdata	00000004 alt_errno
0400913c g     F .text	00000020 _fiprintf_r
0400a350 g     F .text	00000060 _init_signal
0400c8e0 g     F .text	00000098 _fwalk
040096a0 g     F .text	0000000c _mbtowc_r
04000260 g     F .text	00000078 historymem_init
04001c70 g     F .text	00000080 .hidden __divsi3
04009194 g     F .text	0000011c _malloc_trim_r
04012074 g       *ABS*	00000000 __CTOR_END__
04009e70 g     F .text	000000b8 strcmp
04012074 g       *ABS*	00000000 __flash_rodata_start
04012074 g       *ABS*	00000000 __DTOR_LIST__
0400f1dc g     F .text	00000080 .hidden __nedf2
040114a0 g     F .text	0000003c alt_irq_init
04011238 g     F .text	00000070 alt_release_fd
04002630 g     F .text	00000064 sprintf
04012110 g     O .rodata	00000100 .hidden __clz_tab
04013ea0 g     O .bss	00000004 _PathLocale
04011e04 g     F .text	00000014 atexit
04002240 g     F .text	000000b8 .hidden __gesf2
0400cffc g     F .text	00000064 _write_r
0400962c g     F .text	00000074 setlocale
040132b4 g     O .rwdata	00000004 _impure_ptr
04013ea8 g     O .bss	00000004 alt_argc
040004f8 g     F .text	0000006c adc_init
0400bb60 g     F .text	00000228 __sflush_r
04013eb4 g     O .bss	00000004 altera_avalon_timer_ts_base
040116ac g     F .text	00000064 _do_dtors
04000020 g       .exceptions	00000000 alt_irq_entry
040096ac g     F .text	00000044 __ascii_mbtowc
04007794 g     F .text	0000005c __ulp
0400c204 g     F .text	00000014 __fp_unlock_all
040132c0 g     O .rwdata	00000008 alt_fs_list
04000020 g       *ABS*	00000000 __ram_exceptions_start
040060a0 g     F .text	0000000c localeconv
04011588 g     F .text	00000080 alt_timestamp
0400cbd0 g     F .text	00000098 __swhatbuf_r
0401093c g     F .text	00000050 alt_ic_isr_register
040132e0 g       *ABS*	00000000 _edata
0401440c g       *ABS*	00000000 _end
0400c218 g     F .text	00000164 __fputwc
04000224 g       *ABS*	00000000 __ram_exceptions_end
040019e8 g     F .text	00000140 gabriuart_send
04010a14 g     F .text	0000008c alt_ic_irq_disable
0400ccc4 g     F .text	00000080 __swrite
040132bc g     O .rwdata	00000004 __malloc_trim_threshold
04011e18 g     F .text	00000034 exit
0400915c g     F .text	00000038 fiprintf
04009f28 g     F .text	00000004 _vfiprintf_r
0400c978 g     F .text	000000a8 _fwalk_reent
0400248c g     F .text	000000fc .hidden __floatunsisf
04007568 g     F .text	0000022c __mdiff
04001cf0 g     F .text	00000074 .hidden __modsi3
04800000 g       *ABS*	00000000 __alt_data_end
04000020 g     F .exceptions	00000000 alt_exception
0400c1e4 g     F .text	00000004 __sfp_lock_release
040005d0 g     F .text	00000034 adc_get_last
04001018 g     F .text	000009d0 _ISR_uart0
040124ac g     O .rodata	00000101 _ctype_
0401048c g     F .text	00000054 .hidden __unorddf2
040107ec g     F .text	00000038 _exit
0400ca20 g     F .text	000001b0 __smakebuf_r
04007ca4 g     F .text	00000098 strlen
04009f80 g     F .text	0000005c _init_signal_r
04011a30 g     F .text	00000160 open
0400f25c g     F .text	000000e8 .hidden __gedf2
04001b74 g     F .text	00000094 gabriuart_cmd2_u32
04009064 g     F .text	00000014 __assert
0400a5c4 g     F .text	00000018 __sprint_r
04011710 g     F .text	00000020 alt_icache_flush_all
040132d8 g     O .rwdata	00000004 alt_priority_mask
0401098c g     F .text	00000088 alt_ic_irq_enable
04009f2c g     F .text	0000000c _wctomb_r
0400fbd8 g     F .text	000008b4 .hidden __subdf3
04006e1c g     F .text	000000b0 __lo0bits
04011648 g     F .text	00000064 _do_ctors
0400a3b0 g     F .text	000000bc __sigtramp
0400cf74 g     F .text	00000088 wcrtomb
040106e4 g     F .text	000000dc close
04012f94 g     O .rwdata	0000016c __global_locale
04010e90 g     F .text	00000084 alt_load
0400c3a0 g     F .text	00000078 fputwc
0400a1f4 g     F .text	000000bc raise
0400c1e8 g     F .text	00000004 __sinit_lock_acquire
04006b24 g     F .text	0000015c __multadd
04006b00 g     F .text	00000024 _Bfree



Disassembly of section .entry:

04000000 <__reset>:
 * Jump to the _start entry point in the .text section if reset code
 * is allowed or if optimizing for RTL simulation.
 */
#if defined(ALT_ALLOW_CODE_AT_RESET) || defined(ALT_SIM_OPTIMIZE)
    /* Jump to the _start entry point in the .text section. */
    movhi r1, %hi(_start)
 4000000:	00410034 	movhi	at,1024
    ori r1, r1, %lo(_start)
 4000004:	08408914 	ori	at,at,548
    jmp r1
 4000008:	0800683a 	jmp	at
	...

Disassembly of section .exceptions:

04000020 <alt_exception>:

#else /* ALT_EXCEPTION_STACK disabled */
        /* 
         * Reserve space on normal stack for registers about to be pushed.
         */
        addi  sp, sp, -76
 4000020:	deffed04 	addi	sp,sp,-76
         * documentation for details).
         *
         * Leave a gap in the stack frame at 4(sp) for the muldiv handler to
         * store zero into.
         */
        stw   ra,  0(sp)
 4000024:	dfc00015 	stw	ra,0(sp)
        stw   r1,   8(sp)
 4000028:	d8400215 	stw	at,8(sp)
        stw   r2,  12(sp)
 400002c:	d8800315 	stw	r2,12(sp)
        stw   r3,  16(sp)
 4000030:	d8c00415 	stw	r3,16(sp)
        stw   r4,  20(sp)
 4000034:	d9000515 	stw	r4,20(sp)
        stw   r5,  24(sp)
 4000038:	d9400615 	stw	r5,24(sp)
        stw   r6,  28(sp)
 400003c:	d9800715 	stw	r6,28(sp)
        stw   r7,  32(sp)
 4000040:	d9c00815 	stw	r7,32(sp)
        rdctl r5, estatus   /* Read early to avoid usage stall */
 4000044:	000b307a 	rdctl	r5,estatus
        stw   r8,  36(sp)
 4000048:	da000915 	stw	r8,36(sp)
        stw   r9,  40(sp)
 400004c:	da400a15 	stw	r9,40(sp)
        stw   r10, 44(sp)
 4000050:	da800b15 	stw	r10,44(sp)
        stw   r11, 48(sp)
 4000054:	dac00c15 	stw	r11,48(sp)
        stw   r12, 52(sp)
 4000058:	db000d15 	stw	r12,52(sp)
        stw   r13, 56(sp)
 400005c:	db400e15 	stw	r13,56(sp)
        stw   r14, 60(sp)
 4000060:	db800f15 	stw	r14,60(sp)
        stw   r15, 64(sp)
 4000064:	dbc01015 	stw	r15,64(sp)
        /*
         * ea-4 contains the address of the instruction being executed
         * when the exception occured. For interrupt exceptions, we will
         * will be re-issue the isntruction. Store it in 72(sp)
         */
        stw   r5,  68(sp)  /* estatus */
 4000068:	d9401115 	stw	r5,68(sp)
        addi  r15, ea, -4  /* instruction that caused exception */
 400006c:	ebffff04 	addi	r15,ea,-4
        stw   r15,  72(sp)
 4000070:	dbc01215 	stw	r15,72(sp)
#else
        /*
         * Test to see if the exception was a software exception or caused 
         * by an external interrupt, and vector accordingly.
         */
        rdctl r4, ipending
 4000074:	0009313a 	rdctl	r4,ipending
        andi  r2, r5, 1
 4000078:	2880004c 	andi	r2,r5,1
        beq   r2, zero, .Lnot_irq
 400007c:	10000326 	beq	r2,zero,400008c <alt_exception+0x6c>
        beq   r4, zero, .Lnot_irq
 4000080:	20000226 	beq	r4,zero,400008c <alt_exception+0x6c>
        /*
         * Now that all necessary registers have been preserved, call 
         * alt_irq_handler() to process the interrupts.
         */

        call alt_irq_handler
 4000084:	40000fc0 	call	40000fc <alt_irq_handler>

        .section .exceptions.irqreturn, "xa"

        br    .Lexception_exit
 4000088:	00000706 	br	40000a8 <alt_exception+0x88>
         * upon completion, so we write ea (address of instruction *after*
         * the one where the exception occured) into 72(sp). The actual
         * instruction that caused the exception is written in r2, which these
         * handlers will utilize.
         */
        stw ea, 72(sp) /* EA is PC+4 so will skip over instruction causing exception */
 400008c:	df401215 	stw	ea,72(sp)
.Lunknown_16bit:
        addi.n r4, r4, 2 /* Need PC+2 to skip over instruction causing exception */
        stw r4, 72(sp)

#else /* CDX is not Enabled and all instructions are 32bits */
        ldw r2, -4(ea) /* Instruction value that caused exception */
 4000090:	e8bfff17 	ldw	r2,-4(ea)
         * debugger is present) or go into an infinite loop since the
         * handling behavior is undefined; in that case we will not return here.
         */

        /* Load exception-causing address as first argument (r4) */
        addi   r4, ea, -4
 4000094:	e93fff04 	addi	r4,ea,-4

        /* Call the instruction-exception entry */
        call   alt_instruction_exception_entry
 4000098:	40001c40 	call	40001c4 <alt_instruction_exception_entry>
         * instruction
         *
         * Return code was 0: Skip. The instruction after the exception is
         * already stored in 72(sp).
         */
        bne   r2, r0, .Lexception_exit
 400009c:	1000021e 	bne	r2,zero,40000a8 <alt_exception+0x88>

        /*
         * Otherwise, modify 72(sp) to re-issue the instruction that caused the
         * exception.
         */
        addi  r15, ea, -4  /* instruction that caused exception */
 40000a0:	ebffff04 	addi	r15,ea,-4
        stw   r15,  72(sp)
 40000a4:	dbc01215 	stw	r15,72(sp)
        /* 
         * Restore the saved registers, so that all general purpose registers 
         * have been restored to their state at the time the interrupt occured.
         */

        ldw   r5,  68(sp)
 40000a8:	d9401117 	ldw	r5,68(sp)
        ldw   ea,  72(sp)  /* This becomes the PC once eret is executed */
 40000ac:	df401217 	ldw	ea,72(sp)
        ldw   ra,   0(sp)
 40000b0:	dfc00017 	ldw	ra,0(sp)

        wrctl estatus, r5
 40000b4:	2801707a 	wrctl	estatus,r5

        ldw   r1,   8(sp)
 40000b8:	d8400217 	ldw	at,8(sp)
        ldw   r2,  12(sp)
 40000bc:	d8800317 	ldw	r2,12(sp)
        ldw   r3,  16(sp)
 40000c0:	d8c00417 	ldw	r3,16(sp)
        ldw   r4,  20(sp)
 40000c4:	d9000517 	ldw	r4,20(sp)
        ldw   r5,  24(sp)
 40000c8:	d9400617 	ldw	r5,24(sp)
        ldw   r6,  28(sp)
 40000cc:	d9800717 	ldw	r6,28(sp)
        ldw   r7,  32(sp)
 40000d0:	d9c00817 	ldw	r7,32(sp)

#if defined(ALT_EXCEPTION_STACK) && defined(ALT_STACK_CHECK)
        ldw   et, %gprel(alt_exception_old_stack_limit)(gp)
#endif

        ldw   r8,  36(sp)
 40000d4:	da000917 	ldw	r8,36(sp)
        ldw   r9,  40(sp)
 40000d8:	da400a17 	ldw	r9,40(sp)
        ldw   r10, 44(sp)
 40000dc:	da800b17 	ldw	r10,44(sp)
        ldw   r11, 48(sp)
 40000e0:	dac00c17 	ldw	r11,48(sp)
        ldw   r12, 52(sp)
 40000e4:	db000d17 	ldw	r12,52(sp)
        ldw   r13, 56(sp)
 40000e8:	db400e17 	ldw	r13,56(sp)
        ldw   r14, 60(sp)
 40000ec:	db800f17 	ldw	r14,60(sp)
        ldw   r15, 64(sp)
 40000f0:	dbc01017 	ldw	r15,64(sp)
        stw   et, %gprel(alt_stack_limit_value)(gp)
        stw   zero, %gprel(alt_exception_old_stack_limit)(gp)
#endif /* ALT_STACK_CHECK */
        ldw   sp,  76(sp)
#else /* ALT_EXCEPTION_STACK disabled */
        addi  sp, sp, 76
 40000f4:	dec01304 	addi	sp,sp,76

        /*
         * Return to the interrupted instruction.
         */

        eret
 40000f8:	ef80083a 	eret

040000fc <alt_irq_handler>:
 * instruction is present if the macro ALT_CI_INTERRUPT_VECTOR defined.
 */

void alt_irq_handler (void) __attribute__ ((section (".exceptions")));
void alt_irq_handler (void)
{
 40000fc:	defff904 	addi	sp,sp,-28
 4000100:	dfc00615 	stw	ra,24(sp)
 4000104:	df000515 	stw	fp,20(sp)
 4000108:	df000504 	addi	fp,sp,20
  
  /*
   * Notify the operating system that we are at interrupt level.
   */ 
  
  ALT_OS_INT_ENTER();
 400010c:	0001883a 	nop
#ifndef NIOS2_EIC_PRESENT
static ALT_INLINE alt_u32 ALT_ALWAYS_INLINE alt_irq_pending (void)
{
  alt_u32 active;

  NIOS2_READ_IPENDING (active);
 4000110:	0005313a 	rdctl	r2,ipending
 4000114:	e0bffc15 	stw	r2,-16(fp)

  return active;
 4000118:	e0bffc17 	ldw	r2,-16(fp)
   * Consider the case where the high priority interupt is asserted during
   * the interrupt entry sequence for a lower priority interrupt to see why
   * this is the case.
   */

  active = alt_irq_pending ();
 400011c:	e0bfff15 	stw	r2,-4(fp)

  do
  {
    i = 0;
 4000120:	e03ffd15 	stw	zero,-12(fp)
    mask = 1;
 4000124:	00800044 	movi	r2,1
 4000128:	e0bffe15 	stw	r2,-8(fp)
     * called to clear the interrupt condition.
     */

    do
    {
      if (active & mask)
 400012c:	e0ffff17 	ldw	r3,-4(fp)
 4000130:	e0bffe17 	ldw	r2,-8(fp)
 4000134:	1884703a 	and	r2,r3,r2
 4000138:	10001126 	beq	r2,zero,4000180 <alt_irq_handler+0x84>
      { 
#ifdef ALT_ENHANCED_INTERRUPT_API_PRESENT
        alt_irq[i].handler(alt_irq[i].context); 
 400013c:	e0bffd17 	ldw	r2,-12(fp)
 4000140:	100690fa 	slli	r3,r2,3
 4000144:	00810074 	movhi	r2,1025
 4000148:	1885883a 	add	r2,r3,r2
 400014c:	10d0c317 	ldw	r3,17164(r2)
 4000150:	e0bffd17 	ldw	r2,-12(fp)
 4000154:	100890fa 	slli	r4,r2,3
 4000158:	00810074 	movhi	r2,1025
 400015c:	2085883a 	add	r2,r4,r2
 4000160:	1090c417 	ldw	r2,17168(r2)
 4000164:	1009883a 	mov	r4,r2
 4000168:	183ee83a 	callr	r3
#else
        alt_irq[i].handler(alt_irq[i].context, i); 
#endif
        break;
 400016c:	0001883a 	nop
  NIOS2_READ_IPENDING (active);
 4000170:	0005313a 	rdctl	r2,ipending
 4000174:	e0bffb15 	stw	r2,-20(fp)
  return active;
 4000178:	e0bffb17 	ldw	r2,-20(fp)
 400017c:	00000706 	br	400019c <alt_irq_handler+0xa0>
      }
      mask <<= 1;
 4000180:	e0bffe17 	ldw	r2,-8(fp)
 4000184:	1085883a 	add	r2,r2,r2
 4000188:	e0bffe15 	stw	r2,-8(fp)
      i++;
 400018c:	e0bffd17 	ldw	r2,-12(fp)
 4000190:	10800044 	addi	r2,r2,1
 4000194:	e0bffd15 	stw	r2,-12(fp)
      if (active & mask)
 4000198:	003fe406 	br	400012c <alt_irq_handler+0x30>

    } while (1);

    active = alt_irq_pending ();
 400019c:	e0bfff15 	stw	r2,-4(fp)
    
  } while (active);
 40001a0:	e0bfff17 	ldw	r2,-4(fp)
 40001a4:	103fde1e 	bne	r2,zero,4000120 <alt_irq_handler+0x24>

  /*
   * Notify the operating system that interrupt processing is complete.
   */ 

  ALT_OS_INT_EXIT();
 40001a8:	0001883a 	nop
}
 40001ac:	0001883a 	nop
 40001b0:	e037883a 	mov	sp,fp
 40001b4:	dfc00117 	ldw	ra,4(sp)
 40001b8:	df000017 	ldw	fp,0(sp)
 40001bc:	dec00204 	addi	sp,sp,8
 40001c0:	f800283a 	ret

040001c4 <alt_instruction_exception_entry>:
 * that handler if it has been registered. Absent a handler, it will
 * break break or hang as discussed below.
 */
int 
alt_instruction_exception_entry (alt_u32 exception_pc)
{
 40001c4:	defffb04 	addi	sp,sp,-20
 40001c8:	dfc00415 	stw	ra,16(sp)
 40001cc:	df000315 	stw	fp,12(sp)
 40001d0:	df000304 	addi	fp,sp,12
 40001d4:	e13ffd15 	stw	r4,-12(fp)
  cause = ( (cause & NIOS2_EXCEPTION_REG_CAUSE_MASK) >>
              NIOS2_EXCEPTION_REG_CAUSE_OFST );

  NIOS2_READ_BADADDR(badaddr);
#else
  cause = NIOS2_EXCEPTION_CAUSE_NOT_PRESENT;
 40001d8:	00bfffc4 	movi	r2,-1
 40001dc:	e0bfff15 	stw	r2,-4(fp)
  badaddr = 0;
 40001e0:	e03ffe15 	stw	zero,-8(fp)
#endif /* NIOS2_HAS_EXTRA_EXCEPTION_INFO */

  if(alt_instruction_exception_handler) {
 40001e4:	d0a30517 	ldw	r2,-29676(gp)
 40001e8:	10000726 	beq	r2,zero,4000208 <alt_instruction_exception_entry+0x44>
     * Call handler. Its return value indicates whether the exception-causing
     * instruction should be re-issued. The code that called us,
     * alt_eceptions_entry.S, will look at this value and adjust the ea
     * register as necessary
     */
    return alt_instruction_exception_handler(cause, exception_pc, badaddr);
 40001ec:	d0a30517 	ldw	r2,-29676(gp)
 40001f0:	e0ffff17 	ldw	r3,-4(fp)
 40001f4:	e1bffe17 	ldw	r6,-8(fp)
 40001f8:	e17ffd17 	ldw	r5,-12(fp)
 40001fc:	1809883a 	mov	r4,r3
 4000200:	103ee83a 	callr	r2
 4000204:	00000206 	br	4000210 <alt_instruction_exception_entry+0x4c>
   *    (a peripheral which negates its interrupt output before its
   *    interrupt handler has been executed will cause spurious interrupts)
   */
  else {
#ifdef NIOS2_HAS_DEBUG_STUB
    NIOS2_BREAK();
 4000208:	003da03a 	break	0
      ;
#endif /* NIOS2_HAS_DEBUG_STUB */
  }

  /* We should not get here. Remove compiler warning. */
  return NIOS2_EXCEPTION_RETURN_REISSUE_INST;
 400020c:	0005883a 	mov	r2,zero
}
 4000210:	e037883a 	mov	sp,fp
 4000214:	dfc00117 	ldw	ra,4(sp)
 4000218:	df000017 	ldw	fp,0(sp)
 400021c:	dec00204 	addi	sp,sp,8
 4000220:	f800283a 	ret

Disassembly of section .text:

04000224 <_start>:

    /*
     * Now that the caches are initialized, set up the stack pointer and global pointer.
     * The values provided by the linker are assumed to be correctly aligned.
     */
    movhi sp, %hi(__alt_stack_pointer)
 4000224:	06c12034 	movhi	sp,1152
    ori sp, sp, %lo(__alt_stack_pointer)
 4000228:	dec00014 	ori	sp,sp,0
    movhi gp, %hi(_gp)
 400022c:	06810074 	movhi	gp,1025
    ori gp, gp, %lo(_gp)
 4000230:	d6acaa14 	ori	gp,gp,45736
 */
#ifndef ALT_SIM_OPTIMIZE
    /* Log that the BSS is about to be cleared. */
    ALT_LOG_PUTS(alt_log_msg_bss)

    movhi r2, %hi(__bss_start)
 4000234:	00810074 	movhi	r2,1025
    ori r2, r2, %lo(__bss_start)
 4000238:	108f9614 	ori	r2,r2,15960

    movhi r3, %hi(__bss_end)
 400023c:	00c10074 	movhi	r3,1025
    ori r3, r3, %lo(__bss_end)
 4000240:	18d10314 	ori	r3,r3,17420

    beq r2, r3, 1f
 4000244:	10c00326 	beq	r2,r3,4000254 <_start+0x30>

0:
    stw zero, (r2)
 4000248:	10000015 	stw	zero,0(r2)
    addi r2, r2, 4
 400024c:	10800104 	addi	r2,r2,4
    bltu r2, r3, 0b
 4000250:	10fffd36 	bltu	r2,r3,4000248 <_start+0x24>
     * section aren't defined until alt_load() has been called).
     */
    mov   et, zero
#endif

    call alt_load
 4000254:	4010e900 	call	4010e90 <alt_load>

    /* Log that alt_main is about to be called. */
    ALT_LOG_PUTS(alt_log_msg_alt_main)

    /* Call the C entry point. It should never return. */
    call alt_main
 4000258:	40110300 	call	4011030 <alt_main>

0400025c <alt_after_alt_main>:

    /* Wait in infinite loop in case alt_main does return. */
alt_after_alt_main:
    br alt_after_alt_main
 400025c:	003fff06 	br	400025c <alt_after_alt_main>

04000260 <historymem_init>:
#include "HistoryMemory.h"
#include "sys/alt_timestamp.h"

historymem_t historymem_init(int *gpio_wrport_addr, int *gpio_rdport_addr) {
 4000260:	defffb04 	addi	sp,sp,-20
 4000264:	df000415 	stw	fp,16(sp)
 4000268:	df000404 	addi	fp,sp,16
 400026c:	e13ffd15 	stw	r4,-12(fp)
 4000270:	e17ffc15 	stw	r5,-16(fp)
	historymem_t mem;

	mem.write_port = gpio_wrport_addr;
 4000274:	e0bffd17 	ldw	r2,-12(fp)
 4000278:	e0bffe15 	stw	r2,-8(fp)
	mem.read_port = gpio_rdport_addr;
 400027c:	e0bffc17 	ldw	r2,-16(fp)
 4000280:	e0bfff15 	stw	r2,-4(fp)

	mem.read_port->gpio_direction.fields.rdaddr = 0x7ff;
 4000284:	e0ffff17 	ldw	r3,-4(fp)
 4000288:	19000117 	ldw	r4,4(r3)
 400028c:	00800434 	movhi	r2,16
 4000290:	10bf8004 	addi	r2,r2,-512
 4000294:	2084b03a 	or	r2,r4,r2
 4000298:	18800115 	stw	r2,4(r3)
	mem.read_port->gpio_direction.fields.rddata = 0x000;
 400029c:	e0bfff17 	ldw	r2,-4(fp)
 40002a0:	11000117 	ldw	r4,4(r2)
 40002a4:	00ff8044 	movi	r3,-511
 40002a8:	20c6703a 	and	r3,r4,r3
 40002ac:	10c00115 	stw	r3,4(r2)

	return mem;
 40002b0:	e0bffe17 	ldw	r2,-8(fp)
 40002b4:	e0ffff17 	ldw	r3,-4(fp)
 40002b8:	1009883a 	mov	r4,r2
 40002bc:	180b883a 	mov	r5,r3
}
 40002c0:	2005883a 	mov	r2,r4
 40002c4:	2807883a 	mov	r3,r5
 40002c8:	e037883a 	mov	sp,fp
 40002cc:	df000017 	ldw	fp,0(sp)
 40002d0:	dec00104 	addi	sp,sp,4
 40002d4:	f800283a 	ret

040002d8 <historymem_write>:

void historymem_write(historymem_t history, alt_u16 address, alt_u8 data) {
 40002d8:	defff904 	addi	sp,sp,-28
 40002dc:	dfc00615 	stw	ra,24(sp)
 40002e0:	df000515 	stw	fp,20(sp)
 40002e4:	df000504 	addi	fp,sp,20
 40002e8:	e13ffd15 	stw	r4,-12(fp)
 40002ec:	e17ffe15 	stw	r5,-8(fp)
 40002f0:	3005883a 	mov	r2,r6
 40002f4:	3807883a 	mov	r3,r7
 40002f8:	e0bffc0d 	sth	r2,-16(fp)
 40002fc:	1805883a 	mov	r2,r3
 4000300:	e0bffb05 	stb	r2,-20(fp)
	int start;

	history.write_port->control.fields.wraddr = address;
 4000304:	e0fffd17 	ldw	r3,-12(fp)
 4000308:	e0bffc0b 	ldhu	r2,-16(fp)
 400030c:	1081ffcc 	andi	r2,r2,2047
 4000310:	10bfffcc 	andi	r2,r2,65535
 4000314:	1081ffcc 	andi	r2,r2,2047
 4000318:	1008927a 	slli	r4,r2,9
 400031c:	19400017 	ldw	r5,0(r3)
 4000320:	00bffc34 	movhi	r2,65520
 4000324:	10807fc4 	addi	r2,r2,511
 4000328:	2884703a 	and	r2,r5,r2
 400032c:	1104b03a 	or	r2,r2,r4
 4000330:	18800015 	stw	r2,0(r3)
	history.write_port->control.fields.wrdata = data;
 4000334:	e0bffd17 	ldw	r2,-12(fp)
 4000338:	e0fffb03 	ldbu	r3,-20(fp)
 400033c:	18c7883a 	add	r3,r3,r3
 4000340:	11400017 	ldw	r5,0(r2)
 4000344:	013f8044 	movi	r4,-511
 4000348:	2908703a 	and	r4,r5,r4
 400034c:	20c6b03a 	or	r3,r4,r3
 4000350:	10c00015 	stw	r3,0(r2)

	start = alt_timestamp_start();
 4000354:	40115100 	call	4011510 <alt_timestamp_start>
 4000358:	e0bfff15 	stw	r2,-4(fp)
	while(alt_timestamp() - start < TIMER50MHZ_EQUIVALENT);		// Waiting for a memory's clock period
 400035c:	0001883a 	nop
 4000360:	40115880 	call	4011588 <alt_timestamp>
 4000364:	1007883a 	mov	r3,r2
 4000368:	e0bfff17 	ldw	r2,-4(fp)
 400036c:	1885c83a 	sub	r2,r3,r2
 4000370:	10800670 	cmpltui	r2,r2,25
 4000374:	103ffa1e 	bne	r2,zero,4000360 <historymem_write+0x88>

	history.write_port->control.fields.wren = 1;
 4000378:	e0bffd17 	ldw	r2,-12(fp)
 400037c:	10c00017 	ldw	r3,0(r2)
 4000380:	18c00054 	ori	r3,r3,1
 4000384:	10c00015 	stw	r3,0(r2)
	start = alt_timestamp_start();
 4000388:	40115100 	call	4011510 <alt_timestamp_start>
 400038c:	e0bfff15 	stw	r2,-4(fp)
	while(alt_timestamp() - start < TIMER50MHZ_EQUIVALENT);		// Waiting for a memory's clock period
 4000390:	0001883a 	nop
 4000394:	40115880 	call	4011588 <alt_timestamp>
 4000398:	1007883a 	mov	r3,r2
 400039c:	e0bfff17 	ldw	r2,-4(fp)
 40003a0:	1885c83a 	sub	r2,r3,r2
 40003a4:	10800670 	cmpltui	r2,r2,25
 40003a8:	103ffa1e 	bne	r2,zero,4000394 <historymem_write+0xbc>

	history.write_port->control.fields.wren = 0;
 40003ac:	e0bffd17 	ldw	r2,-12(fp)
 40003b0:	11000017 	ldw	r4,0(r2)
 40003b4:	00ffff84 	movi	r3,-2
 40003b8:	20c6703a 	and	r3,r4,r3
 40003bc:	10c00015 	stw	r3,0(r2)
}
 40003c0:	0001883a 	nop
 40003c4:	e037883a 	mov	sp,fp
 40003c8:	dfc00117 	ldw	ra,4(sp)
 40003cc:	df000017 	ldw	fp,0(sp)
 40003d0:	dec00204 	addi	sp,sp,8
 40003d4:	f800283a 	ret

040003d8 <historymem_wr_check>:

alt_u8 historymem_wr_check(historymem_t history, alt_u16 address, alt_u8 data) {
 40003d8:	defffa04 	addi	sp,sp,-24
 40003dc:	dfc00515 	stw	ra,20(sp)
 40003e0:	df000415 	stw	fp,16(sp)
 40003e4:	df000404 	addi	fp,sp,16
 40003e8:	e13ffe15 	stw	r4,-8(fp)
 40003ec:	e17fff15 	stw	r5,-4(fp)
 40003f0:	3005883a 	mov	r2,r6
 40003f4:	3807883a 	mov	r3,r7
 40003f8:	e0bffd0d 	sth	r2,-12(fp)
 40003fc:	1805883a 	mov	r2,r3
 4000400:	e0bffc05 	stb	r2,-16(fp)
	historymem_write(history, address, data);
 4000404:	e0bffd0b 	ldhu	r2,-12(fp)
 4000408:	e0fffc03 	ldbu	r3,-16(fp)
 400040c:	180f883a 	mov	r7,r3
 4000410:	100d883a 	mov	r6,r2
 4000414:	e13ffe17 	ldw	r4,-8(fp)
 4000418:	e17fff17 	ldw	r5,-4(fp)
 400041c:	40002d80 	call	40002d8 <historymem_write>
	return (address == historymem_read(history, address));
 4000420:	e0bffd0b 	ldhu	r2,-12(fp)
 4000424:	100d883a 	mov	r6,r2
 4000428:	e13ffe17 	ldw	r4,-8(fp)
 400042c:	e17fff17 	ldw	r5,-4(fp)
 4000430:	40004580 	call	4000458 <historymem_read>
 4000434:	10803fcc 	andi	r2,r2,255
 4000438:	e0fffd0b 	ldhu	r3,-12(fp)
 400043c:	10bfffcc 	andi	r2,r2,65535
 4000440:	1885003a 	cmpeq	r2,r3,r2
}
 4000444:	e037883a 	mov	sp,fp
 4000448:	dfc00117 	ldw	ra,4(sp)
 400044c:	df000017 	ldw	fp,0(sp)
 4000450:	dec00204 	addi	sp,sp,8
 4000454:	f800283a 	ret

04000458 <historymem_read>:

alt_u8 historymem_read(historymem_t history, alt_u16 address) {
 4000458:	defffa04 	addi	sp,sp,-24
 400045c:	dfc00515 	stw	ra,20(sp)
 4000460:	df000415 	stw	fp,16(sp)
 4000464:	df000404 	addi	fp,sp,16
 4000468:	e13ffd15 	stw	r4,-12(fp)
 400046c:	e17ffe15 	stw	r5,-8(fp)
 4000470:	3005883a 	mov	r2,r6
 4000474:	e0bffc0d 	sth	r2,-16(fp)
	int start;

	history.read_port->control.fields.rdaddr = address;
 4000478:	e0fffe17 	ldw	r3,-8(fp)
 400047c:	e0bffc0b 	ldhu	r2,-16(fp)
 4000480:	1081ffcc 	andi	r2,r2,2047
 4000484:	10bfffcc 	andi	r2,r2,65535
 4000488:	1081ffcc 	andi	r2,r2,2047
 400048c:	1008927a 	slli	r4,r2,9
 4000490:	19400017 	ldw	r5,0(r3)
 4000494:	00bffc34 	movhi	r2,65520
 4000498:	10807fc4 	addi	r2,r2,511
 400049c:	2884703a 	and	r2,r5,r2
 40004a0:	1104b03a 	or	r2,r2,r4
 40004a4:	18800015 	stw	r2,0(r3)

	start = alt_timestamp_start();
 40004a8:	40115100 	call	4011510 <alt_timestamp_start>
 40004ac:	e0bfff15 	stw	r2,-4(fp)
	while(alt_timestamp() - start < TIMER50MHZ_EQUIVALENT);		// Waiting for a memory's clock period
 40004b0:	0001883a 	nop
 40004b4:	40115880 	call	4011588 <alt_timestamp>
 40004b8:	1007883a 	mov	r3,r2
 40004bc:	e0bfff17 	ldw	r2,-4(fp)
 40004c0:	1885c83a 	sub	r2,r3,r2
 40004c4:	10800670 	cmpltui	r2,r2,25
 40004c8:	103ffa1e 	bne	r2,zero,40004b4 <historymem_read+0x5c>

	return history.read_port->control.fields.rddata;
 40004cc:	e0bffe17 	ldw	r2,-8(fp)
 40004d0:	10800017 	ldw	r2,0(r2)
 40004d4:	1004d07a 	srli	r2,r2,1
 40004d8:	1007883a 	mov	r3,r2
 40004dc:	00bfffc4 	movi	r2,-1
 40004e0:	1884703a 	and	r2,r3,r2
}
 40004e4:	e037883a 	mov	sp,fp
 40004e8:	dfc00117 	ldw	ra,4(sp)
 40004ec:	df000017 	ldw	fp,0(sp)
 40004f0:	dec00204 	addi	sp,sp,8
 40004f4:	f800283a 	ret

040004f8 <adc_init>:
#include "adc.h"
#include "system.h"

adc_t adc_init(int *gpio_adc_base) {
 40004f8:	defffd04 	addi	sp,sp,-12
 40004fc:	df000215 	stw	fp,8(sp)
 4000500:	df000204 	addi	fp,sp,8
 4000504:	e13ffe15 	stw	r4,-8(fp)
	adc_t adc;

	adc = (adc_t)gpio_adc_base;
 4000508:	e0bffe17 	ldw	r2,-8(fp)
 400050c:	e0bfff15 	stw	r2,-4(fp)
	adc->direction.reg |= 0x1;
 4000510:	e0bfff17 	ldw	r2,-4(fp)
 4000514:	10800117 	ldw	r2,4(r2)
 4000518:	10c00054 	ori	r3,r2,1
 400051c:	e0bfff17 	ldw	r2,-4(fp)
 4000520:	10c00115 	stw	r3,4(r2)
	adc->direction.reg &= ~0x3fa;
 4000524:	e0bfff17 	ldw	r2,-4(fp)
 4000528:	10c00117 	ldw	r3,4(r2)
 400052c:	00bf0144 	movi	r2,-1019
 4000530:	1886703a 	and	r3,r3,r2
 4000534:	e0bfff17 	ldw	r2,-4(fp)
 4000538:	10c00115 	stw	r3,4(r2)
	adc->control.fields.soc = 0;
 400053c:	e0bfff17 	ldw	r2,-4(fp)
 4000540:	11000017 	ldw	r4,0(r2)
 4000544:	00ffff84 	movi	r3,-2
 4000548:	20c6703a 	and	r3,r4,r3
 400054c:	10c00015 	stw	r3,0(r2)

	return adc;
 4000550:	e0bfff17 	ldw	r2,-4(fp)
}
 4000554:	e037883a 	mov	sp,fp
 4000558:	df000017 	ldw	fp,0(sp)
 400055c:	dec00104 	addi	sp,sp,4
 4000560:	f800283a 	ret

04000564 <adc_start>:

void adc_start(adc_t adc) {
 4000564:	defffe04 	addi	sp,sp,-8
 4000568:	df000115 	stw	fp,4(sp)
 400056c:	df000104 	addi	fp,sp,4
 4000570:	e13fff15 	stw	r4,-4(fp)
	adc->control.fields.soc = 1;
 4000574:	e0bfff17 	ldw	r2,-4(fp)
 4000578:	10c00017 	ldw	r3,0(r2)
 400057c:	18c00054 	ori	r3,r3,1
 4000580:	10c00015 	stw	r3,0(r2)
}
 4000584:	0001883a 	nop
 4000588:	e037883a 	mov	sp,fp
 400058c:	df000017 	ldw	fp,0(sp)
 4000590:	dec00104 	addi	sp,sp,4
 4000594:	f800283a 	ret

04000598 <adc_stop>:

void adc_stop(adc_t adc) {
 4000598:	defffe04 	addi	sp,sp,-8
 400059c:	df000115 	stw	fp,4(sp)
 40005a0:	df000104 	addi	fp,sp,4
 40005a4:	e13fff15 	stw	r4,-4(fp)
	adc->control.fields.soc = 0;
 40005a8:	e0bfff17 	ldw	r2,-4(fp)
 40005ac:	11000017 	ldw	r4,0(r2)
 40005b0:	00ffff84 	movi	r3,-2
 40005b4:	20c6703a 	and	r3,r4,r3
 40005b8:	10c00015 	stw	r3,0(r2)
}
 40005bc:	0001883a 	nop
 40005c0:	e037883a 	mov	sp,fp
 40005c4:	df000017 	ldw	fp,0(sp)
 40005c8:	dec00104 	addi	sp,sp,4
 40005cc:	f800283a 	ret

040005d0 <adc_get_last>:

int adc_get_last(adc_t adc) {
 40005d0:	defffe04 	addi	sp,sp,-8
 40005d4:	df000115 	stw	fp,4(sp)
 40005d8:	df000104 	addi	fp,sp,4
 40005dc:	e13fff15 	stw	r4,-4(fp)
	return adc->control.fields.adc_value;
 40005e0:	e0bfff17 	ldw	r2,-4(fp)
 40005e4:	10800017 	ldw	r2,0(r2)
 40005e8:	1004d0fa 	srli	r2,r2,3
 40005ec:	10801fcc 	andi	r2,r2,127
 40005f0:	10803fcc 	andi	r2,r2,255
}
 40005f4:	e037883a 	mov	sp,fp
 40005f8:	df000017 	ldw	fp,0(sp)
 40005fc:	dec00104 	addi	sp,sp,4
 4000600:	f800283a 	ret

04000604 <adc_start_get>:

int adc_start_get(adc_t adc) {
 4000604:	defffd04 	addi	sp,sp,-12
 4000608:	dfc00215 	stw	ra,8(sp)
 400060c:	df000115 	stw	fp,4(sp)
 4000610:	df000104 	addi	fp,sp,4
 4000614:	e13fff15 	stw	r4,-4(fp)

	adc_start(adc);
 4000618:	e13fff17 	ldw	r4,-4(fp)
 400061c:	40005640 	call	4000564 <adc_start>
	while(adc->control.fields.eoc != 1);
 4000620:	0001883a 	nop
 4000624:	e0bfff17 	ldw	r2,-4(fp)
 4000628:	10800017 	ldw	r2,0(r2)
 400062c:	1080008c 	andi	r2,r2,2
 4000630:	103ffc26 	beq	r2,zero,4000624 <adc_start_get+0x20>

	adc_stop(adc);
 4000634:	e13fff17 	ldw	r4,-4(fp)
 4000638:	40005980 	call	4000598 <adc_stop>
	while(adc->control.fields.eoc == 1);
 400063c:	0001883a 	nop
 4000640:	e0bfff17 	ldw	r2,-4(fp)
 4000644:	10800017 	ldw	r2,0(r2)
 4000648:	1080008c 	andi	r2,r2,2
 400064c:	103ffc1e 	bne	r2,zero,4000640 <adc_start_get+0x3c>

	return adc_get_last(adc);
 4000650:	e13fff17 	ldw	r4,-4(fp)
 4000654:	40005d00 	call	40005d0 <adc_get_last>
}
 4000658:	e037883a 	mov	sp,fp
 400065c:	dfc00117 	ldw	ra,4(sp)
 4000660:	df000017 	ldw	fp,0(sp)
 4000664:	dec00204 	addi	sp,sp,8
 4000668:	f800283a 	ret

0400066c <pwm_init>:
#include "pwm.h"
#include "alt_types.h"

pwm_t pwm_init(int *pwm_main_base_addr, int *pwm_prescaler_base_addr) {
 400066c:	defffb04 	addi	sp,sp,-20
 4000670:	df000415 	stw	fp,16(sp)
 4000674:	df000404 	addi	fp,sp,16
 4000678:	e13ffd15 	stw	r4,-12(fp)
 400067c:	e17ffc15 	stw	r5,-16(fp)
	pwm_t pwm;

	pwm.pwm_config = pwm_main_base_addr;
 4000680:	e0bffd17 	ldw	r2,-12(fp)
 4000684:	e0bffe15 	stw	r2,-8(fp)
	pwm.pwm_prescaler = pwm_prescaler_base_addr;
 4000688:	e0bffc17 	ldw	r2,-16(fp)
 400068c:	e0bfff15 	stw	r2,-4(fp)

	pwm.pwm_config->gpio_direction = 0x3ff5; //bit 0, 2, [4, 13] as output
 4000690:	e0bffe17 	ldw	r2,-8(fp)
 4000694:	00cffd44 	movi	r3,16373
 4000698:	10c00115 	stw	r3,4(r2)
	pwm.pwm_config->gpio_direction &= ~0xa; //bit 1, 3 as input
 400069c:	e0bffe17 	ldw	r2,-8(fp)
 40006a0:	11000117 	ldw	r4,4(r2)
 40006a4:	e0bffe17 	ldw	r2,-8(fp)
 40006a8:	00fffd44 	movi	r3,-11
 40006ac:	20c6703a 	and	r3,r4,r3
 40006b0:	10c00115 	stw	r3,4(r2)

	//pwm_set_prescaler(pwm, 0x1); //Setting default prescaler at 1 -> 2 MHz clock, 1 KHz PWM

	return pwm;
 40006b4:	e0bffe17 	ldw	r2,-8(fp)
 40006b8:	e0ffff17 	ldw	r3,-4(fp)
 40006bc:	1009883a 	mov	r4,r2
 40006c0:	180b883a 	mov	r5,r3
}
 40006c4:	2005883a 	mov	r2,r4
 40006c8:	2807883a 	mov	r3,r5
 40006cc:	e037883a 	mov	sp,fp
 40006d0:	df000017 	ldw	fp,0(sp)
 40006d4:	dec00104 	addi	sp,sp,4
 40006d8:	f800283a 	ret

040006dc <pwm_set_prescaler>:

void pwm_set_prescaler(pwm_t pwm, int divisor) {
 40006dc:	defffc04 	addi	sp,sp,-16
 40006e0:	df000315 	stw	fp,12(sp)
 40006e4:	df000304 	addi	fp,sp,12
 40006e8:	e13ffe15 	stw	r4,-8(fp)
 40006ec:	e17fff15 	stw	r5,-4(fp)
 40006f0:	e1bffd15 	stw	r6,-12(fp)
	pwm.pwm_prescaler = 1;
 40006f4:	00800044 	movi	r2,1
 40006f8:	e0bfff15 	stw	r2,-4(fp)

	pwm.pwm_config->control.fields.load_prescaler = 1;
 40006fc:	e0bffe17 	ldw	r2,-8(fp)
 4000700:	10c00017 	ldw	r3,0(r2)
 4000704:	18c00054 	ori	r3,r3,1
 4000708:	10c00015 	stw	r3,0(r2)
	while(pwm.pwm_config->control.fields.done_prescaler != 1);
 400070c:	0001883a 	nop
 4000710:	e0bffe17 	ldw	r2,-8(fp)
 4000714:	10800017 	ldw	r2,0(r2)
 4000718:	1080008c 	andi	r2,r2,2
 400071c:	103ffc26 	beq	r2,zero,4000710 <pwm_set_prescaler+0x34>
	pwm.pwm_config->control.fields.load_prescaler = 0;
 4000720:	e0bffe17 	ldw	r2,-8(fp)
 4000724:	11000017 	ldw	r4,0(r2)
 4000728:	00ffff84 	movi	r3,-2
 400072c:	20c6703a 	and	r3,r4,r3
 4000730:	10c00015 	stw	r3,0(r2)
}
 4000734:	0001883a 	nop
 4000738:	e037883a 	mov	sp,fp
 400073c:	df000017 	ldw	fp,0(sp)
 4000740:	dec00104 	addi	sp,sp,4
 4000744:	f800283a 	ret

04000748 <pwm_set_dutycycle>:

void pwm_set_dutycycle(pwm_t pwm, int dutycycle) {
 4000748:	defffc04 	addi	sp,sp,-16
 400074c:	df000315 	stw	fp,12(sp)
 4000750:	df000304 	addi	fp,sp,12
 4000754:	e13ffe15 	stw	r4,-8(fp)
 4000758:	e17fff15 	stw	r5,-4(fp)
 400075c:	e1bffd15 	stw	r6,-12(fp)
	pwm.pwm_config->control.reg = (dutycycle << 4) | (1 << 2);
 4000760:	e0bffd17 	ldw	r2,-12(fp)
 4000764:	1006913a 	slli	r3,r2,4
 4000768:	e0bffe17 	ldw	r2,-8(fp)
 400076c:	18c00114 	ori	r3,r3,4
 4000770:	10c00015 	stw	r3,0(r2)
	while(pwm.pwm_config->control.fields.done_duty != 0);
 4000774:	0001883a 	nop
 4000778:	e0bffe17 	ldw	r2,-8(fp)
 400077c:	10800017 	ldw	r2,0(r2)
 4000780:	1080020c 	andi	r2,r2,8
 4000784:	103ffc1e 	bne	r2,zero,4000778 <pwm_set_dutycycle+0x30>
	while(pwm.pwm_config->control.fields.done_duty != 1);
 4000788:	0001883a 	nop
 400078c:	e0bffe17 	ldw	r2,-8(fp)
 4000790:	10800017 	ldw	r2,0(r2)
 4000794:	1080020c 	andi	r2,r2,8
 4000798:	103ffc26 	beq	r2,zero,400078c <pwm_set_dutycycle+0x44>
	//pwm.pwm_config->control.fields.load_duty = 0;
}
 400079c:	0001883a 	nop
 40007a0:	0001883a 	nop
 40007a4:	e037883a 	mov	sp,fp
 40007a8:	df000017 	ldw	fp,0(sp)
 40007ac:	dec00104 	addi	sp,sp,4
 40007b0:	f800283a 	ret

040007b4 <uart_begin>:
#include <stdio.h>
#include <stdarg.h>
#include "uart.h"
#include "system.h"

uart_t uart_begin(int *base_address, alt_u16 baudrate_divisor) {
 40007b4:	defffc04 	addi	sp,sp,-16
 40007b8:	df000315 	stw	fp,12(sp)
 40007bc:	df000304 	addi	fp,sp,12
 40007c0:	e13ffe15 	stw	r4,-8(fp)
 40007c4:	2805883a 	mov	r2,r5
 40007c8:	e0bffd0d 	sth	r2,-12(fp)
	uart_t uart;

	uart = (uart_t)base_address;
 40007cc:	e0bffe17 	ldw	r2,-8(fp)
 40007d0:	e0bfff15 	stw	r2,-4(fp)
	uart->divisor = baudrate_divisor;
 40007d4:	e0fffd0b 	ldhu	r3,-12(fp)
 40007d8:	e0bfff17 	ldw	r2,-4(fp)
 40007dc:	10c00415 	stw	r3,16(r2)

	return uart;
 40007e0:	e0bfff17 	ldw	r2,-4(fp)
}
 40007e4:	e037883a 	mov	sp,fp
 40007e8:	df000017 	ldw	fp,0(sp)
 40007ec:	dec00104 	addi	sp,sp,4
 40007f0:	f800283a 	ret

040007f4 <uprintf>:

void uprintf(uart_t uart, const char *template, ...) {
 40007f4:	defdf804 	addi	sp,sp,-2080
 40007f8:	dfc20515 	stw	ra,2068(sp)
 40007fc:	df020415 	stw	fp,2064(sp)
 4000800:	df020404 	addi	fp,sp,2064
 4000804:	e13dfd15 	stw	r4,-2060(fp)
 4000808:	e17dfc15 	stw	r5,-2064(fp)
 400080c:	e1800215 	stw	r6,8(fp)
 4000810:	e1c00315 	stw	r7,12(fp)
	char buf[BUFSIZE];
	va_list arg_ptr;
	alt_u8 i;

	va_start(arg_ptr, template);
 4000814:	e0800204 	addi	r2,fp,8
 4000818:	e0bdfe15 	stw	r2,-2056(fp)
	sprintf(buf, template);
 400081c:	e0bdffc4 	addi	r2,fp,-2049
 4000820:	e17dfc17 	ldw	r5,-2064(fp)
 4000824:	1009883a 	mov	r4,r2
 4000828:	40026300 	call	4002630 <sprintf>

	for (i = 0; buf[i] != '\0'; i++) {
 400082c:	e03fffc5 	stb	zero,-1(fp)
 4000830:	00001006 	br	4000874 <uprintf+0x80>
		while (uart->status.fields.trdy != 1);
 4000834:	0001883a 	nop
 4000838:	e0bdfd17 	ldw	r2,-2060(fp)
 400083c:	10800217 	ldw	r2,8(r2)
 4000840:	1080100c 	andi	r2,r2,64
 4000844:	103ffc26 	beq	r2,zero,4000838 <uprintf+0x44>
		uart->txdata = buf[i];
 4000848:	e0bfffc3 	ldbu	r2,-1(fp)
 400084c:	e085883a 	add	r2,fp,r2
 4000850:	10bdffc3 	ldbu	r2,-2049(r2)
 4000854:	10c03fcc 	andi	r3,r2,255
 4000858:	18c0201c 	xori	r3,r3,128
 400085c:	18ffe004 	addi	r3,r3,-128
 4000860:	e0bdfd17 	ldw	r2,-2060(fp)
 4000864:	10c00115 	stw	r3,4(r2)
	for (i = 0; buf[i] != '\0'; i++) {
 4000868:	e0bfffc3 	ldbu	r2,-1(fp)
 400086c:	10800044 	addi	r2,r2,1
 4000870:	e0bfffc5 	stb	r2,-1(fp)
 4000874:	e0bfffc3 	ldbu	r2,-1(fp)
 4000878:	e085883a 	add	r2,fp,r2
 400087c:	10bdffc3 	ldbu	r2,-2049(r2)
 4000880:	10803fcc 	andi	r2,r2,255
 4000884:	1080201c 	xori	r2,r2,128
 4000888:	10bfe004 	addi	r2,r2,-128
 400088c:	103fe91e 	bne	r2,zero,4000834 <uprintf+0x40>
	}

	va_end(arg_ptr);
}
 4000890:	0001883a 	nop
 4000894:	0001883a 	nop
 4000898:	e037883a 	mov	sp,fp
 400089c:	dfc00117 	ldw	ra,4(sp)
 40008a0:	df000017 	ldw	fp,0(sp)
 40008a4:	dec00404 	addi	sp,sp,16
 40008a8:	f800283a 	ret

040008ac <uputc>:

void uputc(uart_t uart, char ch) {
 40008ac:	defffd04 	addi	sp,sp,-12
 40008b0:	df000215 	stw	fp,8(sp)
 40008b4:	df000204 	addi	fp,sp,8
 40008b8:	e13fff15 	stw	r4,-4(fp)
 40008bc:	2805883a 	mov	r2,r5
 40008c0:	e0bffe05 	stb	r2,-8(fp)
	while (uart->status.fields.trdy != 1);
 40008c4:	0001883a 	nop
 40008c8:	e0bfff17 	ldw	r2,-4(fp)
 40008cc:	10800217 	ldw	r2,8(r2)
 40008d0:	1080100c 	andi	r2,r2,64
 40008d4:	103ffc26 	beq	r2,zero,40008c8 <uputc+0x1c>
	uart->txdata = ch;
 40008d8:	e0fffe07 	ldb	r3,-8(fp)
 40008dc:	e0bfff17 	ldw	r2,-4(fp)
 40008e0:	10c00115 	stw	r3,4(r2)
}
 40008e4:	0001883a 	nop
 40008e8:	e037883a 	mov	sp,fp
 40008ec:	df000017 	ldw	fp,0(sp)
 40008f0:	dec00104 	addi	sp,sp,4
 40008f4:	f800283a 	ret

040008f8 <ugets>:

void ugets(char *s, int count, uart_t uart) {
 40008f8:	defff904 	addi	sp,sp,-28
 40008fc:	df000615 	stw	fp,24(sp)
 4000900:	df000604 	addi	fp,sp,24
 4000904:	e13ffc15 	stw	r4,-16(fp)
 4000908:	e17ffb15 	stw	r5,-20(fp)
 400090c:	e1bffa15 	stw	r6,-24(fp)
	char ch;
	int i, old_irrdy;

	//Temporary disable of irdy interrupt
	old_irrdy = uart->control.fields.irrdy;
 4000910:	e0bffa17 	ldw	r2,-24(fp)
 4000914:	10800317 	ldw	r2,12(r2)
 4000918:	1004d1fa 	srli	r2,r2,7
 400091c:	1080004c 	andi	r2,r2,1
 4000920:	10803fcc 	andi	r2,r2,255
 4000924:	e0bffd15 	stw	r2,-12(fp)
	uart->control.fields.irrdy = 0;
 4000928:	e0bffa17 	ldw	r2,-24(fp)
 400092c:	11000317 	ldw	r4,12(r2)
 4000930:	00ffdfc4 	movi	r3,-129
 4000934:	20c6703a 	and	r3,r4,r3
 4000938:	10c00315 	stw	r3,12(r2)

	for (i = 1; i < count && !(ch == '\n' || ch == '\r'); i++) {
 400093c:	00800044 	movi	r2,1
 4000940:	e0bffe15 	stw	r2,-8(fp)
 4000944:	00001106 	br	400098c <ugets+0x94>
		while (uart->status.fields.rrdy != 1);
 4000948:	0001883a 	nop
 400094c:	e0bffa17 	ldw	r2,-24(fp)
 4000950:	10800217 	ldw	r2,8(r2)
 4000954:	1080200c 	andi	r2,r2,128
 4000958:	103ffc26 	beq	r2,zero,400094c <ugets+0x54>

		ch = (char)uart->rxdata;
 400095c:	e0bffa17 	ldw	r2,-24(fp)
 4000960:	10800017 	ldw	r2,0(r2)
 4000964:	e0bfffc5 	stb	r2,-1(fp)
		s[i - 1] = ch;
 4000968:	e0bffe17 	ldw	r2,-8(fp)
 400096c:	10bfffc4 	addi	r2,r2,-1
 4000970:	e0fffc17 	ldw	r3,-16(fp)
 4000974:	1885883a 	add	r2,r3,r2
 4000978:	e0ffffc3 	ldbu	r3,-1(fp)
 400097c:	10c00005 	stb	r3,0(r2)
	for (i = 1; i < count && !(ch == '\n' || ch == '\r'); i++) {
 4000980:	e0bffe17 	ldw	r2,-8(fp)
 4000984:	10800044 	addi	r2,r2,1
 4000988:	e0bffe15 	stw	r2,-8(fp)
 400098c:	e0fffe17 	ldw	r3,-8(fp)
 4000990:	e0bffb17 	ldw	r2,-20(fp)
 4000994:	1880060e 	bge	r3,r2,40009b0 <ugets+0xb8>
 4000998:	e0bfffc7 	ldb	r2,-1(fp)
 400099c:	108002a0 	cmpeqi	r2,r2,10
 40009a0:	1000031e 	bne	r2,zero,40009b0 <ugets+0xb8>
 40009a4:	e0bfffc7 	ldb	r2,-1(fp)
 40009a8:	10800358 	cmpnei	r2,r2,13
 40009ac:	103fe61e 	bne	r2,zero,4000948 <ugets+0x50>
	}

	uart->control.fields.irrdy = old_irrdy;
 40009b0:	e0bffd17 	ldw	r2,-12(fp)
 40009b4:	1007883a 	mov	r3,r2
 40009b8:	1880004c 	andi	r2,r3,1
 40009bc:	1007883a 	mov	r3,r2
 40009c0:	e0bffa17 	ldw	r2,-24(fp)
 40009c4:	18c03fcc 	andi	r3,r3,255
 40009c8:	18c0004c 	andi	r3,r3,1
 40009cc:	180691fa 	slli	r3,r3,7
 40009d0:	11400317 	ldw	r5,12(r2)
 40009d4:	013fdfc4 	movi	r4,-129
 40009d8:	2908703a 	and	r4,r5,r4
 40009dc:	20c6b03a 	or	r3,r4,r3
 40009e0:	10c00315 	stw	r3,12(r2)
	s[i - 1] = '\0';
 40009e4:	e0bffe17 	ldw	r2,-8(fp)
 40009e8:	10bfffc4 	addi	r2,r2,-1
 40009ec:	e0fffc17 	ldw	r3,-16(fp)
 40009f0:	1885883a 	add	r2,r3,r2
 40009f4:	10000005 	stb	zero,0(r2)
}
 40009f8:	0001883a 	nop
 40009fc:	e037883a 	mov	sp,fp
 4000a00:	df000017 	ldw	fp,0(sp)
 4000a04:	dec00104 	addi	sp,sp,4
 4000a08:	f800283a 	ret

04000a0c <ugetc>:

int ugetc(uart_t uart) {
 4000a0c:	defffc04 	addi	sp,sp,-16
 4000a10:	df000315 	stw	fp,12(sp)
 4000a14:	df000304 	addi	fp,sp,12
 4000a18:	e13ffd15 	stw	r4,-12(fp)
	int old_irrdy, ch;

	//Temporary disable of irdy interrupt
	old_irrdy = uart->control.fields.irrdy;
 4000a1c:	e0bffd17 	ldw	r2,-12(fp)
 4000a20:	10800317 	ldw	r2,12(r2)
 4000a24:	1004d1fa 	srli	r2,r2,7
 4000a28:	1080004c 	andi	r2,r2,1
 4000a2c:	10803fcc 	andi	r2,r2,255
 4000a30:	e0bfff15 	stw	r2,-4(fp)
	uart->control.fields.irrdy = 0;
 4000a34:	e0bffd17 	ldw	r2,-12(fp)
 4000a38:	11000317 	ldw	r4,12(r2)
 4000a3c:	00ffdfc4 	movi	r3,-129
 4000a40:	20c6703a 	and	r3,r4,r3
 4000a44:	10c00315 	stw	r3,12(r2)

	while (uart->status.fields.rrdy != 1);
 4000a48:	0001883a 	nop
 4000a4c:	e0bffd17 	ldw	r2,-12(fp)
 4000a50:	10800217 	ldw	r2,8(r2)
 4000a54:	1080200c 	andi	r2,r2,128
 4000a58:	103ffc26 	beq	r2,zero,4000a4c <ugetc+0x40>
	ch = uart->rxdata;
 4000a5c:	e0bffd17 	ldw	r2,-12(fp)
 4000a60:	10800017 	ldw	r2,0(r2)
 4000a64:	e0bffe15 	stw	r2,-8(fp)

	uart->control.fields.irrdy = old_irrdy;
 4000a68:	e0bfff17 	ldw	r2,-4(fp)
 4000a6c:	1007883a 	mov	r3,r2
 4000a70:	1880004c 	andi	r2,r3,1
 4000a74:	1007883a 	mov	r3,r2
 4000a78:	e0bffd17 	ldw	r2,-12(fp)
 4000a7c:	18c03fcc 	andi	r3,r3,255
 4000a80:	18c0004c 	andi	r3,r3,1
 4000a84:	180691fa 	slli	r3,r3,7
 4000a88:	11400317 	ldw	r5,12(r2)
 4000a8c:	013fdfc4 	movi	r4,-129
 4000a90:	2908703a 	and	r4,r5,r4
 4000a94:	20c6b03a 	or	r3,r4,r3
 4000a98:	10c00315 	stw	r3,12(r2)
	return ch;
 4000a9c:	e0bffe17 	ldw	r2,-8(fp)
}
 4000aa0:	e037883a 	mov	sp,fp
 4000aa4:	df000017 	ldw	fp,0(sp)
 4000aa8:	dec00104 	addi	sp,sp,4
 4000aac:	f800283a 	ret

04000ab0 <uart_register_irq>:

void uart_register_irq(uart_t uart, alt_isr_func isr, void *isr_context) {
 4000ab0:	defffa04 	addi	sp,sp,-24
 4000ab4:	dfc00515 	stw	ra,20(sp)
 4000ab8:	df000415 	stw	fp,16(sp)
 4000abc:	df000404 	addi	fp,sp,16
 4000ac0:	e13fff15 	stw	r4,-4(fp)
 4000ac4:	e17ffe15 	stw	r5,-8(fp)
 4000ac8:	e1bffd15 	stw	r6,-12(fp)
	alt_ic_isr_register(UART_0_IRQ_INTERRUPT_CONTROLLER_ID, UART_0_IRQ, isr, isr_context, NULL);
 4000acc:	d8000015 	stw	zero,0(sp)
 4000ad0:	e1fffd17 	ldw	r7,-12(fp)
 4000ad4:	e1bffe17 	ldw	r6,-8(fp)
 4000ad8:	01400044 	movi	r5,1
 4000adc:	0009883a 	mov	r4,zero
 4000ae0:	401093c0 	call	401093c <alt_ic_isr_register>
}
 4000ae4:	0001883a 	nop
 4000ae8:	e037883a 	mov	sp,fp
 4000aec:	dfc00117 	ldw	ra,4(sp)
 4000af0:	df000017 	ldw	fp,0(sp)
 4000af4:	dec00204 	addi	sp,sp,8
 4000af8:	f800283a 	ret

04000afc <main>:
static ths_t th0, th1, th2;
static unsigned int history_address = 0x0;
static unsigned int retrieve_history_address = 0x0;
static unsigned int lost_acks = 0;

int main() {
 4000afc:	defff204 	addi	sp,sp,-56
 4000b00:	dfc00d15 	stw	ra,52(sp)
 4000b04:	df000c15 	stw	fp,48(sp)
 4000b08:	dc000b15 	stw	r16,44(sp)
 4000b0c:	df000c04 	addi	fp,sp,48
	int *gpio_base_ptr = GPIO_0_BASE;
 4000b10:	00840034 	movhi	r2,4096
 4000b14:	10801004 	addi	r2,r2,64
 4000b18:	e0bffc15 	stw	r2,-16(fp)
	alt_u8 avg_cnt = 0, data[16];
 4000b1c:	e03ffec5 	stb	zero,-5(fp)
	alt_timestamp_type wait_for;
	int start, avg_sum = 0;
 4000b20:	e03ffd15 	stw	zero,-12(fp)
	float avg_temp;
	adc_t adc0;

	th0.value = 32;		//10 C
 4000b24:	00c00804 	movi	r3,32
 4000b28:	00810074 	movhi	r2,1025
 4000b2c:	10cfb005 	stb	r3,16064(r2)
	th0.duty0 = 0;
 4000b30:	00810074 	movhi	r2,1025
 4000b34:	100fb115 	stw	zero,16068(r2)
	th0.duty1 = 0;
 4000b38:	00810074 	movhi	r2,1025
 4000b3c:	100fb215 	stw	zero,16072(r2)

	th1.value = 64;		//20 C
 4000b40:	00c01004 	movi	r3,64
 4000b44:	00810074 	movhi	r2,1025
 4000b48:	10cfb305 	stb	r3,16076(r2)
	th1.duty0 = 512;
 4000b4c:	00c08004 	movi	r3,512
 4000b50:	00810074 	movhi	r2,1025
 4000b54:	10cfb415 	stw	r3,16080(r2)
	th1.duty1 = 0;
 4000b58:	00810074 	movhi	r2,1025
 4000b5c:	100fb515 	stw	zero,16084(r2)

	th2.value = 96;		//30 C
 4000b60:	00c01804 	movi	r3,96
 4000b64:	00810074 	movhi	r2,1025
 4000b68:	10cfb605 	stb	r3,16088(r2)
	th2.duty0 = 1023;
 4000b6c:	00c0ffc4 	movi	r3,1023
 4000b70:	00810074 	movhi	r2,1025
 4000b74:	10cfb715 	stw	r3,16092(r2)
	th2.duty1 = 512;
 4000b78:	00c08004 	movi	r3,512
 4000b7c:	00810074 	movhi	r2,1025
 4000b80:	10cfb815 	stw	r3,16096(r2)

	pwm0 = pwm_init(GPIO_2_PWM0_MAIN_BASE, GPIO_2_PWM0_PRESCALER_BASE);
 4000b84:	01440034 	movhi	r5,4096
 4000b88:	29402804 	addi	r5,r5,160
 4000b8c:	01040034 	movhi	r4,4096
 4000b90:	21002004 	addi	r4,r4,128
 4000b94:	400066c0 	call	400066c <pwm_init>
 4000b98:	1009883a 	mov	r4,r2
 4000b9c:	180b883a 	mov	r5,r3
 4000ba0:	d122ee15 	stw	r4,-29768(gp)
 4000ba4:	d162ef15 	stw	r5,-29764(gp)
	pwm_set_dutycycle(pwm0, th1.duty0);
 4000ba8:	00810074 	movhi	r2,1025
 4000bac:	108fb417 	ldw	r2,16080(r2)
 4000bb0:	100d883a 	mov	r6,r2
 4000bb4:	d122ee17 	ldw	r4,-29768(gp)
 4000bb8:	d162ef17 	ldw	r5,-29764(gp)
 4000bbc:	40007480 	call	4000748 <pwm_set_dutycycle>

	pwm1 = pwm_init(GPIO_2_PWM1_MAIN_BASE, GPIO_2_PWM1_PRESCALER_BASE);
 4000bc0:	01440034 	movhi	r5,4096
 4000bc4:	29403804 	addi	r5,r5,224
 4000bc8:	01040034 	movhi	r4,4096
 4000bcc:	21003004 	addi	r4,r4,192
 4000bd0:	400066c0 	call	400066c <pwm_init>
 4000bd4:	1009883a 	mov	r4,r2
 4000bd8:	180b883a 	mov	r5,r3
 4000bdc:	d122f015 	stw	r4,-29760(gp)
 4000be0:	d162f115 	stw	r5,-29756(gp)
	pwm_set_dutycycle(pwm1, th1.duty1);
 4000be4:	00810074 	movhi	r2,1025
 4000be8:	108fb517 	ldw	r2,16084(r2)
 4000bec:	100d883a 	mov	r6,r2
 4000bf0:	d122f017 	ldw	r4,-29760(gp)
 4000bf4:	d162f117 	ldw	r5,-29756(gp)
 4000bf8:	40007480 	call	4000748 <pwm_set_dutycycle>

	uart0 = uart_begin(UART_0_BASE, BR_CALC(UART_0_FREQ, 19200));
 4000bfc:	01428ac4 	movi	r5,2603
 4000c00:	01040034 	movhi	r4,4096
 4000c04:	21000804 	addi	r4,r4,32
 4000c08:	40007b40 	call	40007b4 <uart_begin>
 4000c0c:	d0a2ed15 	stw	r2,-29772(gp)
	uprintf(uart0, "Hello World!\r\n");
 4000c10:	d0a2ed17 	ldw	r2,-29772(gp)
 4000c14:	01410074 	movhi	r5,1025
 4000c18:	29481d04 	addi	r5,r5,8308
 4000c1c:	1009883a 	mov	r4,r2
 4000c20:	40007f40 	call	40007f4 <uprintf>
	uprintf(uart0, "If you can read this, means that your baud rate is set correctly! :> %d\r\n", uart0->divisor);
 4000c24:	d0e2ed17 	ldw	r3,-29772(gp)
 4000c28:	d0a2ed17 	ldw	r2,-29772(gp)
 4000c2c:	10800417 	ldw	r2,16(r2)
 4000c30:	100d883a 	mov	r6,r2
 4000c34:	01410074 	movhi	r5,1025
 4000c38:	29482104 	addi	r5,r5,8324
 4000c3c:	1809883a 	mov	r4,r3
 4000c40:	40007f40 	call	40007f4 <uprintf>

	uart_register_irq(uart0, _ISR_uart0, NULL);
 4000c44:	d0a2ed17 	ldw	r2,-29772(gp)
 4000c48:	000d883a 	mov	r6,zero
 4000c4c:	01410034 	movhi	r5,1024
 4000c50:	29440604 	addi	r5,r5,4120
 4000c54:	1009883a 	mov	r4,r2
 4000c58:	4000ab00 	call	4000ab0 <uart_register_irq>
	uart0->control.fields.irrdy = 1;
 4000c5c:	d0a2ed17 	ldw	r2,-29772(gp)
 4000c60:	10c00317 	ldw	r3,12(r2)
 4000c64:	18c02014 	ori	r3,r3,128
 4000c68:	10c00315 	stw	r3,12(r2)

	adc0 = adc_init(GPIO_1_ADC_BASE);
 4000c6c:	01040034 	movhi	r4,4096
 4000c70:	21001804 	addi	r4,r4,96
 4000c74:	40004f80 	call	40004f8 <adc_init>
 4000c78:	e0bffb15 	stw	r2,-20(fp)
	history0 = historymem_init(GPIO_3_MEM_WRITEPORT_BASE, GPIO_3_MEM_READPORT_BASE);
 4000c7c:	01440034 	movhi	r5,4096
 4000c80:	29404804 	addi	r5,r5,288
 4000c84:	01040034 	movhi	r4,4096
 4000c88:	21004004 	addi	r4,r4,256
 4000c8c:	40002600 	call	4000260 <historymem_init>
 4000c90:	1009883a 	mov	r4,r2
 4000c94:	180b883a 	mov	r5,r3
 4000c98:	d122f215 	stw	r4,-29752(gp)
 4000c9c:	d162f315 	stw	r5,-29748(gp)

	*(gpio_base_ptr + 1) |= 0xf;
 4000ca0:	e0bffc17 	ldw	r2,-16(fp)
 4000ca4:	10800104 	addi	r2,r2,4
 4000ca8:	10c00017 	ldw	r3,0(r2)
 4000cac:	e0bffc17 	ldw	r2,-16(fp)
 4000cb0:	10800104 	addi	r2,r2,4
 4000cb4:	18c003d4 	ori	r3,r3,15
 4000cb8:	10c00015 	stw	r3,0(r2)

	do {
		//uprintf(uart0, "Temp: %.1f C\r\n", (adc_start_get(adc0) * 400.0) / 128.0 / 10);
		*(gpio_base_ptr + 0) |= (1 << 0);	// Activating on-board led 3
 4000cbc:	e0bffc17 	ldw	r2,-16(fp)
 4000cc0:	10800017 	ldw	r2,0(r2)
 4000cc4:	10c00054 	ori	r3,r2,1
 4000cc8:	e0bffc17 	ldw	r2,-16(fp)
 4000ccc:	10c00015 	stw	r3,0(r2)
		data[0] = (adc_start_get(adc0) & 0xff);
 4000cd0:	e13ffb17 	ldw	r4,-20(fp)
 4000cd4:	40006040 	call	4000604 <adc_start_get>
 4000cd8:	e0bff405 	stb	r2,-48(fp)

		if (lost_acks <= 50) {
 4000cdc:	d0a2f617 	ldw	r2,-29736(gp)
 4000ce0:	10800ce8 	cmpgeui	r2,r2,51
 4000ce4:	1000091e 	bne	r2,zero,4000d0c <main+0x210>
			gabriuart_send("CURR", 1, data);
 4000ce8:	e0bff404 	addi	r2,fp,-48
 4000cec:	100d883a 	mov	r6,r2
 4000cf0:	01400044 	movi	r5,1
 4000cf4:	01010074 	movhi	r4,1025
 4000cf8:	21083404 	addi	r4,r4,8400
 4000cfc:	40019e80 	call	40019e8 <gabriuart_send>
			lost_acks++;
 4000d00:	d0a2f617 	ldw	r2,-29736(gp)
 4000d04:	10800044 	addi	r2,r2,1
 4000d08:	d0a2f615 	stw	r2,-29736(gp)
		}

		historymem_write(history0, history0_addr_get_update(), HISTORY_WR_TEMP(data[0]));
 4000d0c:	4001c080 	call	4001c08 <history0_addr_get_update>
 4000d10:	10ffffcc 	andi	r3,r2,65535
 4000d14:	e0bff403 	ldbu	r2,-48(fp)
 4000d18:	10803fcc 	andi	r2,r2,255
 4000d1c:	10801fcc 	andi	r2,r2,127
 4000d20:	100f883a 	mov	r7,r2
 4000d24:	180d883a 	mov	r6,r3
 4000d28:	d122f217 	ldw	r4,-29752(gp)
 4000d2c:	d162f317 	ldw	r5,-29748(gp)
 4000d30:	40002d80 	call	40002d8 <historymem_write>

		avg_sum += data[0];
 4000d34:	e0bff403 	ldbu	r2,-48(fp)
 4000d38:	10803fcc 	andi	r2,r2,255
 4000d3c:	e0fffd17 	ldw	r3,-12(fp)
 4000d40:	1885883a 	add	r2,r3,r2
 4000d44:	e0bffd15 	stw	r2,-12(fp)
		avg_cnt++;
 4000d48:	e0bffec3 	ldbu	r2,-5(fp)
 4000d4c:	10800044 	addi	r2,r2,1
 4000d50:	e0bffec5 	stb	r2,-5(fp)

		if (avg_cnt >= avg_each_count) {
 4000d54:	e0fffec3 	ldbu	r3,-5(fp)
 4000d58:	d0a00117 	ldw	r2,-32764(gp)
 4000d5c:	18809436 	bltu	r3,r2,4000fb0 <main+0x4b4>

			if (lost_acks <= 50) {
 4000d60:	d0a2f617 	ldw	r2,-29736(gp)
 4000d64:	10800ce8 	cmpgeui	r2,r2,51
 4000d68:	1000291e 	bne	r2,zero,4000e10 <main+0x314>
				start = 0;
 4000d6c:	e03ffa15 	stw	zero,-24(fp)
				data[start++] = ((avg_sum >> 0x00) & 0xff);
 4000d70:	e0bffa17 	ldw	r2,-24(fp)
 4000d74:	10c00044 	addi	r3,r2,1
 4000d78:	e0fffa15 	stw	r3,-24(fp)
 4000d7c:	e0fffd17 	ldw	r3,-12(fp)
 4000d80:	e13fff04 	addi	r4,fp,-4
 4000d84:	2085883a 	add	r2,r4,r2
 4000d88:	10fff505 	stb	r3,-44(r2)
				data[start++] = ((avg_sum >> 0x08) & 0xff);
 4000d8c:	e0bffd17 	ldw	r2,-12(fp)
 4000d90:	1009d23a 	srai	r4,r2,8
 4000d94:	e0bffa17 	ldw	r2,-24(fp)
 4000d98:	10c00044 	addi	r3,r2,1
 4000d9c:	e0fffa15 	stw	r3,-24(fp)
 4000da0:	2007883a 	mov	r3,r4
 4000da4:	e13fff04 	addi	r4,fp,-4
 4000da8:	2085883a 	add	r2,r4,r2
 4000dac:	10fff505 	stb	r3,-44(r2)
				data[start++] = ((avg_sum >> 0x16) & 0xff);
 4000db0:	e0bffd17 	ldw	r2,-12(fp)
 4000db4:	1009d5ba 	srai	r4,r2,22
 4000db8:	e0bffa17 	ldw	r2,-24(fp)
 4000dbc:	10c00044 	addi	r3,r2,1
 4000dc0:	e0fffa15 	stw	r3,-24(fp)
 4000dc4:	2007883a 	mov	r3,r4
 4000dc8:	e13fff04 	addi	r4,fp,-4
 4000dcc:	2085883a 	add	r2,r4,r2
 4000dd0:	10fff505 	stb	r3,-44(r2)
				data[start++] = ((avg_sum >> 0x18) & 0xff);
 4000dd4:	e0bffd17 	ldw	r2,-12(fp)
 4000dd8:	1008d63a 	srli	r4,r2,24
 4000ddc:	e0bffa17 	ldw	r2,-24(fp)
 4000de0:	10c00044 	addi	r3,r2,1
 4000de4:	e0fffa15 	stw	r3,-24(fp)
 4000de8:	2007883a 	mov	r3,r4
 4000dec:	e13fff04 	addi	r4,fp,-4
 4000df0:	2085883a 	add	r2,r4,r2
 4000df4:	10fff505 	stb	r3,-44(r2)
				gabriuart_send("CAVG", 4, data);
 4000df8:	e0bff404 	addi	r2,fp,-48
 4000dfc:	100d883a 	mov	r6,r2
 4000e00:	01400104 	movi	r5,4
 4000e04:	01010074 	movhi	r4,1025
 4000e08:	21083604 	addi	r4,r4,8408
 4000e0c:	40019e80 	call	40019e8 <gabriuart_send>
			}

			avg_temp = avg_sum / (float)avg_cnt;
 4000e10:	e13ffd17 	ldw	r4,-12(fp)
 4000e14:	40023680 	call	4002368 <__floatsisf>
 4000e18:	1021883a 	mov	r16,r2
 4000e1c:	e0bffec3 	ldbu	r2,-5(fp)
 4000e20:	1009883a 	mov	r4,r2
 4000e24:	400248c0 	call	400248c <__floatunsisf>
 4000e28:	1007883a 	mov	r3,r2
 4000e2c:	180b883a 	mov	r5,r3
 4000e30:	8009883a 	mov	r4,r16
 4000e34:	4001e4c0 	call	4001e4c <__divsf3>
 4000e38:	1007883a 	mov	r3,r2
 4000e3c:	e0fff915 	stw	r3,-28(fp)
			if (avg_temp > th2.value) {
 4000e40:	00810074 	movhi	r2,1025
 4000e44:	108fb603 	ldbu	r2,16088(r2)
 4000e48:	10803fcc 	andi	r2,r2,255
 4000e4c:	1009883a 	mov	r4,r2
 4000e50:	40023680 	call	4002368 <__floatsisf>
 4000e54:	1007883a 	mov	r3,r2
 4000e58:	180b883a 	mov	r5,r3
 4000e5c:	e13ff917 	ldw	r4,-28(fp)
 4000e60:	40022400 	call	4002240 <__gesf2>
 4000e64:	0080100e 	bge	zero,r2,4000ea8 <main+0x3ac>
				pwm_set_dutycycle(pwm0, th2.duty0);
 4000e68:	00810074 	movhi	r2,1025
 4000e6c:	108fb717 	ldw	r2,16092(r2)
 4000e70:	100d883a 	mov	r6,r2
 4000e74:	d122ee17 	ldw	r4,-29768(gp)
 4000e78:	d162ef17 	ldw	r5,-29764(gp)
 4000e7c:	40007480 	call	4000748 <pwm_set_dutycycle>
				pwm_set_dutycycle(pwm1, th2.duty1);
 4000e80:	00810074 	movhi	r2,1025
 4000e84:	108fb817 	ldw	r2,16096(r2)
 4000e88:	100d883a 	mov	r6,r2
 4000e8c:	d122f017 	ldw	r4,-29760(gp)
 4000e90:	d162f117 	ldw	r5,-29756(gp)
 4000e94:	40007480 	call	4000748 <pwm_set_dutycycle>
				*(gpio_base_ptr + 0) = (1 << 1);	// Activating on-board led 0
 4000e98:	e0bffc17 	ldw	r2,-16(fp)
 4000e9c:	00c00084 	movi	r3,2
 4000ea0:	10c00015 	stw	r3,0(r2)
 4000ea4:	00003306 	br	4000f74 <main+0x478>
			} else if (avg_temp > th1.value) {
 4000ea8:	00810074 	movhi	r2,1025
 4000eac:	108fb303 	ldbu	r2,16076(r2)
 4000eb0:	10803fcc 	andi	r2,r2,255
 4000eb4:	1009883a 	mov	r4,r2
 4000eb8:	40023680 	call	4002368 <__floatsisf>
 4000ebc:	1007883a 	mov	r3,r2
 4000ec0:	180b883a 	mov	r5,r3
 4000ec4:	e13ff917 	ldw	r4,-28(fp)
 4000ec8:	40022400 	call	4002240 <__gesf2>
 4000ecc:	0080100e 	bge	zero,r2,4000f10 <main+0x414>
				pwm_set_dutycycle(pwm0, th1.duty0);
 4000ed0:	00810074 	movhi	r2,1025
 4000ed4:	108fb417 	ldw	r2,16080(r2)
 4000ed8:	100d883a 	mov	r6,r2
 4000edc:	d122ee17 	ldw	r4,-29768(gp)
 4000ee0:	d162ef17 	ldw	r5,-29764(gp)
 4000ee4:	40007480 	call	4000748 <pwm_set_dutycycle>
				pwm_set_dutycycle(pwm1, th1.duty1);
 4000ee8:	00810074 	movhi	r2,1025
 4000eec:	108fb517 	ldw	r2,16084(r2)
 4000ef0:	100d883a 	mov	r6,r2
 4000ef4:	d122f017 	ldw	r4,-29760(gp)
 4000ef8:	d162f117 	ldw	r5,-29756(gp)
 4000efc:	40007480 	call	4000748 <pwm_set_dutycycle>
				*(gpio_base_ptr + 0) = (1 << 2);	// Activating on-board led 1
 4000f00:	e0bffc17 	ldw	r2,-16(fp)
 4000f04:	00c00104 	movi	r3,4
 4000f08:	10c00015 	stw	r3,0(r2)
 4000f0c:	00001906 	br	4000f74 <main+0x478>
			} else if (avg_temp > th0.value) {
 4000f10:	00810074 	movhi	r2,1025
 4000f14:	108fb003 	ldbu	r2,16064(r2)
 4000f18:	10803fcc 	andi	r2,r2,255
 4000f1c:	1009883a 	mov	r4,r2
 4000f20:	40023680 	call	4002368 <__floatsisf>
 4000f24:	1007883a 	mov	r3,r2
 4000f28:	180b883a 	mov	r5,r3
 4000f2c:	e13ff917 	ldw	r4,-28(fp)
 4000f30:	40022400 	call	4002240 <__gesf2>
 4000f34:	00800f0e 	bge	zero,r2,4000f74 <main+0x478>
				pwm_set_dutycycle(pwm0, th0.duty0);
 4000f38:	00810074 	movhi	r2,1025
 4000f3c:	108fb117 	ldw	r2,16068(r2)
 4000f40:	100d883a 	mov	r6,r2
 4000f44:	d122ee17 	ldw	r4,-29768(gp)
 4000f48:	d162ef17 	ldw	r5,-29764(gp)
 4000f4c:	40007480 	call	4000748 <pwm_set_dutycycle>
				pwm_set_dutycycle(pwm1, th0.duty1);
 4000f50:	00810074 	movhi	r2,1025
 4000f54:	108fb217 	ldw	r2,16072(r2)
 4000f58:	100d883a 	mov	r6,r2
 4000f5c:	d122f017 	ldw	r4,-29760(gp)
 4000f60:	d162f117 	ldw	r5,-29756(gp)
 4000f64:	40007480 	call	4000748 <pwm_set_dutycycle>
				*(gpio_base_ptr + 0) = (1 << 3);	// Activating on-board led 2
 4000f68:	e0bffc17 	ldw	r2,-16(fp)
 4000f6c:	00c00204 	movi	r3,8
 4000f70:	10c00015 	stw	r3,0(r2)
			}

			historymem_write(history0, history0_addr_get_update(), HISTORY_WR_AVG((int)(avg_temp)));
 4000f74:	4001c080 	call	4001c08 <history0_addr_get_update>
 4000f78:	143fffcc 	andi	r16,r2,65535
 4000f7c:	e13ff917 	ldw	r4,-28(fp)
 4000f80:	40022f80 	call	40022f8 <__fixsfsi>
 4000f84:	1007883a 	mov	r3,r2
 4000f88:	00bfe004 	movi	r2,-128
 4000f8c:	1884b03a 	or	r2,r3,r2
 4000f90:	10803fcc 	andi	r2,r2,255
 4000f94:	100f883a 	mov	r7,r2
 4000f98:	800d883a 	mov	r6,r16
 4000f9c:	d122f217 	ldw	r4,-29752(gp)
 4000fa0:	d162f317 	ldw	r5,-29748(gp)
 4000fa4:	40002d80 	call	40002d8 <historymem_write>

			avg_cnt = 0;
 4000fa8:	e03ffec5 	stb	zero,-5(fp)
			avg_sum = 0;
 4000fac:	e03ffd15 	stw	zero,-12(fp)
		}

		wait_for = TIMER_INTERVAL(sampling_period_ms, alt_timestamp_freq());
 4000fb0:	40116080 	call	4011608 <alt_timestamp_freq>
 4000fb4:	0140fa04 	movi	r5,1000
 4000fb8:	1009883a 	mov	r4,r2
 4000fbc:	4001d640 	call	4001d64 <__udivsi3>
 4000fc0:	1007883a 	mov	r3,r2
 4000fc4:	d0a00017 	ldw	r2,-32768(gp)
 4000fc8:	100b883a 	mov	r5,r2
 4000fcc:	1809883a 	mov	r4,r3
 4000fd0:	4001e240 	call	4001e24 <__mulsi3>
 4000fd4:	e0bff815 	stw	r2,-32(fp)
		start = alt_timestamp_start();
 4000fd8:	40115100 	call	4011510 <alt_timestamp_start>
 4000fdc:	e0bffa15 	stw	r2,-24(fp)
		while(alt_timestamp() - start < wait_for);
 4000fe0:	0001883a 	nop
 4000fe4:	40115880 	call	4011588 <alt_timestamp>
 4000fe8:	1007883a 	mov	r3,r2
 4000fec:	e0bffa17 	ldw	r2,-24(fp)
 4000ff0:	1887c83a 	sub	r3,r3,r2
 4000ff4:	e0bff817 	ldw	r2,-32(fp)
 4000ff8:	18bffa36 	bltu	r3,r2,4000fe4 <main+0x4e8>

		*(gpio_base_ptr + 0) &= ~(1 << 0);	// Deactivating on-board led 3
 4000ffc:	e0bffc17 	ldw	r2,-16(fp)
 4001000:	10c00017 	ldw	r3,0(r2)
 4001004:	00bfff84 	movi	r2,-2
 4001008:	1886703a 	and	r3,r3,r2
 400100c:	e0bffc17 	ldw	r2,-16(fp)
 4001010:	10c00015 	stw	r3,0(r2)
		*(gpio_base_ptr + 0) |= (1 << 0);	// Activating on-board led 3
 4001014:	003f2906 	br	4000cbc <main+0x1c0>

04001018 <_ISR_uart0>:
 *	- LENGTH: max 1 byte
 *	- DATA: data contains "length" bytes
 *	- CHECKSUM: computed on CMD + Data
 *
 */
void _ISR_uart0(void *context, alt_u32 id) {
 4001018:	defff604 	addi	sp,sp,-40
 400101c:	dfc00915 	stw	ra,36(sp)
 4001020:	df000815 	stw	fp,32(sp)
 4001024:	df000804 	addi	fp,sp,32
 4001028:	e13ff915 	stw	r4,-28(fp)
 400102c:	e17ff815 	stw	r5,-32(fp)
	static alt_u8 buffer_post = 0;
	static bool is_stx = false;
	static int i;
	int checksum_val, addr, j;
	char ch, *ptr;
	bool is_check_ok = false;
 4001030:	e03ffb15 	stw	zero,-20(fp)

	ch = ugetc(uart0);
 4001034:	d0a2ed17 	ldw	r2,-29772(gp)
 4001038:	1009883a 	mov	r4,r2
 400103c:	4000a0c0 	call	4000a0c <ugetc>
 4001040:	e0bffac5 	stb	r2,-21(fp)
	buffer[buffer_post++] = ch;
 4001044:	d0a2f703 	ldbu	r2,-29732(gp)
 4001048:	10c00044 	addi	r3,r2,1
 400104c:	d0e2f705 	stb	r3,-29732(gp)
 4001050:	11003fcc 	andi	r4,r2,255
 4001054:	e0fffac3 	ldbu	r3,-21(fp)
 4001058:	00810074 	movhi	r2,1025
 400105c:	2085883a 	add	r2,r4,r2
 4001060:	10cfb905 	stb	r3,16100(r2)
	buffer_post %= 1024;
 4001064:	d0a2f703 	ldbu	r2,-29732(gp)
 4001068:	d0a2f705 	stb	r2,-29732(gp)

	if (buffer_post == 6) {
 400106c:	d0a2f703 	ldbu	r2,-29732(gp)
 4001070:	10803fcc 	andi	r2,r2,255
 4001074:	10800198 	cmpnei	r2,r2,6
 4001078:	10000b1e 	bne	r2,zero,40010a8 <_ISR_uart0+0x90>
		i = buffer[buffer_post - 1]; // this is the expected length
 400107c:	d0a2f703 	ldbu	r2,-29732(gp)
 4001080:	10803fcc 	andi	r2,r2,255
 4001084:	10ffffc4 	addi	r3,r2,-1
 4001088:	00810074 	movhi	r2,1025
 400108c:	1885883a 	add	r2,r3,r2
 4001090:	108fb903 	ldbu	r2,16100(r2)
 4001094:	10803fcc 	andi	r2,r2,255
 4001098:	1080201c 	xori	r2,r2,128
 400109c:	10bfe004 	addi	r2,r2,-128
 40010a0:	d0a2f815 	stw	r2,-29728(gp)
 40010a4:	00000706 	br	40010c4 <_ISR_uart0+0xac>
	} else if (buffer_post > 6) {
 40010a8:	d0a2f703 	ldbu	r2,-29732(gp)
 40010ac:	10803fcc 	andi	r2,r2,255
 40010b0:	108001f0 	cmpltui	r2,r2,7
 40010b4:	1000031e 	bne	r2,zero,40010c4 <_ISR_uart0+0xac>
		i--; //counting remaining expected data
 40010b8:	d0a2f817 	ldw	r2,-29728(gp)
 40010bc:	10bfffc4 	addi	r2,r2,-1
 40010c0:	d0a2f815 	stw	r2,-29728(gp)
	}

	is_stx = is_stx || (ch == '\x2');
 40010c4:	d0a2f917 	ldw	r2,-29724(gp)
 40010c8:	1000031e 	bne	r2,zero,40010d8 <_ISR_uart0+0xc0>
 40010cc:	e0bffac7 	ldb	r2,-21(fp)
 40010d0:	10800098 	cmpnei	r2,r2,2
 40010d4:	1000021e 	bne	r2,zero,40010e0 <_ISR_uart0+0xc8>
 40010d8:	00800044 	movi	r2,1
 40010dc:	00000106 	br	40010e4 <_ISR_uart0+0xcc>
 40010e0:	0005883a 	mov	r2,zero
 40010e4:	d0a2f915 	stw	r2,-29724(gp)
	if (is_stx && (ch == '\x3' && i == -2)) { // The check on expected data count is done in order to exploit a "\x3" that is a data and not ETX
 40010e8:	d0a2f917 	ldw	r2,-29724(gp)
 40010ec:	10022a26 	beq	r2,zero,4001998 <_ISR_uart0+0x980>
 40010f0:	e0bffac7 	ldb	r2,-21(fp)
 40010f4:	108000d8 	cmpnei	r2,r2,3
 40010f8:	1002271e 	bne	r2,zero,4001998 <_ISR_uart0+0x980>
 40010fc:	d0a2f817 	ldw	r2,-29728(gp)
 4001100:	10bfff98 	cmpnei	r2,r2,-2
 4001104:	1002241e 	bne	r2,zero,4001998 <_ISR_uart0+0x980>
											  // -2 because after data I expect checksum + ETX
		checksum_val = gabriuart_checksum(gabriuart_cmd2_u32(buffer + 1));
 4001108:	00810074 	movhi	r2,1025
 400110c:	108fb944 	addi	r2,r2,16101
 4001110:	1009883a 	mov	r4,r2
 4001114:	4001b740 	call	4001b74 <gabriuart_cmd2_u32>
 4001118:	1009883a 	mov	r4,r2
 400111c:	4001b280 	call	4001b28 <gabriuart_checksum>
 4001120:	10803fcc 	andi	r2,r2,255
 4001124:	e0bfff15 	stw	r2,-4(fp)
		for (i = 0; i < buffer[5]; i++) {
 4001128:	d022f815 	stw	zero,-29728(gp)
 400112c:	00001206 	br	4001178 <_ISR_uart0+0x160>
			checksum_val += gabriuart_checksum((alt_u32)buffer[i + 6] & 0xff);
 4001130:	d0a2f817 	ldw	r2,-29728(gp)
 4001134:	10c00184 	addi	r3,r2,6
 4001138:	00810074 	movhi	r2,1025
 400113c:	1885883a 	add	r2,r3,r2
 4001140:	108fb903 	ldbu	r2,16100(r2)
 4001144:	10803fcc 	andi	r2,r2,255
 4001148:	1080201c 	xori	r2,r2,128
 400114c:	10bfe004 	addi	r2,r2,-128
 4001150:	10803fcc 	andi	r2,r2,255
 4001154:	1009883a 	mov	r4,r2
 4001158:	4001b280 	call	4001b28 <gabriuart_checksum>
 400115c:	10803fcc 	andi	r2,r2,255
 4001160:	e0ffff17 	ldw	r3,-4(fp)
 4001164:	1885883a 	add	r2,r3,r2
 4001168:	e0bfff15 	stw	r2,-4(fp)
		for (i = 0; i < buffer[5]; i++) {
 400116c:	d0a2f817 	ldw	r2,-29728(gp)
 4001170:	10800044 	addi	r2,r2,1
 4001174:	d0a2f815 	stw	r2,-29728(gp)
 4001178:	00810074 	movhi	r2,1025
 400117c:	108fba43 	ldbu	r2,16105(r2)
 4001180:	10803fcc 	andi	r2,r2,255
 4001184:	1080201c 	xori	r2,r2,128
 4001188:	10bfe004 	addi	r2,r2,-128
 400118c:	d0e2f817 	ldw	r3,-29728(gp)
 4001190:	18bfe716 	blt	r3,r2,4001130 <_ISR_uart0+0x118>
		}
		checksum_val &= 0x7f;
 4001194:	e0bfff17 	ldw	r2,-4(fp)
 4001198:	10801fcc 	andi	r2,r2,127
 400119c:	e0bfff15 	stw	r2,-4(fp)

		//sending ack or nack based on checksum check
		is_check_ok = (checksum_val == (alt_u8)buffer[buffer_post - 2]);
 40011a0:	d0a2f703 	ldbu	r2,-29732(gp)
 40011a4:	10803fcc 	andi	r2,r2,255
 40011a8:	10ffff84 	addi	r3,r2,-2
 40011ac:	00810074 	movhi	r2,1025
 40011b0:	1885883a 	add	r2,r3,r2
 40011b4:	108fb903 	ldbu	r2,16100(r2)
 40011b8:	10803fcc 	andi	r2,r2,255
 40011bc:	e0ffff17 	ldw	r3,-4(fp)
 40011c0:	1885003a 	cmpeq	r2,r3,r2
 40011c4:	10803fcc 	andi	r2,r2,255
 40011c8:	e0bffb15 	stw	r2,-20(fp)
		uprintf(uart0, "\x2%c\x1\x1\x1\x3\r\n", (is_check_ok) ? '\x06' : '\x0f');
 40011cc:	d0e2ed17 	ldw	r3,-29772(gp)
 40011d0:	e0bffb17 	ldw	r2,-20(fp)
 40011d4:	10000226 	beq	r2,zero,40011e0 <_ISR_uart0+0x1c8>
 40011d8:	00800184 	movi	r2,6
 40011dc:	00000106 	br	40011e4 <_ISR_uart0+0x1cc>
 40011e0:	008003c4 	movi	r2,15
 40011e4:	100d883a 	mov	r6,r2
 40011e8:	01410074 	movhi	r5,1025
 40011ec:	29483804 	addi	r5,r5,8416
 40011f0:	1809883a 	mov	r4,r3
 40011f4:	40007f40 	call	40007f4 <uprintf>

		if (is_check_ok) {
 40011f8:	e0bffb17 	ldw	r2,-20(fp)
 40011fc:	1001e226 	beq	r2,zero,4001988 <_ISR_uart0+0x970>
			i = gabriuart_cmd2_u32(buffer + 1);
 4001200:	00810074 	movhi	r2,1025
 4001204:	108fb944 	addi	r2,r2,16101
 4001208:	1009883a 	mov	r4,r2
 400120c:	4001b740 	call	4001b74 <gabriuart_cmd2_u32>
 4001210:	d0a2f815 	stw	r2,-29728(gp)
			switch(i) {
 4001214:	d0a2f817 	ldw	r2,-29728(gp)
 4001218:	00d51174 	movhi	r3,21573
 400121c:	18d4d0c4 	addi	r3,r3,21315
 4001220:	10c02d26 	beq	r2,r3,40012d8 <_ISR_uart0+0x2c0>
 4001224:	00d51174 	movhi	r3,21573
 4001228:	18d4d0c4 	addi	r3,r3,21315
 400122c:	1881d716 	blt	r3,r2,400198c <_ISR_uart0+0x974>
 4001230:	00d51174 	movhi	r3,21573
 4001234:	18d1d204 	addi	r3,r3,18248
 4001238:	10c18c26 	beq	r2,r3,400186c <_ISR_uart0+0x854>
 400123c:	00d51174 	movhi	r3,21573
 4001240:	18d1d204 	addi	r3,r3,18248
 4001244:	1881d116 	blt	r3,r2,400198c <_ISR_uart0+0x974>
 4001248:	00d51174 	movhi	r3,21573
 400124c:	18d1d0c4 	addi	r3,r3,18243
 4001250:	10c0cf26 	beq	r2,r3,4001590 <_ISR_uart0+0x578>
 4001254:	00d51174 	movhi	r3,21573
 4001258:	18d1d0c4 	addi	r3,r3,18243
 400125c:	1881cb16 	blt	r3,r2,400198c <_ISR_uart0+0x974>
 4001260:	00d155b4 	movhi	r3,17750
 4001264:	18d25304 	addi	r3,r3,18764
 4001268:	10c1c526 	beq	r2,r3,4001980 <_ISR_uart0+0x968>
 400126c:	00d1d3b4 	movhi	r3,18254
 4001270:	18d25404 	addi	r3,r3,18768
 4001274:	10c1c51e 	bne	r2,r3,400198c <_ISR_uart0+0x974>
			case PING:
				buffer[buffer_post] = ~buffer[i+6];
 4001278:	d0a2f817 	ldw	r2,-29728(gp)
 400127c:	10c00184 	addi	r3,r2,6
 4001280:	00810074 	movhi	r2,1025
 4001284:	1885883a 	add	r2,r3,r2
 4001288:	108fb903 	ldbu	r2,16100(r2)
 400128c:	d0e2f703 	ldbu	r3,-29732(gp)
 4001290:	18c03fcc 	andi	r3,r3,255
 4001294:	0084303a 	nor	r2,zero,r2
 4001298:	1009883a 	mov	r4,r2
 400129c:	00810074 	movhi	r2,1025
 40012a0:	1885883a 	add	r2,r3,r2
 40012a4:	110fb905 	stb	r4,16100(r2)
				gabriuart_send("PONG", 0x1, (alt_u8 *)(buffer + buffer_post));
 40012a8:	d0a2f703 	ldbu	r2,-29732(gp)
 40012ac:	10c03fcc 	andi	r3,r2,255
 40012b0:	00810074 	movhi	r2,1025
 40012b4:	108fb904 	addi	r2,r2,16100
 40012b8:	1885883a 	add	r2,r3,r2
 40012bc:	100d883a 	mov	r6,r2
 40012c0:	01400044 	movi	r5,1
 40012c4:	01010074 	movhi	r4,1025
 40012c8:	21083b04 	addi	r4,r4,8428
 40012cc:	40019e80 	call	40019e8 <gabriuart_send>

				lost_acks = 0; // A PING means that a client is connected, so I start again to sent data
 40012d0:	d022f615 	stw	zero,-29736(gp)
				break;
 40012d4:	0001ad06 	br	400198c <_ISR_uart0+0x974>

			case CSET:
				ptr = buffer + buffer_post - 22;
 40012d8:	d0a2f703 	ldbu	r2,-29732(gp)
 40012dc:	10803fcc 	andi	r2,r2,255
 40012e0:	10fffa84 	addi	r3,r2,-22
 40012e4:	00810074 	movhi	r2,1025
 40012e8:	108fb904 	addi	r2,r2,16100
 40012ec:	1885883a 	add	r2,r3,r2
 40012f0:	e0bffc15 	stw	r2,-16(fp)
				sampling_period_ms = (((alt_u32)ptr[0] << 0x00) & 0xff) 	  |
 40012f4:	e0bffc17 	ldw	r2,-16(fp)
 40012f8:	10800003 	ldbu	r2,0(r2)
 40012fc:	10803fcc 	andi	r2,r2,255
 4001300:	1080201c 	xori	r2,r2,128
 4001304:	10bfe004 	addi	r2,r2,-128
 4001308:	10c03fcc 	andi	r3,r2,255
									 (((alt_u32)ptr[1] << 0x08) & 0xff00) 	  |
 400130c:	e0bffc17 	ldw	r2,-16(fp)
 4001310:	10800044 	addi	r2,r2,1
 4001314:	10800003 	ldbu	r2,0(r2)
 4001318:	10803fcc 	andi	r2,r2,255
 400131c:	1080201c 	xori	r2,r2,128
 4001320:	10bfe004 	addi	r2,r2,-128
 4001324:	1004923a 	slli	r2,r2,8
 4001328:	10bfffcc 	andi	r2,r2,65535
				sampling_period_ms = (((alt_u32)ptr[0] << 0x00) & 0xff) 	  |
 400132c:	1886b03a 	or	r3,r3,r2
									 (((alt_u32)ptr[2] << 0x10) & 0xff0000)   |
 4001330:	e0bffc17 	ldw	r2,-16(fp)
 4001334:	10800084 	addi	r2,r2,2
 4001338:	10800003 	ldbu	r2,0(r2)
 400133c:	10803fcc 	andi	r2,r2,255
 4001340:	1080201c 	xori	r2,r2,128
 4001344:	10bfe004 	addi	r2,r2,-128
 4001348:	1004943a 	slli	r2,r2,16
 400134c:	10803fec 	andhi	r2,r2,255
									 (((alt_u32)ptr[1] << 0x08) & 0xff00) 	  |
 4001350:	1886b03a 	or	r3,r3,r2
									 (((alt_u32)ptr[3] << 0x18) & 0xff000000);
 4001354:	e0bffc17 	ldw	r2,-16(fp)
 4001358:	108000c4 	addi	r2,r2,3
 400135c:	10800003 	ldbu	r2,0(r2)
 4001360:	10803fcc 	andi	r2,r2,255
 4001364:	1080201c 	xori	r2,r2,128
 4001368:	10bfe004 	addi	r2,r2,-128
 400136c:	1004963a 	slli	r2,r2,24
									 (((alt_u32)ptr[2] << 0x10) & 0xff0000)   |
 4001370:	1884b03a 	or	r2,r3,r2
				sampling_period_ms = (((alt_u32)ptr[0] << 0x00) & 0xff) 	  |
 4001374:	d0a00015 	stw	r2,-32768(gp)

				avg_each_count = ptr[4];
 4001378:	e0bffc17 	ldw	r2,-16(fp)
 400137c:	10800104 	addi	r2,r2,4
 4001380:	10800003 	ldbu	r2,0(r2)
 4001384:	10803fcc 	andi	r2,r2,255
 4001388:	1080201c 	xori	r2,r2,128
 400138c:	10bfe004 	addi	r2,r2,-128
 4001390:	d0a00115 	stw	r2,-32764(gp)

				th0.value = ptr[05];
 4001394:	e0bffc17 	ldw	r2,-16(fp)
 4001398:	10800144 	addi	r2,r2,5
 400139c:	10800003 	ldbu	r2,0(r2)
 40013a0:	1007883a 	mov	r3,r2
 40013a4:	00810074 	movhi	r2,1025
 40013a8:	10cfb005 	stb	r3,16064(r2)
				th1.value = ptr[10];
 40013ac:	e0bffc17 	ldw	r2,-16(fp)
 40013b0:	10800284 	addi	r2,r2,10
 40013b4:	10800003 	ldbu	r2,0(r2)
 40013b8:	1007883a 	mov	r3,r2
 40013bc:	00810074 	movhi	r2,1025
 40013c0:	10cfb305 	stb	r3,16076(r2)
				th2.value = ptr[15];
 40013c4:	e0bffc17 	ldw	r2,-16(fp)
 40013c8:	108003c4 	addi	r2,r2,15
 40013cc:	10800003 	ldbu	r2,0(r2)
 40013d0:	1007883a 	mov	r3,r2
 40013d4:	00810074 	movhi	r2,1025
 40013d8:	10cfb605 	stb	r3,16088(r2)

				th0.duty0 = (((alt_u32)ptr[6] << 0x00) & 0xff) 	  |
 40013dc:	e0bffc17 	ldw	r2,-16(fp)
 40013e0:	10800184 	addi	r2,r2,6
 40013e4:	10800003 	ldbu	r2,0(r2)
 40013e8:	10803fcc 	andi	r2,r2,255
 40013ec:	1080201c 	xori	r2,r2,128
 40013f0:	10bfe004 	addi	r2,r2,-128
 40013f4:	10c03fcc 	andi	r3,r2,255
						 	(((alt_u32)ptr[7] << 0x08) & 0xff00);
 40013f8:	e0bffc17 	ldw	r2,-16(fp)
 40013fc:	108001c4 	addi	r2,r2,7
 4001400:	10800003 	ldbu	r2,0(r2)
 4001404:	10803fcc 	andi	r2,r2,255
 4001408:	1080201c 	xori	r2,r2,128
 400140c:	10bfe004 	addi	r2,r2,-128
 4001410:	1004923a 	slli	r2,r2,8
 4001414:	10bfffcc 	andi	r2,r2,65535
				th0.duty0 = (((alt_u32)ptr[6] << 0x00) & 0xff) 	  |
 4001418:	1886b03a 	or	r3,r3,r2
 400141c:	00810074 	movhi	r2,1025
 4001420:	10cfb115 	stw	r3,16068(r2)

				th0.duty1 = (((alt_u32)ptr[8] << 0x00) & 0xff) 	  |
 4001424:	e0bffc17 	ldw	r2,-16(fp)
 4001428:	10800204 	addi	r2,r2,8
 400142c:	10800003 	ldbu	r2,0(r2)
 4001430:	10803fcc 	andi	r2,r2,255
 4001434:	1080201c 	xori	r2,r2,128
 4001438:	10bfe004 	addi	r2,r2,-128
 400143c:	10c03fcc 	andi	r3,r2,255
						 	(((alt_u32)ptr[9] << 0x08) & 0xff00);
 4001440:	e0bffc17 	ldw	r2,-16(fp)
 4001444:	10800244 	addi	r2,r2,9
 4001448:	10800003 	ldbu	r2,0(r2)
 400144c:	10803fcc 	andi	r2,r2,255
 4001450:	1080201c 	xori	r2,r2,128
 4001454:	10bfe004 	addi	r2,r2,-128
 4001458:	1004923a 	slli	r2,r2,8
 400145c:	10bfffcc 	andi	r2,r2,65535
				th0.duty1 = (((alt_u32)ptr[8] << 0x00) & 0xff) 	  |
 4001460:	1886b03a 	or	r3,r3,r2
 4001464:	00810074 	movhi	r2,1025
 4001468:	10cfb215 	stw	r3,16072(r2)

				th1.duty0 = (((alt_u32)ptr[11] << 0x00) & 0xff) 	  |
 400146c:	e0bffc17 	ldw	r2,-16(fp)
 4001470:	108002c4 	addi	r2,r2,11
 4001474:	10800003 	ldbu	r2,0(r2)
 4001478:	10803fcc 	andi	r2,r2,255
 400147c:	1080201c 	xori	r2,r2,128
 4001480:	10bfe004 	addi	r2,r2,-128
 4001484:	10c03fcc 	andi	r3,r2,255
						 	(((alt_u32)ptr[12] << 0x08) & 0xff00);
 4001488:	e0bffc17 	ldw	r2,-16(fp)
 400148c:	10800304 	addi	r2,r2,12
 4001490:	10800003 	ldbu	r2,0(r2)
 4001494:	10803fcc 	andi	r2,r2,255
 4001498:	1080201c 	xori	r2,r2,128
 400149c:	10bfe004 	addi	r2,r2,-128
 40014a0:	1004923a 	slli	r2,r2,8
 40014a4:	10bfffcc 	andi	r2,r2,65535
				th1.duty0 = (((alt_u32)ptr[11] << 0x00) & 0xff) 	  |
 40014a8:	1886b03a 	or	r3,r3,r2
 40014ac:	00810074 	movhi	r2,1025
 40014b0:	10cfb415 	stw	r3,16080(r2)

				th1.duty1 = (((alt_u32)ptr[13] << 0x00) & 0xff) 	  |
 40014b4:	e0bffc17 	ldw	r2,-16(fp)
 40014b8:	10800344 	addi	r2,r2,13
 40014bc:	10800003 	ldbu	r2,0(r2)
 40014c0:	10803fcc 	andi	r2,r2,255
 40014c4:	1080201c 	xori	r2,r2,128
 40014c8:	10bfe004 	addi	r2,r2,-128
 40014cc:	10c03fcc 	andi	r3,r2,255
						 	(((alt_u32)ptr[14] << 0x08) & 0xff00);
 40014d0:	e0bffc17 	ldw	r2,-16(fp)
 40014d4:	10800384 	addi	r2,r2,14
 40014d8:	10800003 	ldbu	r2,0(r2)
 40014dc:	10803fcc 	andi	r2,r2,255
 40014e0:	1080201c 	xori	r2,r2,128
 40014e4:	10bfe004 	addi	r2,r2,-128
 40014e8:	1004923a 	slli	r2,r2,8
 40014ec:	10bfffcc 	andi	r2,r2,65535
				th1.duty1 = (((alt_u32)ptr[13] << 0x00) & 0xff) 	  |
 40014f0:	1886b03a 	or	r3,r3,r2
 40014f4:	00810074 	movhi	r2,1025
 40014f8:	10cfb515 	stw	r3,16084(r2)

				th2.duty0 = (((alt_u32)ptr[16] << 0x00) & 0xff) 	  |
 40014fc:	e0bffc17 	ldw	r2,-16(fp)
 4001500:	10800404 	addi	r2,r2,16
 4001504:	10800003 	ldbu	r2,0(r2)
 4001508:	10803fcc 	andi	r2,r2,255
 400150c:	1080201c 	xori	r2,r2,128
 4001510:	10bfe004 	addi	r2,r2,-128
 4001514:	10c03fcc 	andi	r3,r2,255
						 	(((alt_u32)ptr[17] << 0x08) & 0xff00);
 4001518:	e0bffc17 	ldw	r2,-16(fp)
 400151c:	10800444 	addi	r2,r2,17
 4001520:	10800003 	ldbu	r2,0(r2)
 4001524:	10803fcc 	andi	r2,r2,255
 4001528:	1080201c 	xori	r2,r2,128
 400152c:	10bfe004 	addi	r2,r2,-128
 4001530:	1004923a 	slli	r2,r2,8
 4001534:	10bfffcc 	andi	r2,r2,65535
				th2.duty0 = (((alt_u32)ptr[16] << 0x00) & 0xff) 	  |
 4001538:	1886b03a 	or	r3,r3,r2
 400153c:	00810074 	movhi	r2,1025
 4001540:	10cfb715 	stw	r3,16092(r2)

				th2.duty1 = (((alt_u32)ptr[18] << 0x00) & 0xff) 	  |
 4001544:	e0bffc17 	ldw	r2,-16(fp)
 4001548:	10800484 	addi	r2,r2,18
 400154c:	10800003 	ldbu	r2,0(r2)
 4001550:	10803fcc 	andi	r2,r2,255
 4001554:	1080201c 	xori	r2,r2,128
 4001558:	10bfe004 	addi	r2,r2,-128
 400155c:	10c03fcc 	andi	r3,r2,255
						 	(((alt_u32)ptr[19] << 0x08) & 0xff00);
 4001560:	e0bffc17 	ldw	r2,-16(fp)
 4001564:	108004c4 	addi	r2,r2,19
 4001568:	10800003 	ldbu	r2,0(r2)
 400156c:	10803fcc 	andi	r2,r2,255
 4001570:	1080201c 	xori	r2,r2,128
 4001574:	10bfe004 	addi	r2,r2,-128
 4001578:	1004923a 	slli	r2,r2,8
 400157c:	10bfffcc 	andi	r2,r2,65535
				th2.duty1 = (((alt_u32)ptr[18] << 0x00) & 0xff) 	  |
 4001580:	1886b03a 	or	r3,r3,r2
 4001584:	00810074 	movhi	r2,1025
 4001588:	10cfb815 	stw	r3,16096(r2)

				break;
 400158c:	0000ff06 	br	400198c <_ISR_uart0+0x974>

			case CGET:
				i = buffer_post;
 4001590:	d0a2f703 	ldbu	r2,-29732(gp)
 4001594:	10803fcc 	andi	r2,r2,255
 4001598:	d0a2f815 	stw	r2,-29728(gp)

				buffer[i++] = ((sampling_period_ms >> 0x00) & 0xff);
 400159c:	d1200017 	ldw	r4,-32768(gp)
 40015a0:	d0e2f817 	ldw	r3,-29728(gp)
 40015a4:	18800044 	addi	r2,r3,1
 40015a8:	d0a2f815 	stw	r2,-29728(gp)
 40015ac:	00810074 	movhi	r2,1025
 40015b0:	1885883a 	add	r2,r3,r2
 40015b4:	110fb905 	stb	r4,16100(r2)
				buffer[i++] = ((sampling_period_ms >> 0x08) & 0xff);
 40015b8:	d0a00017 	ldw	r2,-32768(gp)
 40015bc:	1008d23a 	srli	r4,r2,8
 40015c0:	d0e2f817 	ldw	r3,-29728(gp)
 40015c4:	18800044 	addi	r2,r3,1
 40015c8:	d0a2f815 	stw	r2,-29728(gp)
 40015cc:	00810074 	movhi	r2,1025
 40015d0:	1885883a 	add	r2,r3,r2
 40015d4:	110fb905 	stb	r4,16100(r2)
				buffer[i++] = ((sampling_period_ms >> 0x16) & 0xff);
 40015d8:	d0a00017 	ldw	r2,-32768(gp)
 40015dc:	1008d5ba 	srli	r4,r2,22
 40015e0:	d0e2f817 	ldw	r3,-29728(gp)
 40015e4:	18800044 	addi	r2,r3,1
 40015e8:	d0a2f815 	stw	r2,-29728(gp)
 40015ec:	00810074 	movhi	r2,1025
 40015f0:	1885883a 	add	r2,r3,r2
 40015f4:	110fb905 	stb	r4,16100(r2)
				buffer[i++] = ((sampling_period_ms >> 0x18) & 0xff);
 40015f8:	d0a00017 	ldw	r2,-32768(gp)
 40015fc:	1008d63a 	srli	r4,r2,24
 4001600:	d0e2f817 	ldw	r3,-29728(gp)
 4001604:	18800044 	addi	r2,r3,1
 4001608:	d0a2f815 	stw	r2,-29728(gp)
 400160c:	00810074 	movhi	r2,1025
 4001610:	1885883a 	add	r2,r3,r2
 4001614:	110fb905 	stb	r4,16100(r2)

				buffer[i++] = (avg_each_count & 0xff);
 4001618:	d1200117 	ldw	r4,-32764(gp)
 400161c:	d0e2f817 	ldw	r3,-29728(gp)
 4001620:	18800044 	addi	r2,r3,1
 4001624:	d0a2f815 	stw	r2,-29728(gp)
 4001628:	00810074 	movhi	r2,1025
 400162c:	1885883a 	add	r2,r3,r2
 4001630:	110fb905 	stb	r4,16100(r2)

				buffer[i++] = (th0.value & 0xff);
 4001634:	00810074 	movhi	r2,1025
 4001638:	110fb003 	ldbu	r4,16064(r2)
 400163c:	d0e2f817 	ldw	r3,-29728(gp)
 4001640:	18800044 	addi	r2,r3,1
 4001644:	d0a2f815 	stw	r2,-29728(gp)
 4001648:	00810074 	movhi	r2,1025
 400164c:	1885883a 	add	r2,r3,r2
 4001650:	110fb905 	stb	r4,16100(r2)
				buffer[i++] = ((th0.duty0 >> 0x00) & 0xff);
 4001654:	00810074 	movhi	r2,1025
 4001658:	110fb117 	ldw	r4,16068(r2)
 400165c:	d0e2f817 	ldw	r3,-29728(gp)
 4001660:	18800044 	addi	r2,r3,1
 4001664:	d0a2f815 	stw	r2,-29728(gp)
 4001668:	00810074 	movhi	r2,1025
 400166c:	1885883a 	add	r2,r3,r2
 4001670:	110fb905 	stb	r4,16100(r2)
				buffer[i++] = ((th0.duty0 >> 0x08) & 0xff);
 4001674:	00810074 	movhi	r2,1025
 4001678:	108fb117 	ldw	r2,16068(r2)
 400167c:	1008d23a 	srli	r4,r2,8
 4001680:	d0e2f817 	ldw	r3,-29728(gp)
 4001684:	18800044 	addi	r2,r3,1
 4001688:	d0a2f815 	stw	r2,-29728(gp)
 400168c:	00810074 	movhi	r2,1025
 4001690:	1885883a 	add	r2,r3,r2
 4001694:	110fb905 	stb	r4,16100(r2)
				buffer[i++] = ((th0.duty1 >> 0x00) & 0xff);
 4001698:	00810074 	movhi	r2,1025
 400169c:	110fb217 	ldw	r4,16072(r2)
 40016a0:	d0e2f817 	ldw	r3,-29728(gp)
 40016a4:	18800044 	addi	r2,r3,1
 40016a8:	d0a2f815 	stw	r2,-29728(gp)
 40016ac:	00810074 	movhi	r2,1025
 40016b0:	1885883a 	add	r2,r3,r2
 40016b4:	110fb905 	stb	r4,16100(r2)
				buffer[i++] = ((th0.duty1 >> 0x08) & 0xff);
 40016b8:	00810074 	movhi	r2,1025
 40016bc:	108fb217 	ldw	r2,16072(r2)
 40016c0:	1008d23a 	srli	r4,r2,8
 40016c4:	d0e2f817 	ldw	r3,-29728(gp)
 40016c8:	18800044 	addi	r2,r3,1
 40016cc:	d0a2f815 	stw	r2,-29728(gp)
 40016d0:	00810074 	movhi	r2,1025
 40016d4:	1885883a 	add	r2,r3,r2
 40016d8:	110fb905 	stb	r4,16100(r2)

				buffer[i++] = (th1.value & 0xff);
 40016dc:	00810074 	movhi	r2,1025
 40016e0:	110fb303 	ldbu	r4,16076(r2)
 40016e4:	d0e2f817 	ldw	r3,-29728(gp)
 40016e8:	18800044 	addi	r2,r3,1
 40016ec:	d0a2f815 	stw	r2,-29728(gp)
 40016f0:	00810074 	movhi	r2,1025
 40016f4:	1885883a 	add	r2,r3,r2
 40016f8:	110fb905 	stb	r4,16100(r2)
				buffer[i++] = ((th1.duty0 >> 0x00) & 0xff);
 40016fc:	00810074 	movhi	r2,1025
 4001700:	110fb417 	ldw	r4,16080(r2)
 4001704:	d0e2f817 	ldw	r3,-29728(gp)
 4001708:	18800044 	addi	r2,r3,1
 400170c:	d0a2f815 	stw	r2,-29728(gp)
 4001710:	00810074 	movhi	r2,1025
 4001714:	1885883a 	add	r2,r3,r2
 4001718:	110fb905 	stb	r4,16100(r2)
				buffer[i++] = ((th1.duty0 >> 0x08) & 0xff);
 400171c:	00810074 	movhi	r2,1025
 4001720:	108fb417 	ldw	r2,16080(r2)
 4001724:	1008d23a 	srli	r4,r2,8
 4001728:	d0e2f817 	ldw	r3,-29728(gp)
 400172c:	18800044 	addi	r2,r3,1
 4001730:	d0a2f815 	stw	r2,-29728(gp)
 4001734:	00810074 	movhi	r2,1025
 4001738:	1885883a 	add	r2,r3,r2
 400173c:	110fb905 	stb	r4,16100(r2)
				buffer[i++] = ((th1.duty1 >> 0x00) & 0xff);
 4001740:	00810074 	movhi	r2,1025
 4001744:	110fb517 	ldw	r4,16084(r2)
 4001748:	d0e2f817 	ldw	r3,-29728(gp)
 400174c:	18800044 	addi	r2,r3,1
 4001750:	d0a2f815 	stw	r2,-29728(gp)
 4001754:	00810074 	movhi	r2,1025
 4001758:	1885883a 	add	r2,r3,r2
 400175c:	110fb905 	stb	r4,16100(r2)
				buffer[i++] = ((th1.duty1 >> 0x08) & 0xff);
 4001760:	00810074 	movhi	r2,1025
 4001764:	108fb517 	ldw	r2,16084(r2)
 4001768:	1008d23a 	srli	r4,r2,8
 400176c:	d0e2f817 	ldw	r3,-29728(gp)
 4001770:	18800044 	addi	r2,r3,1
 4001774:	d0a2f815 	stw	r2,-29728(gp)
 4001778:	00810074 	movhi	r2,1025
 400177c:	1885883a 	add	r2,r3,r2
 4001780:	110fb905 	stb	r4,16100(r2)

				buffer[i++] = (th2.value & 0xff);
 4001784:	00810074 	movhi	r2,1025
 4001788:	110fb603 	ldbu	r4,16088(r2)
 400178c:	d0e2f817 	ldw	r3,-29728(gp)
 4001790:	18800044 	addi	r2,r3,1
 4001794:	d0a2f815 	stw	r2,-29728(gp)
 4001798:	00810074 	movhi	r2,1025
 400179c:	1885883a 	add	r2,r3,r2
 40017a0:	110fb905 	stb	r4,16100(r2)
				buffer[i++] = ((th2.duty0 >> 0x00) & 0xff);
 40017a4:	00810074 	movhi	r2,1025
 40017a8:	110fb717 	ldw	r4,16092(r2)
 40017ac:	d0e2f817 	ldw	r3,-29728(gp)
 40017b0:	18800044 	addi	r2,r3,1
 40017b4:	d0a2f815 	stw	r2,-29728(gp)
 40017b8:	00810074 	movhi	r2,1025
 40017bc:	1885883a 	add	r2,r3,r2
 40017c0:	110fb905 	stb	r4,16100(r2)
				buffer[i++] = ((th2.duty0 >> 0x08) & 0xff);
 40017c4:	00810074 	movhi	r2,1025
 40017c8:	108fb717 	ldw	r2,16092(r2)
 40017cc:	1008d23a 	srli	r4,r2,8
 40017d0:	d0e2f817 	ldw	r3,-29728(gp)
 40017d4:	18800044 	addi	r2,r3,1
 40017d8:	d0a2f815 	stw	r2,-29728(gp)
 40017dc:	00810074 	movhi	r2,1025
 40017e0:	1885883a 	add	r2,r3,r2
 40017e4:	110fb905 	stb	r4,16100(r2)
				buffer[i++] = ((th2.duty1 >> 0x00) & 0xff);
 40017e8:	00810074 	movhi	r2,1025
 40017ec:	110fb817 	ldw	r4,16096(r2)
 40017f0:	d0e2f817 	ldw	r3,-29728(gp)
 40017f4:	18800044 	addi	r2,r3,1
 40017f8:	d0a2f815 	stw	r2,-29728(gp)
 40017fc:	00810074 	movhi	r2,1025
 4001800:	1885883a 	add	r2,r3,r2
 4001804:	110fb905 	stb	r4,16100(r2)
				buffer[i++] = ((th2.duty1 >> 0x08) & 0xff);
 4001808:	00810074 	movhi	r2,1025
 400180c:	108fb817 	ldw	r2,16096(r2)
 4001810:	1008d23a 	srli	r4,r2,8
 4001814:	d0e2f817 	ldw	r3,-29728(gp)
 4001818:	18800044 	addi	r2,r3,1
 400181c:	d0a2f815 	stw	r2,-29728(gp)
 4001820:	00810074 	movhi	r2,1025
 4001824:	1885883a 	add	r2,r3,r2
 4001828:	110fb905 	stb	r4,16100(r2)

				gabriuart_send("CSEN", (i - buffer_post), (alt_u8 *)(buffer + buffer_post));
 400182c:	d0a2f817 	ldw	r2,-29728(gp)
 4001830:	1007883a 	mov	r3,r2
 4001834:	d0a2f703 	ldbu	r2,-29732(gp)
 4001838:	1885c83a 	sub	r2,r3,r2
 400183c:	11003fcc 	andi	r4,r2,255
 4001840:	d0a2f703 	ldbu	r2,-29732(gp)
 4001844:	10c03fcc 	andi	r3,r2,255
 4001848:	00810074 	movhi	r2,1025
 400184c:	108fb904 	addi	r2,r2,16100
 4001850:	1885883a 	add	r2,r3,r2
 4001854:	100d883a 	mov	r6,r2
 4001858:	200b883a 	mov	r5,r4
 400185c:	01010074 	movhi	r4,1025
 4001860:	21083d04 	addi	r4,r4,8436
 4001864:	40019e80 	call	40019e8 <gabriuart_send>
				break;
 4001868:	00004806 	br	400198c <_ISR_uart0+0x974>

			case HGET:

				// Sending chunks of 128 bytes each for a total of 2048 bytes
				addr = retrieve_history_address;
 400186c:	d0a2f517 	ldw	r2,-29740(gp)
 4001870:	e0bffe15 	stw	r2,-8(fp)
				for (i = 0; i < 16; i++) {
 4001874:	d022f815 	stw	zero,-29728(gp)
 4001878:	00003d06 	br	4001970 <_ISR_uart0+0x958>
					ptr = buffer + buffer_post;
 400187c:	d0a2f703 	ldbu	r2,-29732(gp)
 4001880:	10c03fcc 	andi	r3,r2,255
 4001884:	00810074 	movhi	r2,1025
 4001888:	108fb904 	addi	r2,r2,16100
 400188c:	1885883a 	add	r2,r3,r2
 4001890:	e0bffc15 	stw	r2,-16(fp)

					for (j = 0; j < 128 && addr != (history_address - 1); j++, ptr++) {
 4001894:	e03ffd15 	stw	zero,-12(fp)
 4001898:	00001506 	br	40018f0 <_ISR_uart0+0x8d8>
						*ptr = historymem_read(history0, addr++);
 400189c:	e0bffe17 	ldw	r2,-8(fp)
 40018a0:	10c00044 	addi	r3,r2,1
 40018a4:	e0fffe15 	stw	r3,-8(fp)
 40018a8:	10bfffcc 	andi	r2,r2,65535
 40018ac:	100d883a 	mov	r6,r2
 40018b0:	d122f217 	ldw	r4,-29752(gp)
 40018b4:	d162f317 	ldw	r5,-29748(gp)
 40018b8:	40004580 	call	4000458 <historymem_read>
 40018bc:	1007883a 	mov	r3,r2
 40018c0:	e0bffc17 	ldw	r2,-16(fp)
 40018c4:	10c00005 	stb	r3,0(r2)

						if (addr >= MAX_HISTORY_ADDRESS) {
 40018c8:	e0bffe17 	ldw	r2,-8(fp)
 40018cc:	1081ffd0 	cmplti	r2,r2,2047
 40018d0:	1000011e 	bne	r2,zero,40018d8 <_ISR_uart0+0x8c0>
							addr = 0;
 40018d4:	e03ffe15 	stw	zero,-8(fp)
					for (j = 0; j < 128 && addr != (history_address - 1); j++, ptr++) {
 40018d8:	e0bffd17 	ldw	r2,-12(fp)
 40018dc:	10800044 	addi	r2,r2,1
 40018e0:	e0bffd15 	stw	r2,-12(fp)
 40018e4:	e0bffc17 	ldw	r2,-16(fp)
 40018e8:	10800044 	addi	r2,r2,1
 40018ec:	e0bffc15 	stw	r2,-16(fp)
 40018f0:	e0bffd17 	ldw	r2,-12(fp)
 40018f4:	10802008 	cmpgei	r2,r2,128
 40018f8:	1000041e 	bne	r2,zero,400190c <_ISR_uart0+0x8f4>
 40018fc:	d0a2f417 	ldw	r2,-29744(gp)
 4001900:	10ffffc4 	addi	r3,r2,-1
 4001904:	e0bffe17 	ldw	r2,-8(fp)
 4001908:	18bfe41e 	bne	r3,r2,400189c <_ISR_uart0+0x884>
						}
					}

					gabriuart_send("HSEN", j, (alt_u8 *)(buffer + buffer_post));
 400190c:	e0bffd17 	ldw	r2,-12(fp)
 4001910:	11003fcc 	andi	r4,r2,255
 4001914:	d0a2f703 	ldbu	r2,-29732(gp)
 4001918:	10c03fcc 	andi	r3,r2,255
 400191c:	00810074 	movhi	r2,1025
 4001920:	108fb904 	addi	r2,r2,16100
 4001924:	1885883a 	add	r2,r3,r2
 4001928:	100d883a 	mov	r6,r2
 400192c:	200b883a 	mov	r5,r4
 4001930:	01010074 	movhi	r4,1025
 4001934:	21083f04 	addi	r4,r4,8444
 4001938:	40019e80 	call	40019e8 <gabriuart_send>
					j = alt_timestamp_start();
 400193c:	40115100 	call	4011510 <alt_timestamp_start>
 4001940:	e0bffd15 	stw	r2,-12(fp)
					while(alt_timestamp() - j < INTERHISTORY_SEND_PAUSE); // A little pause to not flood the serial, maybe the client is too slow to read
 4001944:	0001883a 	nop
 4001948:	40115880 	call	4011588 <alt_timestamp>
 400194c:	1007883a 	mov	r3,r2
 4001950:	e0bffd17 	ldw	r2,-12(fp)
 4001954:	1887c83a 	sub	r3,r3,r2
 4001958:	008003f4 	movhi	r2,15
 400195c:	10908fc4 	addi	r2,r2,16959
 4001960:	10fff92e 	bgeu	r2,r3,4001948 <_ISR_uart0+0x930>
				for (i = 0; i < 16; i++) {
 4001964:	d0a2f817 	ldw	r2,-29728(gp)
 4001968:	10800044 	addi	r2,r2,1
 400196c:	d0a2f815 	stw	r2,-29728(gp)
 4001970:	d0a2f817 	ldw	r2,-29728(gp)
 4001974:	10800410 	cmplti	r2,r2,16
 4001978:	103fc01e 	bne	r2,zero,400187c <_ISR_uart0+0x864>
				}

				break;
 400197c:	00000306 	br	400198c <_ISR_uart0+0x974>

			case LIVE:
				// If a client sends this, it means that it's still alive. It has to send it periodically
				lost_acks = 0;
 4001980:	d022f615 	stw	zero,-29736(gp)
				break;
 4001984:	00000106 	br	400198c <_ISR_uart0+0x974>
			}
		}
 4001988:	0001883a 	nop

		buffer_post = 0;
 400198c:	d022f705 	stb	zero,-29732(gp)
		is_stx = false;
 4001990:	d022f915 	stw	zero,-29724(gp)
		while ((((*((int *)UART_0_BASE + 2)) >> 6) & 0x1) != 1);
		*((int *)UART_0_BASE + 1) = (ch & 0xff);

		buffer_post = 0;
	}
}
 4001994:	00000e06 	br	40019d0 <_ISR_uart0+0x9b8>
	} else if (!is_stx) {
 4001998:	d0a2f917 	ldw	r2,-29724(gp)
 400199c:	10000c1e 	bne	r2,zero,40019d0 <_ISR_uart0+0x9b8>
		while ((((*((int *)UART_0_BASE + 2)) >> 6) & 0x1) != 1);
 40019a0:	0001883a 	nop
 40019a4:	00840034 	movhi	r2,4096
 40019a8:	10800a04 	addi	r2,r2,40
 40019ac:	10800017 	ldw	r2,0(r2)
 40019b0:	1080100c 	andi	r2,r2,64
 40019b4:	103ffb26 	beq	r2,zero,40019a4 <_ISR_uart0+0x98c>
		*((int *)UART_0_BASE + 1) = (ch & 0xff);
 40019b8:	e0fffac7 	ldb	r3,-21(fp)
 40019bc:	00840034 	movhi	r2,4096
 40019c0:	10800904 	addi	r2,r2,36
 40019c4:	18c03fcc 	andi	r3,r3,255
 40019c8:	10c00015 	stw	r3,0(r2)
		buffer_post = 0;
 40019cc:	d022f705 	stb	zero,-29732(gp)
}
 40019d0:	0001883a 	nop
 40019d4:	e037883a 	mov	sp,fp
 40019d8:	dfc00117 	ldw	ra,4(sp)
 40019dc:	df000017 	ldw	fp,0(sp)
 40019e0:	dec00204 	addi	sp,sp,8
 40019e4:	f800283a 	ret

040019e8 <gabriuart_send>:

void gabriuart_send(char *cmd, alt_u8 length, alt_u8 *data) {
 40019e8:	defff904 	addi	sp,sp,-28
 40019ec:	dfc00615 	stw	ra,24(sp)
 40019f0:	df000515 	stw	fp,20(sp)
 40019f4:	df000504 	addi	fp,sp,20
 40019f8:	e13ffd15 	stw	r4,-12(fp)
 40019fc:	2805883a 	mov	r2,r5
 4001a00:	e1bffb15 	stw	r6,-20(fp)
 4001a04:	e0bffc05 	stb	r2,-16(fp)
	int checksum, i;

	checksum = gabriuart_checksum(gabriuart_cmd2_u32(cmd));
 4001a08:	e13ffd17 	ldw	r4,-12(fp)
 4001a0c:	4001b740 	call	4001b74 <gabriuart_cmd2_u32>
 4001a10:	1009883a 	mov	r4,r2
 4001a14:	4001b280 	call	4001b28 <gabriuart_checksum>
 4001a18:	10803fcc 	andi	r2,r2,255
 4001a1c:	e0bfff15 	stw	r2,-4(fp)
	for (i = 0; i < length; i++) {
 4001a20:	e03ffe15 	stw	zero,-8(fp)
 4001a24:	00000e06 	br	4001a60 <gabriuart_send+0x78>
		checksum += gabriuart_checksum((alt_u32)data[i] & 0xff);
 4001a28:	e0bffe17 	ldw	r2,-8(fp)
 4001a2c:	e0fffb17 	ldw	r3,-20(fp)
 4001a30:	1885883a 	add	r2,r3,r2
 4001a34:	10800003 	ldbu	r2,0(r2)
 4001a38:	10803fcc 	andi	r2,r2,255
 4001a3c:	1009883a 	mov	r4,r2
 4001a40:	4001b280 	call	4001b28 <gabriuart_checksum>
 4001a44:	10803fcc 	andi	r2,r2,255
 4001a48:	e0ffff17 	ldw	r3,-4(fp)
 4001a4c:	1885883a 	add	r2,r3,r2
 4001a50:	e0bfff15 	stw	r2,-4(fp)
	for (i = 0; i < length; i++) {
 4001a54:	e0bffe17 	ldw	r2,-8(fp)
 4001a58:	10800044 	addi	r2,r2,1
 4001a5c:	e0bffe15 	stw	r2,-8(fp)
 4001a60:	e0bffc03 	ldbu	r2,-16(fp)
 4001a64:	e0fffe17 	ldw	r3,-8(fp)
 4001a68:	18bfef16 	blt	r3,r2,4001a28 <gabriuart_send+0x40>
	}
	checksum &= 0x7f;
 4001a6c:	e0bfff17 	ldw	r2,-4(fp)
 4001a70:	10801fcc 	andi	r2,r2,127
 4001a74:	e0bfff15 	stw	r2,-4(fp)

	uprintf(uart0, "\x2\%s", cmd);
 4001a78:	d0a2ed17 	ldw	r2,-29772(gp)
 4001a7c:	e1bffd17 	ldw	r6,-12(fp)
 4001a80:	01410074 	movhi	r5,1025
 4001a84:	29484104 	addi	r5,r5,8452
 4001a88:	1009883a 	mov	r4,r2
 4001a8c:	40007f40 	call	40007f4 <uprintf>
	uputc(uart0, length); // length could be 0 so I need to sent it separately (uprintf doesn't handle \0 chars')
 4001a90:	d0a2ed17 	ldw	r2,-29772(gp)
 4001a94:	e0fffc03 	ldbu	r3,-16(fp)
 4001a98:	18c03fcc 	andi	r3,r3,255
 4001a9c:	18c0201c 	xori	r3,r3,128
 4001aa0:	18ffe004 	addi	r3,r3,-128
 4001aa4:	180b883a 	mov	r5,r3
 4001aa8:	1009883a 	mov	r4,r2
 4001aac:	40008ac0 	call	40008ac <uputc>
	for (i = 0; i < length; i++) {
 4001ab0:	e03ffe15 	stw	zero,-8(fp)
 4001ab4:	00000d06 	br	4001aec <gabriuart_send+0x104>
		uputc(uart0, data[i]);
 4001ab8:	d122ed17 	ldw	r4,-29772(gp)
 4001abc:	e0bffe17 	ldw	r2,-8(fp)
 4001ac0:	e0fffb17 	ldw	r3,-20(fp)
 4001ac4:	1885883a 	add	r2,r3,r2
 4001ac8:	10800003 	ldbu	r2,0(r2)
 4001acc:	10803fcc 	andi	r2,r2,255
 4001ad0:	1080201c 	xori	r2,r2,128
 4001ad4:	10bfe004 	addi	r2,r2,-128
 4001ad8:	100b883a 	mov	r5,r2
 4001adc:	40008ac0 	call	40008ac <uputc>
	for (i = 0; i < length; i++) {
 4001ae0:	e0bffe17 	ldw	r2,-8(fp)
 4001ae4:	10800044 	addi	r2,r2,1
 4001ae8:	e0bffe15 	stw	r2,-8(fp)
 4001aec:	e0bffc03 	ldbu	r2,-16(fp)
 4001af0:	e0fffe17 	ldw	r3,-8(fp)
 4001af4:	18bff016 	blt	r3,r2,4001ab8 <gabriuart_send+0xd0>
	}

	uprintf(uart0, "%c\x3\r\n", checksum);
 4001af8:	d0a2ed17 	ldw	r2,-29772(gp)
 4001afc:	e1bfff17 	ldw	r6,-4(fp)
 4001b00:	01410074 	movhi	r5,1025
 4001b04:	29484204 	addi	r5,r5,8456
 4001b08:	1009883a 	mov	r4,r2
 4001b0c:	40007f40 	call	40007f4 <uprintf>
}
 4001b10:	0001883a 	nop
 4001b14:	e037883a 	mov	sp,fp
 4001b18:	dfc00117 	ldw	ra,4(sp)
 4001b1c:	df000017 	ldw	fp,0(sp)
 4001b20:	dec00204 	addi	sp,sp,8
 4001b24:	f800283a 	ret

04001b28 <gabriuart_checksum>:

alt_u8 gabriuart_checksum(alt_u32 crc) {
 4001b28:	defffe04 	addi	sp,sp,-8
 4001b2c:	df000115 	stw	fp,4(sp)
 4001b30:	df000104 	addi	fp,sp,4
 4001b34:	e13fff15 	stw	r4,-4(fp)
	crc ^= crc >> 16;
 4001b38:	e0bfff17 	ldw	r2,-4(fp)
 4001b3c:	1004d43a 	srli	r2,r2,16
 4001b40:	e0ffff17 	ldw	r3,-4(fp)
 4001b44:	1884f03a 	xor	r2,r3,r2
 4001b48:	e0bfff15 	stw	r2,-4(fp)
	crc ^= crc >> 8;
 4001b4c:	e0bfff17 	ldw	r2,-4(fp)
 4001b50:	1004d23a 	srli	r2,r2,8
 4001b54:	e0ffff17 	ldw	r3,-4(fp)
 4001b58:	1884f03a 	xor	r2,r3,r2
 4001b5c:	e0bfff15 	stw	r2,-4(fp)

	return (alt_u8)crc;
 4001b60:	e0bfff17 	ldw	r2,-4(fp)
}
 4001b64:	e037883a 	mov	sp,fp
 4001b68:	df000017 	ldw	fp,0(sp)
 4001b6c:	dec00104 	addi	sp,sp,4
 4001b70:	f800283a 	ret

04001b74 <gabriuart_cmd2_u32>:

alt_u32 gabriuart_cmd2_u32(char *v) {
 4001b74:	defffe04 	addi	sp,sp,-8
 4001b78:	df000115 	stw	fp,4(sp)
 4001b7c:	df000104 	addi	fp,sp,4
 4001b80:	e13fff15 	stw	r4,-4(fp)
	return (alt_u32)v[3] << 24 |
 4001b84:	e0bfff17 	ldw	r2,-4(fp)
 4001b88:	108000c4 	addi	r2,r2,3
 4001b8c:	10800003 	ldbu	r2,0(r2)
 4001b90:	10803fcc 	andi	r2,r2,255
 4001b94:	1080201c 	xori	r2,r2,128
 4001b98:	10bfe004 	addi	r2,r2,-128
 4001b9c:	1006963a 	slli	r3,r2,24
		   (alt_u32)v[2] << 16 |
 4001ba0:	e0bfff17 	ldw	r2,-4(fp)
 4001ba4:	10800084 	addi	r2,r2,2
 4001ba8:	10800003 	ldbu	r2,0(r2)
 4001bac:	10803fcc 	andi	r2,r2,255
 4001bb0:	1080201c 	xori	r2,r2,128
 4001bb4:	10bfe004 	addi	r2,r2,-128
 4001bb8:	1004943a 	slli	r2,r2,16
	return (alt_u32)v[3] << 24 |
 4001bbc:	1886b03a 	or	r3,r3,r2
		   (alt_u32)v[1] << 8  |
 4001bc0:	e0bfff17 	ldw	r2,-4(fp)
 4001bc4:	10800044 	addi	r2,r2,1
 4001bc8:	10800003 	ldbu	r2,0(r2)
 4001bcc:	10803fcc 	andi	r2,r2,255
 4001bd0:	1080201c 	xori	r2,r2,128
 4001bd4:	10bfe004 	addi	r2,r2,-128
 4001bd8:	1004923a 	slli	r2,r2,8
		   (alt_u32)v[2] << 16 |
 4001bdc:	1886b03a 	or	r3,r3,r2
		   (alt_u32)v[0] << 0;
 4001be0:	e0bfff17 	ldw	r2,-4(fp)
 4001be4:	10800003 	ldbu	r2,0(r2)
 4001be8:	10803fcc 	andi	r2,r2,255
 4001bec:	1080201c 	xori	r2,r2,128
 4001bf0:	10bfe004 	addi	r2,r2,-128
		   (alt_u32)v[1] << 8  |
 4001bf4:	1884b03a 	or	r2,r3,r2
}
 4001bf8:	e037883a 	mov	sp,fp
 4001bfc:	df000017 	ldw	fp,0(sp)
 4001c00:	dec00104 	addi	sp,sp,4
 4001c04:	f800283a 	ret

04001c08 <history0_addr_get_update>:

alt_u16 history0_addr_get_update() {
 4001c08:	defffe04 	addi	sp,sp,-8
 4001c0c:	df000115 	stw	fp,4(sp)
 4001c10:	df000104 	addi	fp,sp,4
	alt_u16 ret_val;

	ret_val = history_address++;
 4001c14:	d0a2f417 	ldw	r2,-29744(gp)
 4001c18:	10c00044 	addi	r3,r2,1
 4001c1c:	d0e2f415 	stw	r3,-29744(gp)
 4001c20:	e0bfff8d 	sth	r2,-2(fp)
	if (history_address >= MAX_HISTORY_ADDRESS) {
 4001c24:	d0a2f417 	ldw	r2,-29744(gp)
 4001c28:	1081fff0 	cmpltui	r2,r2,2047
 4001c2c:	1000011e 	bne	r2,zero,4001c34 <history0_addr_get_update+0x2c>
		history_address = 0;
 4001c30:	d022f415 	stw	zero,-29744(gp)
	}

	if (history_address == retrieve_history_address) {
 4001c34:	d0e2f417 	ldw	r3,-29744(gp)
 4001c38:	d0a2f517 	ldw	r2,-29740(gp)
 4001c3c:	1880071e 	bne	r3,r2,4001c5c <history0_addr_get_update+0x54>
		retrieve_history_address++;
 4001c40:	d0a2f517 	ldw	r2,-29740(gp)
 4001c44:	10800044 	addi	r2,r2,1
 4001c48:	d0a2f515 	stw	r2,-29740(gp)
		if (retrieve_history_address >= MAX_HISTORY_ADDRESS) {
 4001c4c:	d0a2f517 	ldw	r2,-29740(gp)
 4001c50:	1081fff0 	cmpltui	r2,r2,2047
 4001c54:	1000011e 	bne	r2,zero,4001c5c <history0_addr_get_update+0x54>
			retrieve_history_address = 0;
 4001c58:	d022f515 	stw	zero,-29740(gp)
		}
	}

	return ret_val;
 4001c5c:	e0bfff8b 	ldhu	r2,-2(fp)
}
 4001c60:	e037883a 	mov	sp,fp
 4001c64:	df000017 	ldw	fp,0(sp)
 4001c68:	dec00104 	addi	sp,sp,4
 4001c6c:	f800283a 	ret

04001c70 <__divsi3>:
 4001c70:	20001a16 	blt	r4,zero,4001cdc <__divsi3+0x6c>
 4001c74:	000f883a 	mov	r7,zero
 4001c78:	2800020e 	bge	r5,zero,4001c84 <__divsi3+0x14>
 4001c7c:	014bc83a 	sub	r5,zero,r5
 4001c80:	39c0005c 	xori	r7,r7,1
 4001c84:	200d883a 	mov	r6,r4
 4001c88:	00c00044 	movi	r3,1
 4001c8c:	2900092e 	bgeu	r5,r4,4001cb4 <__divsi3+0x44>
 4001c90:	00800804 	movi	r2,32
 4001c94:	00c00044 	movi	r3,1
 4001c98:	00000106 	br	4001ca0 <__divsi3+0x30>
 4001c9c:	10001226 	beq	r2,zero,4001ce8 <__divsi3+0x78>
 4001ca0:	294b883a 	add	r5,r5,r5
 4001ca4:	10bfffc4 	addi	r2,r2,-1
 4001ca8:	18c7883a 	add	r3,r3,r3
 4001cac:	293ffb36 	bltu	r5,r4,4001c9c <__divsi3+0x2c>
 4001cb0:	18000d26 	beq	r3,zero,4001ce8 <__divsi3+0x78>
 4001cb4:	0005883a 	mov	r2,zero
 4001cb8:	31400236 	bltu	r6,r5,4001cc4 <__divsi3+0x54>
 4001cbc:	314dc83a 	sub	r6,r6,r5
 4001cc0:	10c4b03a 	or	r2,r2,r3
 4001cc4:	1806d07a 	srli	r3,r3,1
 4001cc8:	280ad07a 	srli	r5,r5,1
 4001ccc:	183ffa1e 	bne	r3,zero,4001cb8 <__divsi3+0x48>
 4001cd0:	38000126 	beq	r7,zero,4001cd8 <__divsi3+0x68>
 4001cd4:	0085c83a 	sub	r2,zero,r2
 4001cd8:	f800283a 	ret
 4001cdc:	0109c83a 	sub	r4,zero,r4
 4001ce0:	01c00044 	movi	r7,1
 4001ce4:	003fe406 	br	4001c78 <__divsi3+0x8>
 4001ce8:	0005883a 	mov	r2,zero
 4001cec:	003ff806 	br	4001cd0 <__divsi3+0x60>

04001cf0 <__modsi3>:
 4001cf0:	20001916 	blt	r4,zero,4001d58 <__modsi3+0x68>
 4001cf4:	000f883a 	mov	r7,zero
 4001cf8:	2005883a 	mov	r2,r4
 4001cfc:	2800010e 	bge	r5,zero,4001d04 <__modsi3+0x14>
 4001d00:	014bc83a 	sub	r5,zero,r5
 4001d04:	00c00044 	movi	r3,1
 4001d08:	2900092e 	bgeu	r5,r4,4001d30 <__modsi3+0x40>
 4001d0c:	01800804 	movi	r6,32
 4001d10:	00c00044 	movi	r3,1
 4001d14:	00000106 	br	4001d1c <__modsi3+0x2c>
 4001d18:	30000d26 	beq	r6,zero,4001d50 <__modsi3+0x60>
 4001d1c:	294b883a 	add	r5,r5,r5
 4001d20:	31bfffc4 	addi	r6,r6,-1
 4001d24:	18c7883a 	add	r3,r3,r3
 4001d28:	293ffb36 	bltu	r5,r4,4001d18 <__modsi3+0x28>
 4001d2c:	18000826 	beq	r3,zero,4001d50 <__modsi3+0x60>
 4001d30:	1806d07a 	srli	r3,r3,1
 4001d34:	11400136 	bltu	r2,r5,4001d3c <__modsi3+0x4c>
 4001d38:	1145c83a 	sub	r2,r2,r5
 4001d3c:	280ad07a 	srli	r5,r5,1
 4001d40:	183ffb1e 	bne	r3,zero,4001d30 <__modsi3+0x40>
 4001d44:	38000126 	beq	r7,zero,4001d4c <__modsi3+0x5c>
 4001d48:	0085c83a 	sub	r2,zero,r2
 4001d4c:	f800283a 	ret
 4001d50:	2005883a 	mov	r2,r4
 4001d54:	003ffb06 	br	4001d44 <__modsi3+0x54>
 4001d58:	0109c83a 	sub	r4,zero,r4
 4001d5c:	01c00044 	movi	r7,1
 4001d60:	003fe506 	br	4001cf8 <__modsi3+0x8>

04001d64 <__udivsi3>:
 4001d64:	200d883a 	mov	r6,r4
 4001d68:	2900152e 	bgeu	r5,r4,4001dc0 <__udivsi3+0x5c>
 4001d6c:	28001416 	blt	r5,zero,4001dc0 <__udivsi3+0x5c>
 4001d70:	00800804 	movi	r2,32
 4001d74:	00c00044 	movi	r3,1
 4001d78:	00000206 	br	4001d84 <__udivsi3+0x20>
 4001d7c:	10000e26 	beq	r2,zero,4001db8 <__udivsi3+0x54>
 4001d80:	28000516 	blt	r5,zero,4001d98 <__udivsi3+0x34>
 4001d84:	294b883a 	add	r5,r5,r5
 4001d88:	10bfffc4 	addi	r2,r2,-1
 4001d8c:	18c7883a 	add	r3,r3,r3
 4001d90:	293ffa36 	bltu	r5,r4,4001d7c <__udivsi3+0x18>
 4001d94:	18000826 	beq	r3,zero,4001db8 <__udivsi3+0x54>
 4001d98:	0005883a 	mov	r2,zero
 4001d9c:	31400236 	bltu	r6,r5,4001da8 <__udivsi3+0x44>
 4001da0:	314dc83a 	sub	r6,r6,r5
 4001da4:	10c4b03a 	or	r2,r2,r3
 4001da8:	1806d07a 	srli	r3,r3,1
 4001dac:	280ad07a 	srli	r5,r5,1
 4001db0:	183ffa1e 	bne	r3,zero,4001d9c <__udivsi3+0x38>
 4001db4:	f800283a 	ret
 4001db8:	0005883a 	mov	r2,zero
 4001dbc:	f800283a 	ret
 4001dc0:	00c00044 	movi	r3,1
 4001dc4:	003ff406 	br	4001d98 <__udivsi3+0x34>

04001dc8 <__umodsi3>:
 4001dc8:	2005883a 	mov	r2,r4
 4001dcc:	2900132e 	bgeu	r5,r4,4001e1c <__umodsi3+0x54>
 4001dd0:	28001216 	blt	r5,zero,4001e1c <__umodsi3+0x54>
 4001dd4:	01800804 	movi	r6,32
 4001dd8:	00c00044 	movi	r3,1
 4001ddc:	00000206 	br	4001de8 <__umodsi3+0x20>
 4001de0:	30000c26 	beq	r6,zero,4001e14 <__umodsi3+0x4c>
 4001de4:	28000516 	blt	r5,zero,4001dfc <__umodsi3+0x34>
 4001de8:	294b883a 	add	r5,r5,r5
 4001dec:	31bfffc4 	addi	r6,r6,-1
 4001df0:	18c7883a 	add	r3,r3,r3
 4001df4:	293ffa36 	bltu	r5,r4,4001de0 <__umodsi3+0x18>
 4001df8:	18000626 	beq	r3,zero,4001e14 <__umodsi3+0x4c>
 4001dfc:	1806d07a 	srli	r3,r3,1
 4001e00:	11400136 	bltu	r2,r5,4001e08 <__umodsi3+0x40>
 4001e04:	1145c83a 	sub	r2,r2,r5
 4001e08:	280ad07a 	srli	r5,r5,1
 4001e0c:	183ffb1e 	bne	r3,zero,4001dfc <__umodsi3+0x34>
 4001e10:	f800283a 	ret
 4001e14:	2005883a 	mov	r2,r4
 4001e18:	f800283a 	ret
 4001e1c:	00c00044 	movi	r3,1
 4001e20:	003ff606 	br	4001dfc <__umodsi3+0x34>

04001e24 <__mulsi3>:
 4001e24:	0005883a 	mov	r2,zero
 4001e28:	20000726 	beq	r4,zero,4001e48 <__mulsi3+0x24>
 4001e2c:	20c0004c 	andi	r3,r4,1
 4001e30:	2008d07a 	srli	r4,r4,1
 4001e34:	18000126 	beq	r3,zero,4001e3c <__mulsi3+0x18>
 4001e38:	1145883a 	add	r2,r2,r5
 4001e3c:	294b883a 	add	r5,r5,r5
 4001e40:	203ffa1e 	bne	r4,zero,4001e2c <__mulsi3+0x8>
 4001e44:	f800283a 	ret
 4001e48:	f800283a 	ret

04001e4c <__divsf3>:
 4001e4c:	defff604 	addi	sp,sp,-40
 4001e50:	2006d5fa 	srli	r3,r4,23
 4001e54:	dd400615 	stw	r21,24(sp)
 4001e58:	202ad7fa 	srli	r21,r4,31
 4001e5c:	00802034 	movhi	r2,128
 4001e60:	dc800315 	stw	r18,12(sp)
 4001e64:	dc000115 	stw	r16,4(sp)
 4001e68:	10bfffc4 	addi	r2,r2,-1
 4001e6c:	dfc00915 	stw	ra,36(sp)
 4001e70:	ddc00815 	stw	r23,32(sp)
 4001e74:	dd800715 	stw	r22,28(sp)
 4001e78:	dd000515 	stw	r20,20(sp)
 4001e7c:	dcc00415 	stw	r19,16(sp)
 4001e80:	dc400215 	stw	r17,8(sp)
 4001e84:	18c03fcc 	andi	r3,r3,255
 4001e88:	1120703a 	and	r16,r2,r4
 4001e8c:	a825883a 	mov	r18,r21
 4001e90:	18007b26 	beq	r3,zero,4002080 <__divsf3+0x234>
 4001e94:	18803fe0 	cmpeqi	r2,r3,255
 4001e98:	10007e1e 	bne	r2,zero,4002094 <__divsf3+0x248>
 4001e9c:	800490fa 	slli	r2,r16,3
 4001ea0:	1d3fe044 	addi	r20,r3,-127
 4001ea4:	0023883a 	mov	r17,zero
 4001ea8:	14010034 	orhi	r16,r2,1024
 4001eac:	002d883a 	mov	r22,zero
 4001eb0:	2806d5fa 	srli	r3,r5,23
 4001eb4:	01002034 	movhi	r4,128
 4001eb8:	213fffc4 	addi	r4,r4,-1
 4001ebc:	18c03fcc 	andi	r3,r3,255
 4001ec0:	282ed7fa 	srli	r23,r5,31
 4001ec4:	2166703a 	and	r19,r4,r5
 4001ec8:	18005326 	beq	r3,zero,4002018 <__divsf3+0x1cc>
 4001ecc:	18803fe0 	cmpeqi	r2,r3,255
 4001ed0:	10004d1e 	bne	r2,zero,4002008 <__divsf3+0x1bc>
 4001ed4:	980a90fa 	slli	r5,r19,3
 4001ed8:	18ffe044 	addi	r3,r3,-127
 4001edc:	a0e9c83a 	sub	r20,r20,r3
 4001ee0:	2cc10034 	orhi	r19,r5,1024
 4001ee4:	0007883a 	mov	r3,zero
 4001ee8:	1c62b03a 	or	r17,r3,r17
 4001eec:	882290ba 	slli	r17,r17,2
 4001ef0:	00810034 	movhi	r2,1024
 4001ef4:	bd6af03a 	xor	r21,r23,r21
 4001ef8:	8885883a 	add	r2,r17,r2
 4001efc:	1087c217 	ldw	r2,7944(r2)
 4001f00:	a809883a 	mov	r4,r21
 4001f04:	1000683a 	jmp	r2
 4001f08:	040021cc 	andi	r16,zero,135
 4001f0c:	0400210c 	andi	r16,zero,132
 4001f10:	04001fbc 	xorhi	r16,zero,126
 4001f14:	04001f4c 	andi	r16,zero,125
 4001f18:	04001fbc 	xorhi	r16,zero,126
 4001f1c:	04002178 	rdprs	r16,zero,133
 4001f20:	04001fbc 	xorhi	r16,zero,126
 4001f24:	04001f4c 	andi	r16,zero,125
 4001f28:	0400210c 	andi	r16,zero,132
 4001f2c:	0400210c 	andi	r16,zero,132
 4001f30:	04002178 	rdprs	r16,zero,133
 4001f34:	04001f4c 	andi	r16,zero,125
 4001f38:	04001f58 	cmpnei	r16,zero,125
 4001f3c:	04001f58 	cmpnei	r16,zero,125
 4001f40:	04001f58 	cmpnei	r16,zero,125
 4001f44:	04002190 	cmplti	r16,zero,134
 4001f48:	0027883a 	mov	r19,zero
 4001f4c:	b825883a 	mov	r18,r23
 4001f50:	9821883a 	mov	r16,r19
 4001f54:	182d883a 	mov	r22,r3
 4001f58:	b08000a0 	cmpeqi	r2,r22,2
 4001f5c:	1000831e 	bne	r2,zero,400216c <__divsf3+0x320>
 4001f60:	b08000e0 	cmpeqi	r2,r22,3
 4001f64:	1000941e 	bne	r2,zero,40021b8 <__divsf3+0x36c>
 4001f68:	b5800060 	cmpeqi	r22,r22,1
 4001f6c:	b000141e 	bne	r22,zero,4001fc0 <__divsf3+0x174>
 4001f70:	a0801fc4 	addi	r2,r20,127
 4001f74:	0080690e 	bge	zero,r2,400211c <__divsf3+0x2d0>
 4001f78:	80c001cc 	andi	r3,r16,7
 4001f7c:	18000426 	beq	r3,zero,4001f90 <__divsf3+0x144>
 4001f80:	80c003cc 	andi	r3,r16,15
 4001f84:	18c00120 	cmpeqi	r3,r3,4
 4001f88:	1800011e 	bne	r3,zero,4001f90 <__divsf3+0x144>
 4001f8c:	84000104 	addi	r16,r16,4
 4001f90:	80c2002c 	andhi	r3,r16,2048
 4001f94:	18000426 	beq	r3,zero,4001fa8 <__divsf3+0x15c>
 4001f98:	00be0034 	movhi	r2,63488
 4001f9c:	10bfffc4 	addi	r2,r2,-1
 4001fa0:	80a0703a 	and	r16,r16,r2
 4001fa4:	a0802004 	addi	r2,r20,128
 4001fa8:	10c03fc8 	cmpgei	r3,r2,255
 4001fac:	18006f1e 	bne	r3,zero,400216c <__divsf3+0x320>
 4001fb0:	802091ba 	slli	r16,r16,6
 4001fb4:	8020d27a 	srli	r16,r16,9
 4001fb8:	00000306 	br	4001fc8 <__divsf3+0x17c>
 4001fbc:	a825883a 	mov	r18,r21
 4001fc0:	0005883a 	mov	r2,zero
 4001fc4:	0021883a 	mov	r16,zero
 4001fc8:	10803fcc 	andi	r2,r2,255
 4001fcc:	100495fa 	slli	r2,r2,23
 4001fd0:	902497fa 	slli	r18,r18,31
 4001fd4:	1404b03a 	or	r2,r2,r16
 4001fd8:	1484b03a 	or	r2,r2,r18
 4001fdc:	dfc00917 	ldw	ra,36(sp)
 4001fe0:	ddc00817 	ldw	r23,32(sp)
 4001fe4:	dd800717 	ldw	r22,28(sp)
 4001fe8:	dd400617 	ldw	r21,24(sp)
 4001fec:	dd000517 	ldw	r20,20(sp)
 4001ff0:	dcc00417 	ldw	r19,16(sp)
 4001ff4:	dc800317 	ldw	r18,12(sp)
 4001ff8:	dc400217 	ldw	r17,8(sp)
 4001ffc:	dc000117 	ldw	r16,4(sp)
 4002000:	dec00a04 	addi	sp,sp,40
 4002004:	f800283a 	ret
 4002008:	a53fc044 	addi	r20,r20,-255
 400200c:	98003d1e 	bne	r19,zero,4002104 <__divsf3+0x2b8>
 4002010:	00c00084 	movi	r3,2
 4002014:	00000206 	br	4002020 <__divsf3+0x1d4>
 4002018:	9800321e 	bne	r19,zero,40020e4 <__divsf3+0x298>
 400201c:	00c00044 	movi	r3,1
 4002020:	1c62b03a 	or	r17,r3,r17
 4002024:	882290ba 	slli	r17,r17,2
 4002028:	00810034 	movhi	r2,1024
 400202c:	bd6af03a 	xor	r21,r23,r21
 4002030:	8885883a 	add	r2,r17,r2
 4002034:	10881017 	ldw	r2,8256(r2)
 4002038:	a809883a 	mov	r4,r21
 400203c:	1000683a 	jmp	r2
 4002040:	0400210c 	andi	r16,zero,132
 4002044:	0400210c 	andi	r16,zero,132
 4002048:	04001fbc 	xorhi	r16,zero,126
 400204c:	04001f48 	cmpgei	r16,zero,125
 4002050:	04001fbc 	xorhi	r16,zero,126
 4002054:	04002178 	rdprs	r16,zero,133
 4002058:	04001fbc 	xorhi	r16,zero,126
 400205c:	04001f48 	cmpgei	r16,zero,125
 4002060:	0400210c 	andi	r16,zero,132
 4002064:	0400210c 	andi	r16,zero,132
 4002068:	04002178 	rdprs	r16,zero,133
 400206c:	04001f48 	cmpgei	r16,zero,125
 4002070:	04001f58 	cmpnei	r16,zero,125
 4002074:	04001f58 	cmpnei	r16,zero,125
 4002078:	04001f58 	cmpnei	r16,zero,125
 400207c:	0400218c 	andi	r16,zero,134
 4002080:	80000d1e 	bne	r16,zero,40020b8 <__divsf3+0x26c>
 4002084:	04400104 	movi	r17,4
 4002088:	0029883a 	mov	r20,zero
 400208c:	05800044 	movi	r22,1
 4002090:	003f8706 	br	4001eb0 <__divsf3+0x64>
 4002094:	8000041e 	bne	r16,zero,40020a8 <__divsf3+0x25c>
 4002098:	04400204 	movi	r17,8
 400209c:	05003fc4 	movi	r20,255
 40020a0:	05800084 	movi	r22,2
 40020a4:	003f8206 	br	4001eb0 <__divsf3+0x64>
 40020a8:	04400304 	movi	r17,12
 40020ac:	05003fc4 	movi	r20,255
 40020b0:	058000c4 	movi	r22,3
 40020b4:	003f7e06 	br	4001eb0 <__divsf3+0x64>
 40020b8:	8009883a 	mov	r4,r16
 40020bc:	d9400015 	stw	r5,0(sp)
 40020c0:	40025880 	call	4002588 <__clzsi2>
 40020c4:	10fffec4 	addi	r3,r2,-5
 40020c8:	80e0983a 	sll	r16,r16,r3
 40020cc:	00ffe284 	movi	r3,-118
 40020d0:	d9400017 	ldw	r5,0(sp)
 40020d4:	18a9c83a 	sub	r20,r3,r2
 40020d8:	0023883a 	mov	r17,zero
 40020dc:	002d883a 	mov	r22,zero
 40020e0:	003f7306 	br	4001eb0 <__divsf3+0x64>
 40020e4:	9809883a 	mov	r4,r19
 40020e8:	40025880 	call	4002588 <__clzsi2>
 40020ec:	a087883a 	add	r3,r20,r2
 40020f0:	113ffec4 	addi	r4,r2,-5
 40020f4:	1d001d84 	addi	r20,r3,118
 40020f8:	9926983a 	sll	r19,r19,r4
 40020fc:	0007883a 	mov	r3,zero
 4002100:	003f7906 	br	4001ee8 <__divsf3+0x9c>
 4002104:	00c000c4 	movi	r3,3
 4002108:	003f7706 	br	4001ee8 <__divsf3+0x9c>
 400210c:	2025883a 	mov	r18,r4
 4002110:	00bfffc4 	movi	r2,-1
 4002114:	0021883a 	mov	r16,zero
 4002118:	003fab06 	br	4001fc8 <__divsf3+0x17c>
 400211c:	00c00044 	movi	r3,1
 4002120:	1885c83a 	sub	r2,r3,r2
 4002124:	10c00708 	cmpgei	r3,r2,28
 4002128:	183fa51e 	bne	r3,zero,4001fc0 <__divsf3+0x174>
 400212c:	a0c02784 	addi	r3,r20,158
 4002130:	80c6983a 	sll	r3,r16,r3
 4002134:	8084d83a 	srl	r2,r16,r2
 4002138:	1820c03a 	cmpne	r16,r3,zero
 400213c:	1404b03a 	or	r2,r2,r16
 4002140:	10c001cc 	andi	r3,r2,7
 4002144:	18000426 	beq	r3,zero,4002158 <__divsf3+0x30c>
 4002148:	10c003cc 	andi	r3,r2,15
 400214c:	18c00120 	cmpeqi	r3,r3,4
 4002150:	1800011e 	bne	r3,zero,4002158 <__divsf3+0x30c>
 4002154:	10800104 	addi	r2,r2,4
 4002158:	10c1002c 	andhi	r3,r2,1024
 400215c:	18003426 	beq	r3,zero,4002230 <__divsf3+0x3e4>
 4002160:	00800044 	movi	r2,1
 4002164:	0021883a 	mov	r16,zero
 4002168:	003f9706 	br	4001fc8 <__divsf3+0x17c>
 400216c:	00bfffc4 	movi	r2,-1
 4002170:	0021883a 	mov	r16,zero
 4002174:	003f9406 	br	4001fc8 <__divsf3+0x17c>
 4002178:	04002034 	movhi	r16,128
 400217c:	0025883a 	mov	r18,zero
 4002180:	843fffc4 	addi	r16,r16,-1
 4002184:	00bfffc4 	movi	r2,-1
 4002188:	003f8f06 	br	4001fc8 <__divsf3+0x17c>
 400218c:	0027883a 	mov	r19,zero
 4002190:	8080102c 	andhi	r2,r16,64
 4002194:	10000826 	beq	r2,zero,40021b8 <__divsf3+0x36c>
 4002198:	9880102c 	andhi	r2,r19,64
 400219c:	1000061e 	bne	r2,zero,40021b8 <__divsf3+0x36c>
 40021a0:	00802034 	movhi	r2,128
 40021a4:	9c001034 	orhi	r16,r19,64
 40021a8:	10bfffc4 	addi	r2,r2,-1
 40021ac:	80a0703a 	and	r16,r16,r2
 40021b0:	b825883a 	mov	r18,r23
 40021b4:	003ff306 	br	4002184 <__divsf3+0x338>
 40021b8:	00802034 	movhi	r2,128
 40021bc:	84001034 	orhi	r16,r16,64
 40021c0:	10bfffc4 	addi	r2,r2,-1
 40021c4:	80a0703a 	and	r16,r16,r2
 40021c8:	003fee06 	br	4002184 <__divsf3+0x338>
 40021cc:	8004917a 	slli	r2,r16,5
 40021d0:	980a917a 	slli	r5,r19,5
 40021d4:	1140122e 	bgeu	r2,r5,4002220 <__divsf3+0x3d4>
 40021d8:	a53fffc4 	addi	r20,r20,-1
 40021dc:	010006c4 	movi	r4,27
 40021e0:	0021883a 	mov	r16,zero
 40021e4:	1007883a 	mov	r3,r2
 40021e8:	213fffc4 	addi	r4,r4,-1
 40021ec:	1085883a 	add	r2,r2,r2
 40021f0:	8421883a 	add	r16,r16,r16
 40021f4:	18000116 	blt	r3,zero,40021fc <__divsf3+0x3b0>
 40021f8:	11400236 	bltu	r2,r5,4002204 <__divsf3+0x3b8>
 40021fc:	1145c83a 	sub	r2,r2,r5
 4002200:	84000054 	ori	r16,r16,1
 4002204:	203ff71e 	bne	r4,zero,40021e4 <__divsf3+0x398>
 4002208:	1004c03a 	cmpne	r2,r2,zero
 400220c:	1420b03a 	or	r16,r2,r16
 4002210:	a0801fc4 	addi	r2,r20,127
 4002214:	a825883a 	mov	r18,r21
 4002218:	00bf5716 	blt	zero,r2,4001f78 <__divsf3+0x12c>
 400221c:	003fbf06 	br	400211c <__divsf3+0x2d0>
 4002220:	1145c83a 	sub	r2,r2,r5
 4002224:	01000684 	movi	r4,26
 4002228:	04000044 	movi	r16,1
 400222c:	003fed06 	br	40021e4 <__divsf3+0x398>
 4002230:	102091ba 	slli	r16,r2,6
 4002234:	0005883a 	mov	r2,zero
 4002238:	8020d27a 	srli	r16,r16,9
 400223c:	003f6206 	br	4001fc8 <__divsf3+0x17c>

04002240 <__gesf2>:
 4002240:	200cd5fa 	srli	r6,r4,23
 4002244:	280ed5fa 	srli	r7,r5,23
 4002248:	00c02034 	movhi	r3,128
 400224c:	31803fcc 	andi	r6,r6,255
 4002250:	18ffffc4 	addi	r3,r3,-1
 4002254:	32003fd8 	cmpnei	r8,r6,255
 4002258:	2012d7fa 	srli	r9,r4,31
 400225c:	2804d7fa 	srli	r2,r5,31
 4002260:	1908703a 	and	r4,r3,r4
 4002264:	1946703a 	and	r3,r3,r5
 4002268:	39403fcc 	andi	r5,r7,255
 400226c:	40000826 	beq	r8,zero,4002290 <__gesf2+0x50>
 4002270:	29c03fd8 	cmpnei	r7,r5,255
 4002274:	38000926 	beq	r7,zero,400229c <__gesf2+0x5c>
 4002278:	3000121e 	bne	r6,zero,40022c4 <__gesf2+0x84>
 400227c:	28000e1e 	bne	r5,zero,40022b8 <__gesf2+0x78>
 4002280:	18000d1e 	bne	r3,zero,40022b8 <__gesf2+0x78>
 4002284:	2000081e 	bne	r4,zero,40022a8 <__gesf2+0x68>
 4002288:	0005883a 	mov	r2,zero
 400228c:	f800283a 	ret
 4002290:	2000171e 	bne	r4,zero,40022f0 <__gesf2+0xb0>
 4002294:	29c03fe0 	cmpeqi	r7,r5,255
 4002298:	38000a26 	beq	r7,zero,40022c4 <__gesf2+0x84>
 400229c:	1800141e 	bne	r3,zero,40022f0 <__gesf2+0xb0>
 40022a0:	30000526 	beq	r6,zero,40022b8 <__gesf2+0x78>
 40022a4:	48800a26 	beq	r9,r2,40022d0 <__gesf2+0x90>
 40022a8:	00800044 	movi	r2,1
 40022ac:	48000426 	beq	r9,zero,40022c0 <__gesf2+0x80>
 40022b0:	00bfffc4 	movi	r2,-1
 40022b4:	f800283a 	ret
 40022b8:	203ffa1e 	bne	r4,zero,40022a4 <__gesf2+0x64>
 40022bc:	103ffc26 	beq	r2,zero,40022b0 <__gesf2+0x70>
 40022c0:	f800283a 	ret
 40022c4:	283ff71e 	bne	r5,zero,40022a4 <__gesf2+0x64>
 40022c8:	183ff61e 	bne	r3,zero,40022a4 <__gesf2+0x64>
 40022cc:	003ff606 	br	40022a8 <__gesf2+0x68>
 40022d0:	29800416 	blt	r5,r6,40022e4 <__gesf2+0xa4>
 40022d4:	317ff916 	blt	r6,r5,40022bc <__gesf2+0x7c>
 40022d8:	19000236 	bltu	r3,r4,40022e4 <__gesf2+0xa4>
 40022dc:	20ffea2e 	bgeu	r4,r3,4002288 <__gesf2+0x48>
 40022e0:	003ff606 	br	40022bc <__gesf2+0x7c>
 40022e4:	103ff21e 	bne	r2,zero,40022b0 <__gesf2+0x70>
 40022e8:	00800044 	movi	r2,1
 40022ec:	f800283a 	ret
 40022f0:	00bfff84 	movi	r2,-2
 40022f4:	f800283a 	ret

040022f8 <__fixsfsi>:
 40022f8:	200ad5fa 	srli	r5,r4,23
 40022fc:	00c02034 	movhi	r3,128
 4002300:	18ffffc4 	addi	r3,r3,-1
 4002304:	29403fcc 	andi	r5,r5,255
 4002308:	29801fd0 	cmplti	r6,r5,127
 400230c:	200ed7fa 	srli	r7,r4,31
 4002310:	1906703a 	and	r3,r3,r4
 4002314:	3000061e 	bne	r6,zero,4002330 <__fixsfsi+0x38>
 4002318:	28802790 	cmplti	r2,r5,158
 400231c:	1000061e 	bne	r2,zero,4002338 <__fixsfsi+0x40>
 4002320:	00a00034 	movhi	r2,32768
 4002324:	10bfffc4 	addi	r2,r2,-1
 4002328:	3885883a 	add	r2,r7,r2
 400232c:	f800283a 	ret
 4002330:	0005883a 	mov	r2,zero
 4002334:	f800283a 	ret
 4002338:	28802590 	cmplti	r2,r5,150
 400233c:	18c02034 	orhi	r3,r3,128
 4002340:	1000051e 	bne	r2,zero,4002358 <__fixsfsi+0x60>
 4002344:	28bfda84 	addi	r2,r5,-150
 4002348:	1884983a 	sll	r2,r3,r2
 400234c:	383ff926 	beq	r7,zero,4002334 <__fixsfsi+0x3c>
 4002350:	0085c83a 	sub	r2,zero,r2
 4002354:	f800283a 	ret
 4002358:	00802584 	movi	r2,150
 400235c:	1145c83a 	sub	r2,r2,r5
 4002360:	1884d83a 	srl	r2,r3,r2
 4002364:	003ff906 	br	400234c <__fixsfsi+0x54>

04002368 <__floatsisf>:
 4002368:	defffd04 	addi	sp,sp,-12
 400236c:	dfc00215 	stw	ra,8(sp)
 4002370:	dc400115 	stw	r17,4(sp)
 4002374:	dc000015 	stw	r16,0(sp)
 4002378:	20001226 	beq	r4,zero,40023c4 <__floatsisf+0x5c>
 400237c:	2022d7fa 	srli	r17,r4,31
 4002380:	2021883a 	mov	r16,r4
 4002384:	20003816 	blt	r4,zero,4002468 <__floatsisf+0x100>
 4002388:	8009883a 	mov	r4,r16
 400238c:	40025880 	call	4002588 <__clzsi2>
 4002390:	1009883a 	mov	r4,r2
 4002394:	00802784 	movi	r2,158
 4002398:	1105c83a 	sub	r2,r2,r4
 400239c:	10c025c8 	cmpgei	r3,r2,151
 40023a0:	1800151e 	bne	r3,zero,40023f8 <__floatsisf+0x90>
 40023a4:	20c00248 	cmpgei	r3,r4,9
 40023a8:	18003126 	beq	r3,zero,4002470 <__floatsisf+0x108>
 40023ac:	213ffe04 	addi	r4,r4,-8
 40023b0:	8120983a 	sll	r16,r16,r4
 40023b4:	00c02034 	movhi	r3,128
 40023b8:	18ffffc4 	addi	r3,r3,-1
 40023bc:	80e0703a 	and	r16,r16,r3
 40023c0:	00000306 	br	40023d0 <__floatsisf+0x68>
 40023c4:	0023883a 	mov	r17,zero
 40023c8:	0005883a 	mov	r2,zero
 40023cc:	0021883a 	mov	r16,zero
 40023d0:	10803fcc 	andi	r2,r2,255
 40023d4:	100495fa 	slli	r2,r2,23
 40023d8:	882297fa 	slli	r17,r17,31
 40023dc:	1404b03a 	or	r2,r2,r16
 40023e0:	1444b03a 	or	r2,r2,r17
 40023e4:	dfc00217 	ldw	ra,8(sp)
 40023e8:	dc400117 	ldw	r17,4(sp)
 40023ec:	dc000017 	ldw	r16,0(sp)
 40023f0:	dec00304 	addi	sp,sp,12
 40023f4:	f800283a 	ret
 40023f8:	10c02690 	cmplti	r3,r2,154
 40023fc:	1800071e 	bne	r3,zero,400241c <__floatsisf+0xb4>
 4002400:	20c006c4 	addi	r3,r4,27
 4002404:	01400144 	movi	r5,5
 4002408:	80c6983a 	sll	r3,r16,r3
 400240c:	290bc83a 	sub	r5,r5,r4
 4002410:	814ad83a 	srl	r5,r16,r5
 4002414:	1806c03a 	cmpne	r3,r3,zero
 4002418:	28e0b03a 	or	r16,r5,r3
 400241c:	20c00188 	cmpgei	r3,r4,6
 4002420:	1800171e 	bne	r3,zero,4002480 <__floatsisf+0x118>
 4002424:	00ff0034 	movhi	r3,64512
 4002428:	18ffffc4 	addi	r3,r3,-1
 400242c:	818001cc 	andi	r6,r16,7
 4002430:	80ca703a 	and	r5,r16,r3
 4002434:	30000926 	beq	r6,zero,400245c <__floatsisf+0xf4>
 4002438:	818003cc 	andi	r6,r16,15
 400243c:	31800120 	cmpeqi	r6,r6,4
 4002440:	3000061e 	bne	r6,zero,400245c <__floatsisf+0xf4>
 4002444:	29400104 	addi	r5,r5,4
 4002448:	2981002c 	andhi	r6,r5,1024
 400244c:	30000326 	beq	r6,zero,400245c <__floatsisf+0xf4>
 4002450:	28ca703a 	and	r5,r5,r3
 4002454:	00c027c4 	movi	r3,159
 4002458:	1905c83a 	sub	r2,r3,r4
 400245c:	282091ba 	slli	r16,r5,6
 4002460:	8020d27a 	srli	r16,r16,9
 4002464:	003fda06 	br	40023d0 <__floatsisf+0x68>
 4002468:	0121c83a 	sub	r16,zero,r4
 400246c:	003fc606 	br	4002388 <__floatsisf+0x20>
 4002470:	01002034 	movhi	r4,128
 4002474:	213fffc4 	addi	r4,r4,-1
 4002478:	8120703a 	and	r16,r16,r4
 400247c:	003fd406 	br	40023d0 <__floatsisf+0x68>
 4002480:	20fffec4 	addi	r3,r4,-5
 4002484:	80e0983a 	sll	r16,r16,r3
 4002488:	003fe606 	br	4002424 <__floatsisf+0xbc>

0400248c <__floatunsisf>:
 400248c:	defffe04 	addi	sp,sp,-8
 4002490:	dfc00115 	stw	ra,4(sp)
 4002494:	dc000015 	stw	r16,0(sp)
 4002498:	20000f26 	beq	r4,zero,40024d8 <__floatunsisf+0x4c>
 400249c:	2021883a 	mov	r16,r4
 40024a0:	40025880 	call	4002588 <__clzsi2>
 40024a4:	1009883a 	mov	r4,r2
 40024a8:	00802784 	movi	r2,158
 40024ac:	1105c83a 	sub	r2,r2,r4
 40024b0:	10c025c8 	cmpgei	r3,r2,151
 40024b4:	1800111e 	bne	r3,zero,40024fc <__floatunsisf+0x70>
 40024b8:	20c00248 	cmpgei	r3,r4,9
 40024bc:	18002b26 	beq	r3,zero,400256c <__floatunsisf+0xe0>
 40024c0:	213ffe04 	addi	r4,r4,-8
 40024c4:	8120983a 	sll	r16,r16,r4
 40024c8:	00c02034 	movhi	r3,128
 40024cc:	18ffffc4 	addi	r3,r3,-1
 40024d0:	80e0703a 	and	r16,r16,r3
 40024d4:	00000206 	br	40024e0 <__floatunsisf+0x54>
 40024d8:	0005883a 	mov	r2,zero
 40024dc:	0021883a 	mov	r16,zero
 40024e0:	10803fcc 	andi	r2,r2,255
 40024e4:	100495fa 	slli	r2,r2,23
 40024e8:	1404b03a 	or	r2,r2,r16
 40024ec:	dfc00117 	ldw	ra,4(sp)
 40024f0:	dc000017 	ldw	r16,0(sp)
 40024f4:	dec00204 	addi	sp,sp,8
 40024f8:	f800283a 	ret
 40024fc:	10c02690 	cmplti	r3,r2,154
 4002500:	1800071e 	bne	r3,zero,4002520 <__floatunsisf+0x94>
 4002504:	20c006c4 	addi	r3,r4,27
 4002508:	80ca983a 	sll	r5,r16,r3
 400250c:	00c00144 	movi	r3,5
 4002510:	1907c83a 	sub	r3,r3,r4
 4002514:	80e0d83a 	srl	r16,r16,r3
 4002518:	2806c03a 	cmpne	r3,r5,zero
 400251c:	1c20b03a 	or	r16,r3,r16
 4002520:	20c00188 	cmpgei	r3,r4,6
 4002524:	1800151e 	bne	r3,zero,400257c <__floatunsisf+0xf0>
 4002528:	00ff0034 	movhi	r3,64512
 400252c:	18ffffc4 	addi	r3,r3,-1
 4002530:	818001cc 	andi	r6,r16,7
 4002534:	80ca703a 	and	r5,r16,r3
 4002538:	30000926 	beq	r6,zero,4002560 <__floatunsisf+0xd4>
 400253c:	840003cc 	andi	r16,r16,15
 4002540:	84000120 	cmpeqi	r16,r16,4
 4002544:	8000061e 	bne	r16,zero,4002560 <__floatunsisf+0xd4>
 4002548:	29400104 	addi	r5,r5,4
 400254c:	2981002c 	andhi	r6,r5,1024
 4002550:	30000326 	beq	r6,zero,4002560 <__floatunsisf+0xd4>
 4002554:	28ca703a 	and	r5,r5,r3
 4002558:	00c027c4 	movi	r3,159
 400255c:	1905c83a 	sub	r2,r3,r4
 4002560:	282091ba 	slli	r16,r5,6
 4002564:	8020d27a 	srli	r16,r16,9
 4002568:	003fdd06 	br	40024e0 <__floatunsisf+0x54>
 400256c:	01002034 	movhi	r4,128
 4002570:	213fffc4 	addi	r4,r4,-1
 4002574:	8120703a 	and	r16,r16,r4
 4002578:	003fd906 	br	40024e0 <__floatunsisf+0x54>
 400257c:	20fffec4 	addi	r3,r4,-5
 4002580:	80e0983a 	sll	r16,r16,r3
 4002584:	003fe806 	br	4002528 <__floatunsisf+0x9c>

04002588 <__clzsi2>:
 4002588:	00bfffd4 	movui	r2,65535
 400258c:	11000436 	bltu	r2,r4,40025a0 <__clzsi2+0x18>
 4002590:	20804030 	cmpltui	r2,r4,256
 4002594:	10000e26 	beq	r2,zero,40025d0 <__clzsi2+0x48>
 4002598:	01400804 	movi	r5,32
 400259c:	00000406 	br	40025b0 <__clzsi2+0x28>
 40025a0:	00804034 	movhi	r2,256
 40025a4:	20800736 	bltu	r4,r2,40025c4 <__clzsi2+0x3c>
 40025a8:	2008d63a 	srli	r4,r4,24
 40025ac:	01400204 	movi	r5,8
 40025b0:	00c10074 	movhi	r3,1025
 40025b4:	20c7883a 	add	r3,r4,r3
 40025b8:	18884403 	ldbu	r2,8464(r3)
 40025bc:	2885c83a 	sub	r2,r5,r2
 40025c0:	f800283a 	ret
 40025c4:	2008d43a 	srli	r4,r4,16
 40025c8:	01400404 	movi	r5,16
 40025cc:	003ff806 	br	40025b0 <__clzsi2+0x28>
 40025d0:	2008d23a 	srli	r4,r4,8
 40025d4:	01400604 	movi	r5,24
 40025d8:	003ff506 	br	40025b0 <__clzsi2+0x28>

040025dc <_sprintf_r>:
 40025dc:	deffe404 	addi	sp,sp,-112
 40025e0:	2807883a 	mov	r3,r5
 40025e4:	dfc01a15 	stw	ra,104(sp)
 40025e8:	d9c01b15 	stw	r7,108(sp)
 40025ec:	00a00034 	movhi	r2,32768
 40025f0:	023ffff4 	movhi	r8,65535
 40025f4:	10bfffc4 	addi	r2,r2,-1
 40025f8:	42008204 	addi	r8,r8,520
 40025fc:	d9c01b04 	addi	r7,sp,108
 4002600:	d80b883a 	mov	r5,sp
 4002604:	d8c00015 	stw	r3,0(sp)
 4002608:	d8c00415 	stw	r3,16(sp)
 400260c:	d8800515 	stw	r2,20(sp)
 4002610:	d8800215 	stw	r2,8(sp)
 4002614:	da000315 	stw	r8,12(sp)
 4002618:	40026940 	call	4002694 <___svfprintf_internal_r>
 400261c:	d8c00017 	ldw	r3,0(sp)
 4002620:	18000005 	stb	zero,0(r3)
 4002624:	dfc01a17 	ldw	ra,104(sp)
 4002628:	dec01c04 	addi	sp,sp,112
 400262c:	f800283a 	ret

04002630 <sprintf>:
 4002630:	deffe304 	addi	sp,sp,-116
 4002634:	2007883a 	mov	r3,r4
 4002638:	dfc01a15 	stw	ra,104(sp)
 400263c:	d9801b15 	stw	r6,108(sp)
 4002640:	d9c01c15 	stw	r7,112(sp)
 4002644:	00810074 	movhi	r2,1025
 4002648:	110cad17 	ldw	r4,12980(r2)
 400264c:	023ffff4 	movhi	r8,65535
 4002650:	00a00034 	movhi	r2,32768
 4002654:	10bfffc4 	addi	r2,r2,-1
 4002658:	42008204 	addi	r8,r8,520
 400265c:	280d883a 	mov	r6,r5
 4002660:	d9c01b04 	addi	r7,sp,108
 4002664:	d80b883a 	mov	r5,sp
 4002668:	d8c00015 	stw	r3,0(sp)
 400266c:	d8c00415 	stw	r3,16(sp)
 4002670:	d8800515 	stw	r2,20(sp)
 4002674:	d8800215 	stw	r2,8(sp)
 4002678:	da000315 	stw	r8,12(sp)
 400267c:	40026940 	call	4002694 <___svfprintf_internal_r>
 4002680:	d8c00017 	ldw	r3,0(sp)
 4002684:	18000005 	stb	zero,0(r3)
 4002688:	dfc01a17 	ldw	ra,104(sp)
 400268c:	dec01d04 	addi	sp,sp,116
 4002690:	f800283a 	ret

04002694 <___svfprintf_internal_r>:
 4002694:	deffbf04 	addi	sp,sp,-260
 4002698:	dfc04015 	stw	ra,256(sp)
 400269c:	dd803d15 	stw	r22,244(sp)
 40026a0:	dcc03a15 	stw	r19,232(sp)
 40026a4:	dc803915 	stw	r18,228(sp)
 40026a8:	2027883a 	mov	r19,r4
 40026ac:	2825883a 	mov	r18,r5
 40026b0:	302d883a 	mov	r22,r6
 40026b4:	d9c00615 	stw	r7,24(sp)
 40026b8:	df003f15 	stw	fp,252(sp)
 40026bc:	ddc03e15 	stw	r23,248(sp)
 40026c0:	dd403c15 	stw	r21,240(sp)
 40026c4:	dd003b15 	stw	r20,236(sp)
 40026c8:	dc403815 	stw	r17,224(sp)
 40026cc:	dc003715 	stw	r16,220(sp)
 40026d0:	40060940 	call	4006094 <_localeconv_r>
 40026d4:	10800017 	ldw	r2,0(r2)
 40026d8:	1009883a 	mov	r4,r2
 40026dc:	d8800d15 	stw	r2,52(sp)
 40026e0:	4007ca40 	call	4007ca4 <strlen>
 40026e4:	90c0030b 	ldhu	r3,12(r18)
 40026e8:	d8800c15 	stw	r2,48(sp)
 40026ec:	18c0200c 	andi	r3,r3,128
 40026f0:	18000226 	beq	r3,zero,40026fc <___svfprintf_internal_r+0x68>
 40026f4:	90800417 	ldw	r2,16(r18)
 40026f8:	10051426 	beq	r2,zero,4003b4c <___svfprintf_internal_r+0x14b8>
 40026fc:	d8802704 	addi	r2,sp,156
 4002700:	b02f883a 	mov	r23,r22
 4002704:	d8801a15 	stw	r2,104(sp)
 4002708:	d8001c15 	stw	zero,112(sp)
 400270c:	d8001b15 	stw	zero,108(sp)
 4002710:	d8000815 	stw	zero,32(sp)
 4002714:	d8000915 	stw	zero,36(sp)
 4002718:	d8000a15 	stw	zero,40(sp)
 400271c:	d8000b15 	stw	zero,44(sp)
 4002720:	d8001015 	stw	zero,64(sp)
 4002724:	d8000515 	stw	zero,20(sp)
 4002728:	102d883a 	mov	r22,r2
 400272c:	b8800007 	ldb	r2,0(r23)
 4002730:	1000d726 	beq	r2,zero,4002a90 <___svfprintf_internal_r+0x3fc>
 4002734:	b821883a 	mov	r16,r23
 4002738:	00000306 	br	4002748 <___svfprintf_internal_r+0xb4>
 400273c:	80800047 	ldb	r2,1(r16)
 4002740:	84000044 	addi	r16,r16,1
 4002744:	10010826 	beq	r2,zero,4002b68 <___svfprintf_internal_r+0x4d4>
 4002748:	10800958 	cmpnei	r2,r2,37
 400274c:	103ffb1e 	bne	r2,zero,400273c <___svfprintf_internal_r+0xa8>
 4002750:	85e3c83a 	sub	r17,r16,r23
 4002754:	85c1061e 	bne	r16,r23,4002b70 <___svfprintf_internal_r+0x4dc>
 4002758:	80800003 	ldbu	r2,0(r16)
 400275c:	10803fcc 	andi	r2,r2,255
 4002760:	1080201c 	xori	r2,r2,128
 4002764:	10bfe004 	addi	r2,r2,-128
 4002768:	1000c926 	beq	r2,zero,4002a90 <___svfprintf_internal_r+0x3fc>
 400276c:	82c00047 	ldb	r11,1(r16)
 4002770:	85c00044 	addi	r23,r16,1
 4002774:	d8001345 	stb	zero,77(sp)
 4002778:	0009883a 	mov	r4,zero
 400277c:	000b883a 	mov	r5,zero
 4002780:	023fffc4 	movi	r8,-1
 4002784:	0021883a 	mov	r16,zero
 4002788:	0019883a 	mov	r12,zero
 400278c:	bdc00044 	addi	r23,r23,1
 4002790:	5839883a 	mov	fp,r11
 4002794:	e0bff804 	addi	r2,fp,-32
 4002798:	10c01668 	cmpgeui	r3,r2,89
 400279c:	18006c1e 	bne	r3,zero,4002950 <___svfprintf_internal_r+0x2bc>
 40027a0:	100490ba 	slli	r2,r2,2
 40027a4:	00c10034 	movhi	r3,1024
 40027a8:	10c7883a 	add	r3,r2,r3
 40027ac:	1889ed17 	ldw	r2,10164(r3)
 40027b0:	1000683a 	jmp	r2
 40027b4:	040030bc 	xorhi	r16,zero,194
 40027b8:	04002950 	cmplti	r16,zero,165
 40027bc:	04002950 	cmplti	r16,zero,165
 40027c0:	040030b0 	cmpltui	r16,zero,194
 40027c4:	04002950 	cmplti	r16,zero,165
 40027c8:	04002950 	cmplti	r16,zero,165
 40027cc:	04002950 	cmplti	r16,zero,165
 40027d0:	04002950 	cmplti	r16,zero,165
 40027d4:	04002950 	cmplti	r16,zero,165
 40027d8:	04002950 	cmplti	r16,zero,165
 40027dc:	04003088 	cmpgei	r16,zero,194
 40027e0:	04003078 	rdprs	r16,zero,193
 40027e4:	04002950 	cmplti	r16,zero,165
 40027e8:	04003060 	cmpeqi	r16,zero,193
 40027ec:	04003014 	movui	r16,192
 40027f0:	04002950 	cmplti	r16,zero,165
 40027f4:	04003008 	cmpgei	r16,zero,192
 40027f8:	04002918 	cmpnei	r16,zero,164
 40027fc:	04002918 	cmpnei	r16,zero,164
 4002800:	04002918 	cmpnei	r16,zero,164
 4002804:	04002918 	cmpnei	r16,zero,164
 4002808:	04002918 	cmpnei	r16,zero,164
 400280c:	04002918 	cmpnei	r16,zero,164
 4002810:	04002918 	cmpnei	r16,zero,164
 4002814:	04002918 	cmpnei	r16,zero,164
 4002818:	04002918 	cmpnei	r16,zero,164
 400281c:	04002950 	cmplti	r16,zero,165
 4002820:	04002950 	cmplti	r16,zero,165
 4002824:	04002950 	cmplti	r16,zero,165
 4002828:	04002950 	cmplti	r16,zero,165
 400282c:	04002950 	cmplti	r16,zero,165
 4002830:	04002950 	cmplti	r16,zero,165
 4002834:	04002950 	cmplti	r16,zero,165
 4002838:	04002950 	cmplti	r16,zero,165
 400283c:	04002950 	cmplti	r16,zero,165
 4002840:	04002950 	cmplti	r16,zero,165
 4002844:	04002efc 	xorhi	r16,zero,187
 4002848:	04002bcc 	andi	r16,zero,175
 400284c:	04002950 	cmplti	r16,zero,165
 4002850:	04002bcc 	andi	r16,zero,175
 4002854:	04002950 	cmplti	r16,zero,165
 4002858:	04002950 	cmplti	r16,zero,165
 400285c:	04002950 	cmplti	r16,zero,165
 4002860:	04002950 	cmplti	r16,zero,165
 4002864:	04002ef0 	cmpltui	r16,zero,187
 4002868:	04002950 	cmplti	r16,zero,165
 400286c:	04002950 	cmplti	r16,zero,165
 4002870:	04002b00 	call	4002b0 <__alt_mem_sdram_controller_0-0x3bffd50>
 4002874:	04002950 	cmplti	r16,zero,165
 4002878:	04002950 	cmplti	r16,zero,165
 400287c:	04002950 	cmplti	r16,zero,165
 4002880:	04002950 	cmplti	r16,zero,165
 4002884:	04002950 	cmplti	r16,zero,165
 4002888:	04002ad8 	cmpnei	r16,zero,171
 400288c:	04002950 	cmplti	r16,zero,165
 4002890:	04002950 	cmplti	r16,zero,165
 4002894:	040031b0 	cmpltui	r16,zero,198
 4002898:	04002950 	cmplti	r16,zero,165
 400289c:	04002950 	cmplti	r16,zero,165
 40028a0:	04002950 	cmplti	r16,zero,165
 40028a4:	04002950 	cmplti	r16,zero,165
 40028a8:	04002950 	cmplti	r16,zero,165
 40028ac:	04002950 	cmplti	r16,zero,165
 40028b0:	04002950 	cmplti	r16,zero,165
 40028b4:	04002950 	cmplti	r16,zero,165
 40028b8:	04002950 	cmplti	r16,zero,165
 40028bc:	04002950 	cmplti	r16,zero,165
 40028c0:	04003188 	cmpgei	r16,zero,198
 40028c4:	04002dd4 	movui	r16,183
 40028c8:	04002bcc 	andi	r16,zero,175
 40028cc:	04002bcc 	andi	r16,zero,175
 40028d0:	04002bcc 	andi	r16,zero,175
 40028d4:	04002e48 	cmpgei	r16,zero,185
 40028d8:	04002dd4 	movui	r16,183
 40028dc:	04002950 	cmplti	r16,zero,165
 40028e0:	04002950 	cmplti	r16,zero,165
 40028e4:	04002edc 	xori	r16,zero,187
 40028e8:	04002950 	cmplti	r16,zero,165
 40028ec:	04002ea0 	cmpeqi	r16,zero,186
 40028f0:	04002b04 	movi	r16,172
 40028f4:	04002e60 	cmpeqi	r16,zero,185
 40028f8:	04002e54 	movui	r16,185
 40028fc:	04002950 	cmplti	r16,zero,165
 4002900:	04003130 	cmpltui	r16,zero,196
 4002904:	04002950 	cmplti	r16,zero,165
 4002908:	04002adc 	xori	r16,zero,171
 400290c:	04002950 	cmplti	r16,zero,165
 4002910:	04002950 	cmplti	r16,zero,165
 4002914:	040030e8 	cmpgeui	r16,zero,195
 4002918:	0021883a 	mov	r16,zero
 400291c:	e0fff404 	addi	r3,fp,-48
 4002920:	800490ba 	slli	r2,r16,2
 4002924:	bf000007 	ldb	fp,0(r23)
 4002928:	bdc00044 	addi	r23,r23,1
 400292c:	1421883a 	add	r16,r2,r16
 4002930:	8421883a 	add	r16,r16,r16
 4002934:	1c21883a 	add	r16,r3,r16
 4002938:	e0fff404 	addi	r3,fp,-48
 400293c:	188002b0 	cmpltui	r2,r3,10
 4002940:	103ff71e 	bne	r2,zero,4002920 <___svfprintf_internal_r+0x28c>
 4002944:	e0bff804 	addi	r2,fp,-32
 4002948:	10c01668 	cmpgeui	r3,r2,89
 400294c:	183f9426 	beq	r3,zero,40027a0 <___svfprintf_internal_r+0x10c>
 4002950:	21003fcc 	andi	r4,r4,255
 4002954:	2006931e 	bne	r4,zero,40043a4 <___svfprintf_internal_r+0x1d10>
 4002958:	e0004d26 	beq	fp,zero,4002a90 <___svfprintf_internal_r+0x3fc>
 400295c:	df001d05 	stb	fp,116(sp)
 4002960:	d8001345 	stb	zero,77(sp)
 4002964:	05000044 	movi	r20,1
 4002968:	05400044 	movi	r21,1
 400296c:	dc401d04 	addi	r17,sp,116
 4002970:	db000415 	stw	r12,16(sp)
 4002974:	0011883a 	mov	r8,zero
 4002978:	d8000715 	stw	zero,28(sp)
 400297c:	d8800417 	ldw	r2,16(sp)
 4002980:	1380008c 	andi	r14,r2,2
 4002984:	70000126 	beq	r14,zero,400298c <___svfprintf_internal_r+0x2f8>
 4002988:	a5000084 	addi	r20,r20,2
 400298c:	d8800417 	ldw	r2,16(sp)
 4002990:	d8c01c17 	ldw	r3,112(sp)
 4002994:	1340210c 	andi	r13,r2,132
 4002998:	6800021e 	bne	r13,zero,40029a4 <___svfprintf_internal_r+0x310>
 400299c:	850fc83a 	sub	r7,r16,r20
 40029a0:	01c32b16 	blt	zero,r7,4003650 <___svfprintf_internal_r+0xfbc>
 40029a4:	d8801347 	ldb	r2,77(sp)
 40029a8:	10000c26 	beq	r2,zero,40029dc <___svfprintf_internal_r+0x348>
 40029ac:	d8801b17 	ldw	r2,108(sp)
 40029b0:	d9001344 	addi	r4,sp,77
 40029b4:	18c00044 	addi	r3,r3,1
 40029b8:	10800044 	addi	r2,r2,1
 40029bc:	b1000015 	stw	r4,0(r22)
 40029c0:	01000044 	movi	r4,1
 40029c4:	d8801b15 	stw	r2,108(sp)
 40029c8:	b1000115 	stw	r4,4(r22)
 40029cc:	d8c01c15 	stw	r3,112(sp)
 40029d0:	10800208 	cmpgei	r2,r2,8
 40029d4:	10035f1e 	bne	r2,zero,4003754 <___svfprintf_internal_r+0x10c0>
 40029d8:	b5800204 	addi	r22,r22,8
 40029dc:	70000c26 	beq	r14,zero,4002a10 <___svfprintf_internal_r+0x37c>
 40029e0:	d8801b17 	ldw	r2,108(sp)
 40029e4:	d9001384 	addi	r4,sp,78
 40029e8:	18c00084 	addi	r3,r3,2
 40029ec:	10800044 	addi	r2,r2,1
 40029f0:	b1000015 	stw	r4,0(r22)
 40029f4:	01000084 	movi	r4,2
 40029f8:	d8801b15 	stw	r2,108(sp)
 40029fc:	b1000115 	stw	r4,4(r22)
 4002a00:	d8c01c15 	stw	r3,112(sp)
 4002a04:	10800208 	cmpgei	r2,r2,8
 4002a08:	1003601e 	bne	r2,zero,400378c <___svfprintf_internal_r+0x10f8>
 4002a0c:	b5800204 	addi	r22,r22,8
 4002a10:	6b402018 	cmpnei	r13,r13,128
 4002a14:	68024126 	beq	r13,zero,400331c <___svfprintf_internal_r+0xc88>
 4002a18:	4551c83a 	sub	r8,r8,r21
 4002a1c:	02027916 	blt	zero,r8,4003404 <___svfprintf_internal_r+0xd70>
 4002a20:	d8800417 	ldw	r2,16(sp)
 4002a24:	1080400c 	andi	r2,r2,256
 4002a28:	1001f31e 	bne	r2,zero,40031f8 <___svfprintf_internal_r+0xb64>
 4002a2c:	d8801b17 	ldw	r2,108(sp)
 4002a30:	1d47883a 	add	r3,r3,r21
 4002a34:	b4400015 	stw	r17,0(r22)
 4002a38:	10800044 	addi	r2,r2,1
 4002a3c:	b5400115 	stw	r21,4(r22)
 4002a40:	d8801b15 	stw	r2,108(sp)
 4002a44:	d8c01c15 	stw	r3,112(sp)
 4002a48:	10800208 	cmpgei	r2,r2,8
 4002a4c:	1002f61e 	bne	r2,zero,4003628 <___svfprintf_internal_r+0xf94>
 4002a50:	b5800204 	addi	r22,r22,8
 4002a54:	d8800417 	ldw	r2,16(sp)
 4002a58:	1440010c 	andi	r17,r2,4
 4002a5c:	88000226 	beq	r17,zero,4002a68 <___svfprintf_internal_r+0x3d4>
 4002a60:	8523c83a 	sub	r17,r16,r20
 4002a64:	0440ac16 	blt	zero,r17,4002d18 <___svfprintf_internal_r+0x684>
 4002a68:	8500010e 	bge	r16,r20,4002a70 <___svfprintf_internal_r+0x3dc>
 4002a6c:	a021883a 	mov	r16,r20
 4002a70:	d8800517 	ldw	r2,20(sp)
 4002a74:	1405883a 	add	r2,r2,r16
 4002a78:	d8800515 	stw	r2,20(sp)
 4002a7c:	1802a81e 	bne	r3,zero,4003520 <___svfprintf_internal_r+0xe8c>
 4002a80:	b8800007 	ldb	r2,0(r23)
 4002a84:	d8001b15 	stw	zero,108(sp)
 4002a88:	dd802704 	addi	r22,sp,156
 4002a8c:	103f291e 	bne	r2,zero,4002734 <___svfprintf_internal_r+0xa0>
 4002a90:	d8801c17 	ldw	r2,112(sp)
 4002a94:	1006451e 	bne	r2,zero,40043ac <___svfprintf_internal_r+0x1d18>
 4002a98:	9080030b 	ldhu	r2,12(r18)
 4002a9c:	1080100c 	andi	r2,r2,64
 4002aa0:	1006e61e 	bne	r2,zero,400463c <___svfprintf_internal_r+0x1fa8>
 4002aa4:	d8800517 	ldw	r2,20(sp)
 4002aa8:	dfc04017 	ldw	ra,256(sp)
 4002aac:	df003f17 	ldw	fp,252(sp)
 4002ab0:	ddc03e17 	ldw	r23,248(sp)
 4002ab4:	dd803d17 	ldw	r22,244(sp)
 4002ab8:	dd403c17 	ldw	r21,240(sp)
 4002abc:	dd003b17 	ldw	r20,236(sp)
 4002ac0:	dcc03a17 	ldw	r19,232(sp)
 4002ac4:	dc803917 	ldw	r18,228(sp)
 4002ac8:	dc403817 	ldw	r17,224(sp)
 4002acc:	dc003717 	ldw	r16,220(sp)
 4002ad0:	dec04104 	addi	sp,sp,260
 4002ad4:	f800283a 	ret
 4002ad8:	63000414 	ori	r12,r12,16
 4002adc:	6080080c 	andi	r2,r12,32
 4002ae0:	10008126 	beq	r2,zero,4002ce8 <___svfprintf_internal_r+0x654>
 4002ae4:	d8c00617 	ldw	r3,24(sp)
 4002ae8:	00800044 	movi	r2,1
 4002aec:	1d000017 	ldw	r20,0(r3)
 4002af0:	1d400117 	ldw	r21,4(r3)
 4002af4:	18c00204 	addi	r3,r3,8
 4002af8:	d8c00615 	stw	r3,24(sp)
 4002afc:	00000906 	br	4002b24 <___svfprintf_internal_r+0x490>
 4002b00:	63000414 	ori	r12,r12,16
 4002b04:	6080080c 	andi	r2,r12,32
 4002b08:	10006b26 	beq	r2,zero,4002cb8 <___svfprintf_internal_r+0x624>
 4002b0c:	d8c00617 	ldw	r3,24(sp)
 4002b10:	0005883a 	mov	r2,zero
 4002b14:	1d000017 	ldw	r20,0(r3)
 4002b18:	1d400117 	ldw	r21,4(r3)
 4002b1c:	18c00204 	addi	r3,r3,8
 4002b20:	d8c00615 	stw	r3,24(sp)
 4002b24:	d8001345 	stb	zero,77(sp)
 4002b28:	40ffffe0 	cmpeqi	r3,r8,-1
 4002b2c:	001b883a 	mov	r13,zero
 4002b30:	18010d1e 	bne	r3,zero,4002f68 <___svfprintf_internal_r+0x8d4>
 4002b34:	047fdfc4 	movi	r17,-129
 4002b38:	6448703a 	and	r4,r12,r17
 4002b3c:	a546b03a 	or	r3,r20,r21
 4002b40:	d9000415 	stw	r4,16(sp)
 4002b44:	1802c01e 	bne	r3,zero,4003648 <___svfprintf_internal_r+0xfb4>
 4002b48:	40025f1e 	bne	r8,zero,40034c8 <___svfprintf_internal_r+0xe34>
 4002b4c:	1003821e 	bne	r2,zero,4003958 <___svfprintf_internal_r+0x12c4>
 4002b50:	6540004c 	andi	r21,r12,1
 4002b54:	a803be26 	beq	r21,zero,4003a50 <___svfprintf_internal_r+0x13bc>
 4002b58:	00800c04 	movi	r2,48
 4002b5c:	d88026c5 	stb	r2,155(sp)
 4002b60:	dc4026c4 	addi	r17,sp,155
 4002b64:	00011e06 	br	4002fe0 <___svfprintf_internal_r+0x94c>
 4002b68:	85e3c83a 	sub	r17,r16,r23
 4002b6c:	85ffc826 	beq	r16,r23,4002a90 <___svfprintf_internal_r+0x3fc>
 4002b70:	d8c01c17 	ldw	r3,112(sp)
 4002b74:	d8801b17 	ldw	r2,108(sp)
 4002b78:	b5c00015 	stw	r23,0(r22)
 4002b7c:	1c47883a 	add	r3,r3,r17
 4002b80:	10800044 	addi	r2,r2,1
 4002b84:	d8801b15 	stw	r2,108(sp)
 4002b88:	b4400115 	stw	r17,4(r22)
 4002b8c:	d8c01c15 	stw	r3,112(sp)
 4002b90:	10800208 	cmpgei	r2,r2,8
 4002b94:	1000061e 	bne	r2,zero,4002bb0 <___svfprintf_internal_r+0x51c>
 4002b98:	b5800204 	addi	r22,r22,8
 4002b9c:	d8c00517 	ldw	r3,20(sp)
 4002ba0:	80800003 	ldbu	r2,0(r16)
 4002ba4:	1c47883a 	add	r3,r3,r17
 4002ba8:	d8c00515 	stw	r3,20(sp)
 4002bac:	003eeb06 	br	400275c <___svfprintf_internal_r+0xc8>
 4002bb0:	d9801a04 	addi	r6,sp,104
 4002bb4:	900b883a 	mov	r5,r18
 4002bb8:	9809883a 	mov	r4,r19
 4002bbc:	4007d3c0 	call	4007d3c <__ssprint_r>
 4002bc0:	103fb51e 	bne	r2,zero,4002a98 <___svfprintf_internal_r+0x404>
 4002bc4:	dd802704 	addi	r22,sp,156
 4002bc8:	003ff406 	br	4002b9c <___svfprintf_internal_r+0x508>
 4002bcc:	21003fcc 	andi	r4,r4,255
 4002bd0:	2006641e 	bne	r4,zero,4004564 <___svfprintf_internal_r+0x1ed0>
 4002bd4:	d8c00617 	ldw	r3,24(sp)
 4002bd8:	6080020c 	andi	r2,r12,8
 4002bdc:	19000204 	addi	r4,r3,8
 4002be0:	d9000e15 	stw	r4,56(sp)
 4002be4:	1003b01e 	bne	r2,zero,4003aa8 <___svfprintf_internal_r+0x1414>
 4002be8:	d8800617 	ldw	r2,24(sp)
 4002bec:	10c00017 	ldw	r3,0(r2)
 4002bf0:	10800117 	ldw	r2,4(r2)
 4002bf4:	d8c00915 	stw	r3,36(sp)
 4002bf8:	d8800a15 	stw	r2,40(sp)
 4002bfc:	dd400a17 	ldw	r21,40(sp)
 4002c00:	dd000917 	ldw	r20,36(sp)
 4002c04:	00a00034 	movhi	r2,32768
 4002c08:	10bfffc4 	addi	r2,r2,-1
 4002c0c:	a8a2703a 	and	r17,r21,r2
 4002c10:	01dffc34 	movhi	r7,32752
 4002c14:	01bfffc4 	movi	r6,-1
 4002c18:	39ffffc4 	addi	r7,r7,-1
 4002c1c:	a009883a 	mov	r4,r20
 4002c20:	880b883a 	mov	r5,r17
 4002c24:	da000615 	stw	r8,24(sp)
 4002c28:	db000415 	stw	r12,16(sp)
 4002c2c:	401048c0 	call	401048c <__unorddf2>
 4002c30:	db000417 	ldw	r12,16(sp)
 4002c34:	da000617 	ldw	r8,24(sp)
 4002c38:	1004621e 	bne	r2,zero,4003dc4 <___svfprintf_internal_r+0x1730>
 4002c3c:	01dffc34 	movhi	r7,32752
 4002c40:	01bfffc4 	movi	r6,-1
 4002c44:	39ffffc4 	addi	r7,r7,-1
 4002c48:	a009883a 	mov	r4,r20
 4002c4c:	880b883a 	mov	r5,r17
 4002c50:	400f3440 	call	400f344 <__ledf2>
 4002c54:	db000417 	ldw	r12,16(sp)
 4002c58:	da000617 	ldw	r8,24(sp)
 4002c5c:	0084590e 	bge	zero,r2,4003dc4 <___svfprintf_internal_r+0x1730>
 4002c60:	000d883a 	mov	r6,zero
 4002c64:	000f883a 	mov	r7,zero
 4002c68:	a009883a 	mov	r4,r20
 4002c6c:	a80b883a 	mov	r5,r21
 4002c70:	400f3440 	call	400f344 <__ledf2>
 4002c74:	db000417 	ldw	r12,16(sp)
 4002c78:	1005ac16 	blt	r2,zero,400432c <___svfprintf_internal_r+0x1c98>
 4002c7c:	db401343 	ldbu	r13,77(sp)
 4002c80:	e0801210 	cmplti	r2,fp,72
 4002c84:	1005051e 	bne	r2,zero,400409c <___svfprintf_internal_r+0x1a08>
 4002c88:	04410074 	movhi	r17,1025
 4002c8c:	8c488504 	addi	r17,r17,8724
 4002c90:	00bfdfc4 	movi	r2,-129
 4002c94:	6084703a 	and	r2,r12,r2
 4002c98:	d8800415 	stw	r2,16(sp)
 4002c9c:	d8800e17 	ldw	r2,56(sp)
 4002ca0:	050000c4 	movi	r20,3
 4002ca4:	054000c4 	movi	r21,3
 4002ca8:	d8800615 	stw	r2,24(sp)
 4002cac:	0011883a 	mov	r8,zero
 4002cb0:	d8000715 	stw	zero,28(sp)
 4002cb4:	0000ce06 	br	4002ff0 <___svfprintf_internal_r+0x95c>
 4002cb8:	d9000617 	ldw	r4,24(sp)
 4002cbc:	6080040c 	andi	r2,r12,16
 4002cc0:	20c00104 	addi	r3,r4,4
 4002cc4:	1003641e 	bne	r2,zero,4003a58 <___svfprintf_internal_r+0x13c4>
 4002cc8:	6080100c 	andi	r2,r12,64
 4002ccc:	10053c26 	beq	r2,zero,40041c0 <___svfprintf_internal_r+0x1b2c>
 4002cd0:	d8800617 	ldw	r2,24(sp)
 4002cd4:	002b883a 	mov	r21,zero
 4002cd8:	d8c00615 	stw	r3,24(sp)
 4002cdc:	1500000b 	ldhu	r20,0(r2)
 4002ce0:	0005883a 	mov	r2,zero
 4002ce4:	003f8f06 	br	4002b24 <___svfprintf_internal_r+0x490>
 4002ce8:	d9000617 	ldw	r4,24(sp)
 4002cec:	6080040c 	andi	r2,r12,16
 4002cf0:	20c00104 	addi	r3,r4,4
 4002cf4:	1003621e 	bne	r2,zero,4003a80 <___svfprintf_internal_r+0x13ec>
 4002cf8:	6080100c 	andi	r2,r12,64
 4002cfc:	10052526 	beq	r2,zero,4004194 <___svfprintf_internal_r+0x1b00>
 4002d00:	d8800617 	ldw	r2,24(sp)
 4002d04:	002b883a 	mov	r21,zero
 4002d08:	d8c00615 	stw	r3,24(sp)
 4002d0c:	1500000b 	ldhu	r20,0(r2)
 4002d10:	00800044 	movi	r2,1
 4002d14:	003f8306 	br	4002b24 <___svfprintf_internal_r+0x490>
 4002d18:	03010074 	movhi	r12,1025
 4002d1c:	89000450 	cmplti	r4,r17,17
 4002d20:	d8801b17 	ldw	r2,108(sp)
 4002d24:	63089904 	addi	r12,r12,8804
 4002d28:	20001b1e 	bne	r4,zero,4002d98 <___svfprintf_internal_r+0x704>
 4002d2c:	05400404 	movi	r21,16
 4002d30:	6039883a 	mov	fp,r12
 4002d34:	00000406 	br	4002d48 <___svfprintf_internal_r+0x6b4>
 4002d38:	8c7ffc04 	addi	r17,r17,-16
 4002d3c:	89000448 	cmpgei	r4,r17,17
 4002d40:	b5800204 	addi	r22,r22,8
 4002d44:	20001326 	beq	r4,zero,4002d94 <___svfprintf_internal_r+0x700>
 4002d48:	10800044 	addi	r2,r2,1
 4002d4c:	18c00404 	addi	r3,r3,16
 4002d50:	b7000015 	stw	fp,0(r22)
 4002d54:	b5400115 	stw	r21,4(r22)
 4002d58:	d8c01c15 	stw	r3,112(sp)
 4002d5c:	d8801b15 	stw	r2,108(sp)
 4002d60:	11000208 	cmpgei	r4,r2,8
 4002d64:	203ff426 	beq	r4,zero,4002d38 <___svfprintf_internal_r+0x6a4>
 4002d68:	d9801a04 	addi	r6,sp,104
 4002d6c:	900b883a 	mov	r5,r18
 4002d70:	9809883a 	mov	r4,r19
 4002d74:	4007d3c0 	call	4007d3c <__ssprint_r>
 4002d78:	103f471e 	bne	r2,zero,4002a98 <___svfprintf_internal_r+0x404>
 4002d7c:	8c7ffc04 	addi	r17,r17,-16
 4002d80:	89000448 	cmpgei	r4,r17,17
 4002d84:	d8c01c17 	ldw	r3,112(sp)
 4002d88:	d8801b17 	ldw	r2,108(sp)
 4002d8c:	dd802704 	addi	r22,sp,156
 4002d90:	203fed1e 	bne	r4,zero,4002d48 <___svfprintf_internal_r+0x6b4>
 4002d94:	e019883a 	mov	r12,fp
 4002d98:	10800044 	addi	r2,r2,1
 4002d9c:	1c47883a 	add	r3,r3,r17
 4002da0:	d8801b15 	stw	r2,108(sp)
 4002da4:	b3000015 	stw	r12,0(r22)
 4002da8:	b4400115 	stw	r17,4(r22)
 4002dac:	d8c01c15 	stw	r3,112(sp)
 4002db0:	10800210 	cmplti	r2,r2,8
 4002db4:	103f2c1e 	bne	r2,zero,4002a68 <___svfprintf_internal_r+0x3d4>
 4002db8:	d9801a04 	addi	r6,sp,104
 4002dbc:	900b883a 	mov	r5,r18
 4002dc0:	9809883a 	mov	r4,r19
 4002dc4:	4007d3c0 	call	4007d3c <__ssprint_r>
 4002dc8:	103f331e 	bne	r2,zero,4002a98 <___svfprintf_internal_r+0x404>
 4002dcc:	d8c01c17 	ldw	r3,112(sp)
 4002dd0:	003f2506 	br	4002a68 <___svfprintf_internal_r+0x3d4>
 4002dd4:	21003fcc 	andi	r4,r4,255
 4002dd8:	2005e41e 	bne	r4,zero,400456c <___svfprintf_internal_r+0x1ed8>
 4002ddc:	6080080c 	andi	r2,r12,32
 4002de0:	10004b26 	beq	r2,zero,4002f10 <___svfprintf_internal_r+0x87c>
 4002de4:	d8c00617 	ldw	r3,24(sp)
 4002de8:	18800117 	ldw	r2,4(r3)
 4002dec:	1d000017 	ldw	r20,0(r3)
 4002df0:	18c00204 	addi	r3,r3,8
 4002df4:	d8c00615 	stw	r3,24(sp)
 4002df8:	102b883a 	mov	r21,r2
 4002dfc:	10005016 	blt	r2,zero,4002f40 <___svfprintf_internal_r+0x8ac>
 4002e00:	40bfffd8 	cmpnei	r2,r8,-1
 4002e04:	db401343 	ldbu	r13,77(sp)
 4002e08:	10000626 	beq	r2,zero,4002e24 <___svfprintf_internal_r+0x790>
 4002e0c:	047fdfc4 	movi	r17,-129
 4002e10:	6446703a 	and	r3,r12,r17
 4002e14:	a544b03a 	or	r2,r20,r21
 4002e18:	d8c00415 	stw	r3,16(sp)
 4002e1c:	1002cd26 	beq	r2,zero,4003954 <___svfprintf_internal_r+0x12c0>
 4002e20:	db000417 	ldw	r12,16(sp)
 4002e24:	a803781e 	bne	r21,zero,4003c08 <___svfprintf_internal_r+0x1574>
 4002e28:	a08002a8 	cmpgeui	r2,r20,10
 4002e2c:	1003761e 	bne	r2,zero,4003c08 <___svfprintf_internal_r+0x1574>
 4002e30:	a5000c04 	addi	r20,r20,48
 4002e34:	dd0026c5 	stb	r20,155(sp)
 4002e38:	db000415 	stw	r12,16(sp)
 4002e3c:	05400044 	movi	r21,1
 4002e40:	dc4026c4 	addi	r17,sp,155
 4002e44:	00006606 	br	4002fe0 <___svfprintf_internal_r+0x94c>
 4002e48:	bac00007 	ldb	r11,0(r23)
 4002e4c:	63001014 	ori	r12,r12,64
 4002e50:	003e4e06 	br	400278c <___svfprintf_internal_r+0xf8>
 4002e54:	bac00007 	ldb	r11,0(r23)
 4002e58:	63000814 	ori	r12,r12,32
 4002e5c:	003e4b06 	br	400278c <___svfprintf_internal_r+0xf8>
 4002e60:	d8c00617 	ldw	r3,24(sp)
 4002e64:	00800c04 	movi	r2,48
 4002e68:	d8801385 	stb	r2,78(sp)
 4002e6c:	00801e04 	movi	r2,120
 4002e70:	01010074 	movhi	r4,1025
 4002e74:	d88013c5 	stb	r2,79(sp)
 4002e78:	18800104 	addi	r2,r3,4
 4002e7c:	d8800615 	stw	r2,24(sp)
 4002e80:	20888804 	addi	r2,r4,8736
 4002e84:	d8800b15 	stw	r2,44(sp)
 4002e88:	1d000017 	ldw	r20,0(r3)
 4002e8c:	002b883a 	mov	r21,zero
 4002e90:	63000094 	ori	r12,r12,2
 4002e94:	00800084 	movi	r2,2
 4002e98:	07001e04 	movi	fp,120
 4002e9c:	003f2106 	br	4002b24 <___svfprintf_internal_r+0x490>
 4002ea0:	21003fcc 	andi	r4,r4,255
 4002ea4:	2005ab1e 	bne	r4,zero,4004554 <___svfprintf_internal_r+0x1ec0>
 4002ea8:	d9000617 	ldw	r4,24(sp)
 4002eac:	6080080c 	andi	r2,r12,32
 4002eb0:	20c00017 	ldw	r3,0(r4)
 4002eb4:	21000104 	addi	r4,r4,4
 4002eb8:	d9000615 	stw	r4,24(sp)
 4002ebc:	1002eb1e 	bne	r2,zero,4003a6c <___svfprintf_internal_r+0x13d8>
 4002ec0:	6080040c 	andi	r2,r12,16
 4002ec4:	1003781e 	bne	r2,zero,4003ca8 <___svfprintf_internal_r+0x1614>
 4002ec8:	6300100c 	andi	r12,r12,64
 4002ecc:	60037626 	beq	r12,zero,4003ca8 <___svfprintf_internal_r+0x1614>
 4002ed0:	d8800517 	ldw	r2,20(sp)
 4002ed4:	1880000d 	sth	r2,0(r3)
 4002ed8:	003e1406 	br	400272c <___svfprintf_internal_r+0x98>
 4002edc:	bac00007 	ldb	r11,0(r23)
 4002ee0:	58801b18 	cmpnei	r2,r11,108
 4002ee4:	10031026 	beq	r2,zero,4003b28 <___svfprintf_internal_r+0x1494>
 4002ee8:	63000414 	ori	r12,r12,16
 4002eec:	003e2706 	br	400278c <___svfprintf_internal_r+0xf8>
 4002ef0:	bac00007 	ldb	r11,0(r23)
 4002ef4:	63000214 	ori	r12,r12,8
 4002ef8:	003e2406 	br	400278c <___svfprintf_internal_r+0xf8>
 4002efc:	21003fcc 	andi	r4,r4,255
 4002f00:	2005921e 	bne	r4,zero,400454c <___svfprintf_internal_r+0x1eb8>
 4002f04:	63000414 	ori	r12,r12,16
 4002f08:	6080080c 	andi	r2,r12,32
 4002f0c:	103fb51e 	bne	r2,zero,4002de4 <___svfprintf_internal_r+0x750>
 4002f10:	d9000617 	ldw	r4,24(sp)
 4002f14:	6080040c 	andi	r2,r12,16
 4002f18:	20c00104 	addi	r3,r4,4
 4002f1c:	1002dd1e 	bne	r2,zero,4003a94 <___svfprintf_internal_r+0x1400>
 4002f20:	6080100c 	andi	r2,r12,64
 4002f24:	1004ac26 	beq	r2,zero,40041d8 <___svfprintf_internal_r+0x1b44>
 4002f28:	d8800617 	ldw	r2,24(sp)
 4002f2c:	d8c00615 	stw	r3,24(sp)
 4002f30:	1500000f 	ldh	r20,0(r2)
 4002f34:	a02bd7fa 	srai	r21,r20,31
 4002f38:	a805883a 	mov	r2,r21
 4002f3c:	103fb00e 	bge	r2,zero,4002e00 <___svfprintf_internal_r+0x76c>
 4002f40:	a004c03a 	cmpne	r2,r20,zero
 4002f44:	056bc83a 	sub	r21,zero,r21
 4002f48:	a8abc83a 	sub	r21,r21,r2
 4002f4c:	00800b44 	movi	r2,45
 4002f50:	d8801345 	stb	r2,77(sp)
 4002f54:	40ffffe0 	cmpeqi	r3,r8,-1
 4002f58:	0529c83a 	sub	r20,zero,r20
 4002f5c:	03400b44 	movi	r13,45
 4002f60:	00800044 	movi	r2,1
 4002f64:	183ef326 	beq	r3,zero,4002b34 <___svfprintf_internal_r+0x4a0>
 4002f68:	10c00060 	cmpeqi	r3,r2,1
 4002f6c:	183fad1e 	bne	r3,zero,4002e24 <___svfprintf_internal_r+0x790>
 4002f70:	108000a0 	cmpeqi	r2,r2,2
 4002f74:	1001591e 	bne	r2,zero,40034dc <___svfprintf_internal_r+0xe48>
 4002f78:	dc402704 	addi	r17,sp,156
 4002f7c:	a006d0fa 	srli	r3,r20,3
 4002f80:	a808977a 	slli	r4,r21,29
 4002f84:	a82ad0fa 	srli	r21,r21,3
 4002f88:	a50001cc 	andi	r20,r20,7
 4002f8c:	a0800c04 	addi	r2,r20,48
 4002f90:	20e8b03a 	or	r20,r4,r3
 4002f94:	88bfffc5 	stb	r2,-1(r17)
 4002f98:	a546b03a 	or	r3,r20,r21
 4002f9c:	880b883a 	mov	r5,r17
 4002fa0:	8c7fffc4 	addi	r17,r17,-1
 4002fa4:	183ff51e 	bne	r3,zero,4002f7c <___svfprintf_internal_r+0x8e8>
 4002fa8:	60c0004c 	andi	r3,r12,1
 4002fac:	18015826 	beq	r3,zero,4003510 <___svfprintf_internal_r+0xe7c>
 4002fb0:	10803fcc 	andi	r2,r2,255
 4002fb4:	1080201c 	xori	r2,r2,128
 4002fb8:	10bfe004 	addi	r2,r2,-128
 4002fbc:	10800c18 	cmpnei	r2,r2,48
 4002fc0:	10015326 	beq	r2,zero,4003510 <___svfprintf_internal_r+0xe7c>
 4002fc4:	00800c04 	movi	r2,48
 4002fc8:	297fff84 	addi	r5,r5,-2
 4002fcc:	88bfffc5 	stb	r2,-1(r17)
 4002fd0:	d8802704 	addi	r2,sp,156
 4002fd4:	116bc83a 	sub	r21,r2,r5
 4002fd8:	db000415 	stw	r12,16(sp)
 4002fdc:	2823883a 	mov	r17,r5
 4002fe0:	4029883a 	mov	r20,r8
 4002fe4:	4540010e 	bge	r8,r21,4002fec <___svfprintf_internal_r+0x958>
 4002fe8:	a829883a 	mov	r20,r21
 4002fec:	d8000715 	stw	zero,28(sp)
 4002ff0:	6b403fcc 	andi	r13,r13,255
 4002ff4:	6b40201c 	xori	r13,r13,128
 4002ff8:	6b7fe004 	addi	r13,r13,-128
 4002ffc:	683e5f26 	beq	r13,zero,400297c <___svfprintf_internal_r+0x2e8>
 4003000:	a5000044 	addi	r20,r20,1
 4003004:	003e5d06 	br	400297c <___svfprintf_internal_r+0x2e8>
 4003008:	bac00007 	ldb	r11,0(r23)
 400300c:	63002014 	ori	r12,r12,128
 4003010:	003dde06 	br	400278c <___svfprintf_internal_r+0xf8>
 4003014:	bf000007 	ldb	fp,0(r23)
 4003018:	b8800044 	addi	r2,r23,1
 400301c:	e0c00aa0 	cmpeqi	r3,fp,42
 4003020:	1805ac1e 	bne	r3,zero,40046d4 <___svfprintf_internal_r+0x2040>
 4003024:	e0fff404 	addi	r3,fp,-48
 4003028:	198002b0 	cmpltui	r6,r3,10
 400302c:	102f883a 	mov	r23,r2
 4003030:	0011883a 	mov	r8,zero
 4003034:	303dd726 	beq	r6,zero,4002794 <___svfprintf_internal_r+0x100>
 4003038:	400490ba 	slli	r2,r8,2
 400303c:	bf000007 	ldb	fp,0(r23)
 4003040:	bdc00044 	addi	r23,r23,1
 4003044:	1211883a 	add	r8,r2,r8
 4003048:	4211883a 	add	r8,r8,r8
 400304c:	40d1883a 	add	r8,r8,r3
 4003050:	e0fff404 	addi	r3,fp,-48
 4003054:	188002b0 	cmpltui	r2,r3,10
 4003058:	103ff71e 	bne	r2,zero,4003038 <___svfprintf_internal_r+0x9a4>
 400305c:	003dcd06 	br	4002794 <___svfprintf_internal_r+0x100>
 4003060:	bf000003 	ldbu	fp,0(r23)
 4003064:	e2c03fcc 	andi	r11,fp,255
 4003068:	5ac0201c 	xori	r11,r11,128
 400306c:	63000114 	ori	r12,r12,4
 4003070:	5affe004 	addi	r11,r11,-128
 4003074:	003dc506 	br	400278c <___svfprintf_internal_r+0xf8>
 4003078:	bac00007 	ldb	r11,0(r23)
 400307c:	01000044 	movi	r4,1
 4003080:	01400ac4 	movi	r5,43
 4003084:	003dc106 	br	400278c <___svfprintf_internal_r+0xf8>
 4003088:	d8800617 	ldw	r2,24(sp)
 400308c:	bf000003 	ldbu	fp,0(r23)
 4003090:	14000017 	ldw	r16,0(r2)
 4003094:	10800104 	addi	r2,r2,4
 4003098:	80029216 	blt	r16,zero,4003ae4 <___svfprintf_internal_r+0x1450>
 400309c:	d8800615 	stw	r2,24(sp)
 40030a0:	e2c03fcc 	andi	r11,fp,255
 40030a4:	5ac0201c 	xori	r11,r11,128
 40030a8:	5affe004 	addi	r11,r11,-128
 40030ac:	003db706 	br	400278c <___svfprintf_internal_r+0xf8>
 40030b0:	bac00007 	ldb	r11,0(r23)
 40030b4:	63000054 	ori	r12,r12,1
 40030b8:	003db406 	br	400278c <___svfprintf_internal_r+0xf8>
 40030bc:	28803fcc 	andi	r2,r5,255
 40030c0:	1080201c 	xori	r2,r2,128
 40030c4:	10bfe004 	addi	r2,r2,-128
 40030c8:	bf000003 	ldbu	fp,0(r23)
 40030cc:	103ff41e 	bne	r2,zero,40030a0 <___svfprintf_internal_r+0xa0c>
 40030d0:	e2c03fcc 	andi	r11,fp,255
 40030d4:	5ac0201c 	xori	r11,r11,128
 40030d8:	01000044 	movi	r4,1
 40030dc:	01400804 	movi	r5,32
 40030e0:	5affe004 	addi	r11,r11,-128
 40030e4:	003da906 	br	400278c <___svfprintf_internal_r+0xf8>
 40030e8:	21003fcc 	andi	r4,r4,255
 40030ec:	20051b1e 	bne	r4,zero,400455c <___svfprintf_internal_r+0x1ec8>
 40030f0:	00810074 	movhi	r2,1025
 40030f4:	10888804 	addi	r2,r2,8736
 40030f8:	d8800b15 	stw	r2,44(sp)
 40030fc:	6080080c 	andi	r2,r12,32
 4003100:	10003226 	beq	r2,zero,40031cc <___svfprintf_internal_r+0xb38>
 4003104:	d8800617 	ldw	r2,24(sp)
 4003108:	15000017 	ldw	r20,0(r2)
 400310c:	15400117 	ldw	r21,4(r2)
 4003110:	10800204 	addi	r2,r2,8
 4003114:	d8800615 	stw	r2,24(sp)
 4003118:	6080004c 	andi	r2,r12,1
 400311c:	10000226 	beq	r2,zero,4003128 <___svfprintf_internal_r+0xa94>
 4003120:	a544b03a 	or	r2,r20,r21
 4003124:	1002691e 	bne	r2,zero,4003acc <___svfprintf_internal_r+0x1438>
 4003128:	00800084 	movi	r2,2
 400312c:	003e7d06 	br	4002b24 <___svfprintf_internal_r+0x490>
 4003130:	d8800617 	ldw	r2,24(sp)
 4003134:	d8001345 	stb	zero,77(sp)
 4003138:	14400017 	ldw	r17,0(r2)
 400313c:	10c00104 	addi	r3,r2,4
 4003140:	88039226 	beq	r17,zero,4003f8c <___svfprintf_internal_r+0x18f8>
 4003144:	40bfffe0 	cmpeqi	r2,r8,-1
 4003148:	1002a71e 	bne	r2,zero,4003be8 <___svfprintf_internal_r+0x1554>
 400314c:	400d883a 	mov	r6,r8
 4003150:	000b883a 	mov	r5,zero
 4003154:	8809883a 	mov	r4,r17
 4003158:	d8c00715 	stw	r3,28(sp)
 400315c:	db000615 	stw	r12,24(sp)
 4003160:	da000415 	stw	r8,16(sp)
 4003164:	400688c0 	call	400688c <memchr>
 4003168:	da000417 	ldw	r8,16(sp)
 400316c:	db000617 	ldw	r12,24(sp)
 4003170:	d8c00717 	ldw	r3,28(sp)
 4003174:	1004e326 	beq	r2,zero,4004504 <___svfprintf_internal_r+0x1e70>
 4003178:	146bc83a 	sub	r21,r2,r17
 400317c:	a829883a 	mov	r20,r21
 4003180:	d8c00615 	stw	r3,24(sp)
 4003184:	003dfa06 	br	4002970 <___svfprintf_internal_r+0x2dc>
 4003188:	d8c00617 	ldw	r3,24(sp)
 400318c:	d8001345 	stb	zero,77(sp)
 4003190:	05000044 	movi	r20,1
 4003194:	18800017 	ldw	r2,0(r3)
 4003198:	18c00104 	addi	r3,r3,4
 400319c:	d8c00615 	stw	r3,24(sp)
 40031a0:	d8801d05 	stb	r2,116(sp)
 40031a4:	05400044 	movi	r21,1
 40031a8:	dc401d04 	addi	r17,sp,116
 40031ac:	003df006 	br	4002970 <___svfprintf_internal_r+0x2dc>
 40031b0:	21003fcc 	andi	r4,r4,255
 40031b4:	2004e31e 	bne	r4,zero,4004544 <___svfprintf_internal_r+0x1eb0>
 40031b8:	00810074 	movhi	r2,1025
 40031bc:	10888d04 	addi	r2,r2,8756
 40031c0:	d8800b15 	stw	r2,44(sp)
 40031c4:	6080080c 	andi	r2,r12,32
 40031c8:	103fce1e 	bne	r2,zero,4003104 <___svfprintf_internal_r+0xa70>
 40031cc:	d9000617 	ldw	r4,24(sp)
 40031d0:	6080040c 	andi	r2,r12,16
 40031d4:	20c00104 	addi	r3,r4,4
 40031d8:	1002381e 	bne	r2,zero,4003abc <___svfprintf_internal_r+0x1428>
 40031dc:	6080100c 	andi	r2,r12,64
 40031e0:	1003f226 	beq	r2,zero,40041ac <___svfprintf_internal_r+0x1b18>
 40031e4:	d8800617 	ldw	r2,24(sp)
 40031e8:	002b883a 	mov	r21,zero
 40031ec:	d8c00615 	stw	r3,24(sp)
 40031f0:	1500000b 	ldhu	r20,0(r2)
 40031f4:	003fc806 	br	4003118 <___svfprintf_internal_r+0xa84>
 40031f8:	e2c01990 	cmplti	r11,fp,102
 40031fc:	5800ce1e 	bne	r11,zero,4003538 <___svfprintf_internal_r+0xea4>
 4003200:	d9000917 	ldw	r4,36(sp)
 4003204:	d9400a17 	ldw	r5,40(sp)
 4003208:	000d883a 	mov	r6,zero
 400320c:	000f883a 	mov	r7,zero
 4003210:	d8c00e15 	stw	r3,56(sp)
 4003214:	400f1dc0 	call	400f1dc <__eqdf2>
 4003218:	d8c00e17 	ldw	r3,56(sp)
 400321c:	1001671e 	bne	r2,zero,40037bc <___svfprintf_internal_r+0x1128>
 4003220:	d8801b17 	ldw	r2,108(sp)
 4003224:	01010074 	movhi	r4,1025
 4003228:	21089404 	addi	r4,r4,8784
 400322c:	10800044 	addi	r2,r2,1
 4003230:	18c00044 	addi	r3,r3,1
 4003234:	b1000015 	stw	r4,0(r22)
 4003238:	01000044 	movi	r4,1
 400323c:	d8801b15 	stw	r2,108(sp)
 4003240:	b1000115 	stw	r4,4(r22)
 4003244:	d8c01c15 	stw	r3,112(sp)
 4003248:	10800208 	cmpgei	r2,r2,8
 400324c:	1003351e 	bne	r2,zero,4003f24 <___svfprintf_internal_r+0x1890>
 4003250:	b5800204 	addi	r22,r22,8
 4003254:	d8801417 	ldw	r2,80(sp)
 4003258:	d9000817 	ldw	r4,32(sp)
 400325c:	11000316 	blt	r2,r4,400326c <___svfprintf_internal_r+0xbd8>
 4003260:	d8800417 	ldw	r2,16(sp)
 4003264:	1080004c 	andi	r2,r2,1
 4003268:	103dfa26 	beq	r2,zero,4002a54 <___svfprintf_internal_r+0x3c0>
 400326c:	d8800d17 	ldw	r2,52(sp)
 4003270:	d9000c17 	ldw	r4,48(sp)
 4003274:	b0800015 	stw	r2,0(r22)
 4003278:	d8801b17 	ldw	r2,108(sp)
 400327c:	1907883a 	add	r3,r3,r4
 4003280:	b1000115 	stw	r4,4(r22)
 4003284:	10800044 	addi	r2,r2,1
 4003288:	d8801b15 	stw	r2,108(sp)
 400328c:	d8c01c15 	stw	r3,112(sp)
 4003290:	10800208 	cmpgei	r2,r2,8
 4003294:	1003351e 	bne	r2,zero,4003f6c <___svfprintf_internal_r+0x18d8>
 4003298:	b5800204 	addi	r22,r22,8
 400329c:	d8800817 	ldw	r2,32(sp)
 40032a0:	157fffc4 	addi	r21,r2,-1
 40032a4:	057deb0e 	bge	zero,r21,4002a54 <___svfprintf_internal_r+0x3c0>
 40032a8:	01c10074 	movhi	r7,1025
 40032ac:	a9000450 	cmplti	r4,r21,17
 40032b0:	d8801b17 	ldw	r2,108(sp)
 40032b4:	39c89504 	addi	r7,r7,8788
 40032b8:	2003161e 	bne	r4,zero,4003f14 <___svfprintf_internal_r+0x1880>
 40032bc:	07000404 	movi	fp,16
 40032c0:	3823883a 	mov	r17,r7
 40032c4:	00000406 	br	40032d8 <___svfprintf_internal_r+0xc44>
 40032c8:	b5800204 	addi	r22,r22,8
 40032cc:	ad7ffc04 	addi	r21,r21,-16
 40032d0:	a9000448 	cmpgei	r4,r21,17
 40032d4:	20030e26 	beq	r4,zero,4003f10 <___svfprintf_internal_r+0x187c>
 40032d8:	10800044 	addi	r2,r2,1
 40032dc:	18c00404 	addi	r3,r3,16
 40032e0:	b4400015 	stw	r17,0(r22)
 40032e4:	b7000115 	stw	fp,4(r22)
 40032e8:	d8c01c15 	stw	r3,112(sp)
 40032ec:	d8801b15 	stw	r2,108(sp)
 40032f0:	11000208 	cmpgei	r4,r2,8
 40032f4:	203ff426 	beq	r4,zero,40032c8 <___svfprintf_internal_r+0xc34>
 40032f8:	d9801a04 	addi	r6,sp,104
 40032fc:	900b883a 	mov	r5,r18
 4003300:	9809883a 	mov	r4,r19
 4003304:	4007d3c0 	call	4007d3c <__ssprint_r>
 4003308:	103de31e 	bne	r2,zero,4002a98 <___svfprintf_internal_r+0x404>
 400330c:	d8c01c17 	ldw	r3,112(sp)
 4003310:	d8801b17 	ldw	r2,108(sp)
 4003314:	dd802704 	addi	r22,sp,156
 4003318:	003fec06 	br	40032cc <___svfprintf_internal_r+0xc38>
 400331c:	8519c83a 	sub	r12,r16,r20
 4003320:	033dbd0e 	bge	zero,r12,4002a18 <___svfprintf_internal_r+0x384>
 4003324:	01c10074 	movhi	r7,1025
 4003328:	61000450 	cmplti	r4,r12,17
 400332c:	d8801b17 	ldw	r2,108(sp)
 4003330:	39c89504 	addi	r7,r7,8788
 4003334:	2000281e 	bne	r4,zero,40033d8 <___svfprintf_internal_r+0xd44>
 4003338:	dc400e15 	stw	r17,56(sp)
 400333c:	dc000f15 	stw	r16,60(sp)
 4003340:	b009883a 	mov	r4,r22
 4003344:	03400404 	movi	r13,16
 4003348:	a02d883a 	mov	r22,r20
 400334c:	6021883a 	mov	r16,r12
 4003350:	4029883a 	mov	r20,r8
 4003354:	3823883a 	mov	r17,r7
 4003358:	00000406 	br	400336c <___svfprintf_internal_r+0xcd8>
 400335c:	843ffc04 	addi	r16,r16,-16
 4003360:	81400448 	cmpgei	r5,r16,17
 4003364:	21000204 	addi	r4,r4,8
 4003368:	28001426 	beq	r5,zero,40033bc <___svfprintf_internal_r+0xd28>
 400336c:	10800044 	addi	r2,r2,1
 4003370:	18c00404 	addi	r3,r3,16
 4003374:	24400015 	stw	r17,0(r4)
 4003378:	23400115 	stw	r13,4(r4)
 400337c:	d8c01c15 	stw	r3,112(sp)
 4003380:	d8801b15 	stw	r2,108(sp)
 4003384:	11400208 	cmpgei	r5,r2,8
 4003388:	283ff426 	beq	r5,zero,400335c <___svfprintf_internal_r+0xcc8>
 400338c:	d9801a04 	addi	r6,sp,104
 4003390:	900b883a 	mov	r5,r18
 4003394:	9809883a 	mov	r4,r19
 4003398:	4007d3c0 	call	4007d3c <__ssprint_r>
 400339c:	103dbe1e 	bne	r2,zero,4002a98 <___svfprintf_internal_r+0x404>
 40033a0:	843ffc04 	addi	r16,r16,-16
 40033a4:	81400448 	cmpgei	r5,r16,17
 40033a8:	d8c01c17 	ldw	r3,112(sp)
 40033ac:	d8801b17 	ldw	r2,108(sp)
 40033b0:	d9002704 	addi	r4,sp,156
 40033b4:	03400404 	movi	r13,16
 40033b8:	283fec1e 	bne	r5,zero,400336c <___svfprintf_internal_r+0xcd8>
 40033bc:	8019883a 	mov	r12,r16
 40033c0:	880f883a 	mov	r7,r17
 40033c4:	dc000f17 	ldw	r16,60(sp)
 40033c8:	dc400e17 	ldw	r17,56(sp)
 40033cc:	a011883a 	mov	r8,r20
 40033d0:	b029883a 	mov	r20,r22
 40033d4:	202d883a 	mov	r22,r4
 40033d8:	10800044 	addi	r2,r2,1
 40033dc:	1b07883a 	add	r3,r3,r12
 40033e0:	d8801b15 	stw	r2,108(sp)
 40033e4:	b1c00015 	stw	r7,0(r22)
 40033e8:	b3000115 	stw	r12,4(r22)
 40033ec:	d8c01c15 	stw	r3,112(sp)
 40033f0:	10800208 	cmpgei	r2,r2,8
 40033f4:	1002d31e 	bne	r2,zero,4003f44 <___svfprintf_internal_r+0x18b0>
 40033f8:	4551c83a 	sub	r8,r8,r21
 40033fc:	b5800204 	addi	r22,r22,8
 4003400:	023d870e 	bge	zero,r8,4002a20 <___svfprintf_internal_r+0x38c>
 4003404:	01c10074 	movhi	r7,1025
 4003408:	41000450 	cmplti	r4,r8,17
 400340c:	d8801b17 	ldw	r2,108(sp)
 4003410:	39c89504 	addi	r7,r7,8788
 4003414:	2000221e 	bne	r4,zero,40034a0 <___svfprintf_internal_r+0xe0c>
 4003418:	dc400e15 	stw	r17,56(sp)
 400341c:	dc000f15 	stw	r16,60(sp)
 4003420:	03000404 	movi	r12,16
 4003424:	4021883a 	mov	r16,r8
 4003428:	3823883a 	mov	r17,r7
 400342c:	00000406 	br	4003440 <___svfprintf_internal_r+0xdac>
 4003430:	843ffc04 	addi	r16,r16,-16
 4003434:	81000448 	cmpgei	r4,r16,17
 4003438:	b5800204 	addi	r22,r22,8
 400343c:	20001426 	beq	r4,zero,4003490 <___svfprintf_internal_r+0xdfc>
 4003440:	10800044 	addi	r2,r2,1
 4003444:	18c00404 	addi	r3,r3,16
 4003448:	b4400015 	stw	r17,0(r22)
 400344c:	b3000115 	stw	r12,4(r22)
 4003450:	d8c01c15 	stw	r3,112(sp)
 4003454:	d8801b15 	stw	r2,108(sp)
 4003458:	11000208 	cmpgei	r4,r2,8
 400345c:	203ff426 	beq	r4,zero,4003430 <___svfprintf_internal_r+0xd9c>
 4003460:	d9801a04 	addi	r6,sp,104
 4003464:	900b883a 	mov	r5,r18
 4003468:	9809883a 	mov	r4,r19
 400346c:	4007d3c0 	call	4007d3c <__ssprint_r>
 4003470:	103d891e 	bne	r2,zero,4002a98 <___svfprintf_internal_r+0x404>
 4003474:	843ffc04 	addi	r16,r16,-16
 4003478:	81000448 	cmpgei	r4,r16,17
 400347c:	d8c01c17 	ldw	r3,112(sp)
 4003480:	d8801b17 	ldw	r2,108(sp)
 4003484:	dd802704 	addi	r22,sp,156
 4003488:	03000404 	movi	r12,16
 400348c:	203fec1e 	bne	r4,zero,4003440 <___svfprintf_internal_r+0xdac>
 4003490:	8011883a 	mov	r8,r16
 4003494:	880f883a 	mov	r7,r17
 4003498:	dc000f17 	ldw	r16,60(sp)
 400349c:	dc400e17 	ldw	r17,56(sp)
 40034a0:	10800044 	addi	r2,r2,1
 40034a4:	1a07883a 	add	r3,r3,r8
 40034a8:	d8801b15 	stw	r2,108(sp)
 40034ac:	b1c00015 	stw	r7,0(r22)
 40034b0:	b2000115 	stw	r8,4(r22)
 40034b4:	d8c01c15 	stw	r3,112(sp)
 40034b8:	10800208 	cmpgei	r2,r2,8
 40034bc:	10014a1e 	bne	r2,zero,40039e8 <___svfprintf_internal_r+0x1354>
 40034c0:	b5800204 	addi	r22,r22,8
 40034c4:	003d5606 	br	4002a20 <___svfprintf_internal_r+0x38c>
 40034c8:	10c00060 	cmpeqi	r3,r2,1
 40034cc:	1803cf1e 	bne	r3,zero,400440c <___svfprintf_internal_r+0x1d78>
 40034d0:	108000a0 	cmpeqi	r2,r2,2
 40034d4:	db000417 	ldw	r12,16(sp)
 40034d8:	103ea726 	beq	r2,zero,4002f78 <___svfprintf_internal_r+0x8e4>
 40034dc:	d9000b17 	ldw	r4,44(sp)
 40034e0:	dc402704 	addi	r17,sp,156
 40034e4:	a08003cc 	andi	r2,r20,15
 40034e8:	a806973a 	slli	r3,r21,28
 40034ec:	a028d13a 	srli	r20,r20,4
 40034f0:	2085883a 	add	r2,r4,r2
 40034f4:	10800003 	ldbu	r2,0(r2)
 40034f8:	a82ad13a 	srli	r21,r21,4
 40034fc:	1d28b03a 	or	r20,r3,r20
 4003500:	88bfffc5 	stb	r2,-1(r17)
 4003504:	a544b03a 	or	r2,r20,r21
 4003508:	8c7fffc4 	addi	r17,r17,-1
 400350c:	103ff51e 	bne	r2,zero,40034e4 <___svfprintf_internal_r+0xe50>
 4003510:	d8802704 	addi	r2,sp,156
 4003514:	146bc83a 	sub	r21,r2,r17
 4003518:	db000415 	stw	r12,16(sp)
 400351c:	003eb006 	br	4002fe0 <___svfprintf_internal_r+0x94c>
 4003520:	d9801a04 	addi	r6,sp,104
 4003524:	900b883a 	mov	r5,r18
 4003528:	9809883a 	mov	r4,r19
 400352c:	4007d3c0 	call	4007d3c <__ssprint_r>
 4003530:	103d5326 	beq	r2,zero,4002a80 <___svfprintf_internal_r+0x3ec>
 4003534:	003d5806 	br	4002a98 <___svfprintf_internal_r+0x404>
 4003538:	d8800817 	ldw	r2,32(sp)
 400353c:	da001b17 	ldw	r8,108(sp)
 4003540:	18c00044 	addi	r3,r3,1
 4003544:	10800088 	cmpgei	r2,r2,2
 4003548:	45400044 	addi	r21,r8,1
 400354c:	b7000204 	addi	fp,r22,8
 4003550:	1000f326 	beq	r2,zero,4003920 <___svfprintf_internal_r+0x128c>
 4003554:	00800044 	movi	r2,1
 4003558:	b0800115 	stw	r2,4(r22)
 400355c:	b4400015 	stw	r17,0(r22)
 4003560:	d8c01c15 	stw	r3,112(sp)
 4003564:	dd401b15 	stw	r21,108(sp)
 4003568:	a8800210 	cmplti	r2,r21,8
 400356c:	10012626 	beq	r2,zero,4003a08 <___svfprintf_internal_r+0x1374>
 4003570:	d8800c17 	ldw	r2,48(sp)
 4003574:	d9000d17 	ldw	r4,52(sp)
 4003578:	ad400044 	addi	r21,r21,1
 400357c:	1887883a 	add	r3,r3,r2
 4003580:	e0800115 	stw	r2,4(fp)
 4003584:	e1000015 	stw	r4,0(fp)
 4003588:	d8c01c15 	stw	r3,112(sp)
 400358c:	dd401b15 	stw	r21,108(sp)
 4003590:	a8800208 	cmpgei	r2,r21,8
 4003594:	1001251e 	bne	r2,zero,4003a2c <___svfprintf_internal_r+0x1398>
 4003598:	e7000204 	addi	fp,fp,8
 400359c:	d9000917 	ldw	r4,36(sp)
 40035a0:	d9400a17 	ldw	r5,40(sp)
 40035a4:	aa000044 	addi	r8,r21,1
 40035a8:	000d883a 	mov	r6,zero
 40035ac:	000f883a 	mov	r7,zero
 40035b0:	d8c00e15 	stw	r3,56(sp)
 40035b4:	da000715 	stw	r8,28(sp)
 40035b8:	400f1dc0 	call	400f1dc <__eqdf2>
 40035bc:	d8c00817 	ldw	r3,32(sp)
 40035c0:	da000717 	ldw	r8,28(sp)
 40035c4:	e5800204 	addi	r22,fp,8
 40035c8:	1affffc4 	addi	r11,r3,-1
 40035cc:	d8c00e17 	ldw	r3,56(sp)
 40035d0:	1000e526 	beq	r2,zero,4003968 <___svfprintf_internal_r+0x12d4>
 40035d4:	8a400044 	addi	r9,r17,1
 40035d8:	1ac7883a 	add	r3,r3,r11
 40035dc:	da001b15 	stw	r8,108(sp)
 40035e0:	e2400015 	stw	r9,0(fp)
 40035e4:	e2c00115 	stw	r11,4(fp)
 40035e8:	d8c01c15 	stw	r3,112(sp)
 40035ec:	42000208 	cmpgei	r8,r8,8
 40035f0:	4001b01e 	bne	r8,zero,4003cb4 <___svfprintf_internal_r+0x1620>
 40035f4:	e0800404 	addi	r2,fp,16
 40035f8:	aa000084 	addi	r8,r21,2
 40035fc:	b039883a 	mov	fp,r22
 4003600:	102d883a 	mov	r22,r2
 4003604:	d9001017 	ldw	r4,64(sp)
 4003608:	d8801644 	addi	r2,sp,89
 400360c:	da001b15 	stw	r8,108(sp)
 4003610:	20c7883a 	add	r3,r4,r3
 4003614:	e0800015 	stw	r2,0(fp)
 4003618:	e1000115 	stw	r4,4(fp)
 400361c:	d8c01c15 	stw	r3,112(sp)
 4003620:	42000210 	cmplti	r8,r8,8
 4003624:	403d0b1e 	bne	r8,zero,4002a54 <___svfprintf_internal_r+0x3c0>
 4003628:	d9801a04 	addi	r6,sp,104
 400362c:	900b883a 	mov	r5,r18
 4003630:	9809883a 	mov	r4,r19
 4003634:	4007d3c0 	call	4007d3c <__ssprint_r>
 4003638:	103d171e 	bne	r2,zero,4002a98 <___svfprintf_internal_r+0x404>
 400363c:	d8c01c17 	ldw	r3,112(sp)
 4003640:	dd802704 	addi	r22,sp,156
 4003644:	003d0306 	br	4002a54 <___svfprintf_internal_r+0x3c0>
 4003648:	db000417 	ldw	r12,16(sp)
 400364c:	003e4606 	br	4002f68 <___svfprintf_internal_r+0x8d4>
 4003650:	03010074 	movhi	r12,1025
 4003654:	39000450 	cmplti	r4,r7,17
 4003658:	d8801b17 	ldw	r2,108(sp)
 400365c:	63089904 	addi	r12,r12,8804
 4003660:	2000321e 	bne	r4,zero,400372c <___svfprintf_internal_r+0x1098>
 4003664:	dc401115 	stw	r17,68(sp)
 4003668:	b009883a 	mov	r4,r22
 400366c:	9023883a 	mov	r17,r18
 4003670:	a82d883a 	mov	r22,r21
 4003674:	ddc01215 	stw	r23,72(sp)
 4003678:	03c00404 	movi	r15,16
 400367c:	a02f883a 	mov	r23,r20
 4003680:	db800e15 	stw	r14,56(sp)
 4003684:	8029883a 	mov	r20,r16
 4003688:	db400f15 	stw	r13,60(sp)
 400368c:	402b883a 	mov	r21,r8
 4003690:	3821883a 	mov	r16,r7
 4003694:	6025883a 	mov	r18,r12
 4003698:	00000406 	br	40036ac <___svfprintf_internal_r+0x1018>
 400369c:	843ffc04 	addi	r16,r16,-16
 40036a0:	81800448 	cmpgei	r6,r16,17
 40036a4:	21000204 	addi	r4,r4,8
 40036a8:	30001426 	beq	r6,zero,40036fc <___svfprintf_internal_r+0x1068>
 40036ac:	10800044 	addi	r2,r2,1
 40036b0:	18c00404 	addi	r3,r3,16
 40036b4:	24800015 	stw	r18,0(r4)
 40036b8:	23c00115 	stw	r15,4(r4)
 40036bc:	d8c01c15 	stw	r3,112(sp)
 40036c0:	d8801b15 	stw	r2,108(sp)
 40036c4:	11800208 	cmpgei	r6,r2,8
 40036c8:	303ff426 	beq	r6,zero,400369c <___svfprintf_internal_r+0x1008>
 40036cc:	d9801a04 	addi	r6,sp,104
 40036d0:	880b883a 	mov	r5,r17
 40036d4:	9809883a 	mov	r4,r19
 40036d8:	4007d3c0 	call	4007d3c <__ssprint_r>
 40036dc:	1001b71e 	bne	r2,zero,4003dbc <___svfprintf_internal_r+0x1728>
 40036e0:	843ffc04 	addi	r16,r16,-16
 40036e4:	81800448 	cmpgei	r6,r16,17
 40036e8:	d8c01c17 	ldw	r3,112(sp)
 40036ec:	d8801b17 	ldw	r2,108(sp)
 40036f0:	d9002704 	addi	r4,sp,156
 40036f4:	03c00404 	movi	r15,16
 40036f8:	303fec1e 	bne	r6,zero,40036ac <___svfprintf_internal_r+0x1018>
 40036fc:	800f883a 	mov	r7,r16
 4003700:	9019883a 	mov	r12,r18
 4003704:	a021883a 	mov	r16,r20
 4003708:	8825883a 	mov	r18,r17
 400370c:	b829883a 	mov	r20,r23
 4003710:	db800e17 	ldw	r14,56(sp)
 4003714:	db400f17 	ldw	r13,60(sp)
 4003718:	ddc01217 	ldw	r23,72(sp)
 400371c:	dc401117 	ldw	r17,68(sp)
 4003720:	a811883a 	mov	r8,r21
 4003724:	b02b883a 	mov	r21,r22
 4003728:	202d883a 	mov	r22,r4
 400372c:	10800044 	addi	r2,r2,1
 4003730:	19c7883a 	add	r3,r3,r7
 4003734:	d8801b15 	stw	r2,108(sp)
 4003738:	b3000015 	stw	r12,0(r22)
 400373c:	b1c00115 	stw	r7,4(r22)
 4003740:	d8c01c15 	stw	r3,112(sp)
 4003744:	10800208 	cmpgei	r2,r2,8
 4003748:	1001651e 	bne	r2,zero,4003ce0 <___svfprintf_internal_r+0x164c>
 400374c:	b5800204 	addi	r22,r22,8
 4003750:	003c9406 	br	40029a4 <___svfprintf_internal_r+0x310>
 4003754:	d9801a04 	addi	r6,sp,104
 4003758:	900b883a 	mov	r5,r18
 400375c:	9809883a 	mov	r4,r19
 4003760:	da001115 	stw	r8,68(sp)
 4003764:	db400f15 	stw	r13,60(sp)
 4003768:	db800e15 	stw	r14,56(sp)
 400376c:	4007d3c0 	call	4007d3c <__ssprint_r>
 4003770:	103cc91e 	bne	r2,zero,4002a98 <___svfprintf_internal_r+0x404>
 4003774:	d8c01c17 	ldw	r3,112(sp)
 4003778:	da001117 	ldw	r8,68(sp)
 400377c:	db400f17 	ldw	r13,60(sp)
 4003780:	db800e17 	ldw	r14,56(sp)
 4003784:	dd802704 	addi	r22,sp,156
 4003788:	003c9406 	br	40029dc <___svfprintf_internal_r+0x348>
 400378c:	d9801a04 	addi	r6,sp,104
 4003790:	900b883a 	mov	r5,r18
 4003794:	9809883a 	mov	r4,r19
 4003798:	da000f15 	stw	r8,60(sp)
 400379c:	db400e15 	stw	r13,56(sp)
 40037a0:	4007d3c0 	call	4007d3c <__ssprint_r>
 40037a4:	103cbc1e 	bne	r2,zero,4002a98 <___svfprintf_internal_r+0x404>
 40037a8:	d8c01c17 	ldw	r3,112(sp)
 40037ac:	da000f17 	ldw	r8,60(sp)
 40037b0:	db400e17 	ldw	r13,56(sp)
 40037b4:	dd802704 	addi	r22,sp,156
 40037b8:	003c9506 	br	4002a10 <___svfprintf_internal_r+0x37c>
 40037bc:	d9401417 	ldw	r5,80(sp)
 40037c0:	0141550e 	bge	zero,r5,4003d18 <___svfprintf_internal_r+0x1684>
 40037c4:	d8800717 	ldw	r2,28(sp)
 40037c8:	d9000817 	ldw	r4,32(sp)
 40037cc:	102b883a 	mov	r21,r2
 40037d0:	2080c716 	blt	r4,r2,4003af0 <___svfprintf_internal_r+0x145c>
 40037d4:	05400a0e 	bge	zero,r21,4003800 <___svfprintf_internal_r+0x116c>
 40037d8:	d8801b17 	ldw	r2,108(sp)
 40037dc:	1d47883a 	add	r3,r3,r21
 40037e0:	b4400015 	stw	r17,0(r22)
 40037e4:	10800044 	addi	r2,r2,1
 40037e8:	d8801b15 	stw	r2,108(sp)
 40037ec:	b5400115 	stw	r21,4(r22)
 40037f0:	d8c01c15 	stw	r3,112(sp)
 40037f4:	10800208 	cmpgei	r2,r2,8
 40037f8:	10032c1e 	bne	r2,zero,40044ac <___svfprintf_internal_r+0x1e18>
 40037fc:	b5800204 	addi	r22,r22,8
 4003800:	a800d016 	blt	r21,zero,4003b44 <___svfprintf_internal_r+0x14b0>
 4003804:	d8800717 	ldw	r2,28(sp)
 4003808:	156bc83a 	sub	r21,r2,r21
 400380c:	0540d816 	blt	zero,r21,4003b70 <___svfprintf_internal_r+0x14dc>
 4003810:	dd401417 	ldw	r21,80(sp)
 4003814:	d8800817 	ldw	r2,32(sp)
 4003818:	a880b80e 	bge	r21,r2,4003afc <___svfprintf_internal_r+0x1468>
 400381c:	d8800d17 	ldw	r2,52(sp)
 4003820:	d9000c17 	ldw	r4,48(sp)
 4003824:	b0800015 	stw	r2,0(r22)
 4003828:	d8801b17 	ldw	r2,108(sp)
 400382c:	1907883a 	add	r3,r3,r4
 4003830:	b1000115 	stw	r4,4(r22)
 4003834:	10800044 	addi	r2,r2,1
 4003838:	d8801b15 	stw	r2,108(sp)
 400383c:	d8c01c15 	stw	r3,112(sp)
 4003840:	10800208 	cmpgei	r2,r2,8
 4003844:	1002bd1e 	bne	r2,zero,400433c <___svfprintf_internal_r+0x1ca8>
 4003848:	b5800204 	addi	r22,r22,8
 400384c:	d9000817 	ldw	r4,32(sp)
 4003850:	d9400717 	ldw	r5,28(sp)
 4003854:	2545c83a 	sub	r2,r4,r21
 4003858:	2149c83a 	sub	r4,r4,r5
 400385c:	102b883a 	mov	r21,r2
 4003860:	2080010e 	bge	r4,r2,4003868 <___svfprintf_internal_r+0x11d4>
 4003864:	202b883a 	mov	r21,r4
 4003868:	05400c0e 	bge	zero,r21,400389c <___svfprintf_internal_r+0x1208>
 400386c:	d9000717 	ldw	r4,28(sp)
 4003870:	1d47883a 	add	r3,r3,r21
 4003874:	b5400115 	stw	r21,4(r22)
 4003878:	8913883a 	add	r9,r17,r4
 400387c:	d9001b17 	ldw	r4,108(sp)
 4003880:	b2400015 	stw	r9,0(r22)
 4003884:	d8c01c15 	stw	r3,112(sp)
 4003888:	21000044 	addi	r4,r4,1
 400388c:	d9001b15 	stw	r4,108(sp)
 4003890:	21000208 	cmpgei	r4,r4,8
 4003894:	20030e1e 	bne	r4,zero,40044d0 <___svfprintf_internal_r+0x1e3c>
 4003898:	b5800204 	addi	r22,r22,8
 400389c:	a800010e 	bge	r21,zero,40038a4 <___svfprintf_internal_r+0x1210>
 40038a0:	002b883a 	mov	r21,zero
 40038a4:	156bc83a 	sub	r21,r2,r21
 40038a8:	057c6a0e 	bge	zero,r21,4002a54 <___svfprintf_internal_r+0x3c0>
 40038ac:	01c10074 	movhi	r7,1025
 40038b0:	a9000450 	cmplti	r4,r21,17
 40038b4:	d8801b17 	ldw	r2,108(sp)
 40038b8:	39c89504 	addi	r7,r7,8788
 40038bc:	2001951e 	bne	r4,zero,4003f14 <___svfprintf_internal_r+0x1880>
 40038c0:	07000404 	movi	fp,16
 40038c4:	3823883a 	mov	r17,r7
 40038c8:	00000406 	br	40038dc <___svfprintf_internal_r+0x1248>
 40038cc:	b5800204 	addi	r22,r22,8
 40038d0:	ad7ffc04 	addi	r21,r21,-16
 40038d4:	a9000448 	cmpgei	r4,r21,17
 40038d8:	20018d26 	beq	r4,zero,4003f10 <___svfprintf_internal_r+0x187c>
 40038dc:	10800044 	addi	r2,r2,1
 40038e0:	18c00404 	addi	r3,r3,16
 40038e4:	b4400015 	stw	r17,0(r22)
 40038e8:	b7000115 	stw	fp,4(r22)
 40038ec:	d8c01c15 	stw	r3,112(sp)
 40038f0:	d8801b15 	stw	r2,108(sp)
 40038f4:	11000208 	cmpgei	r4,r2,8
 40038f8:	203ff426 	beq	r4,zero,40038cc <___svfprintf_internal_r+0x1238>
 40038fc:	d9801a04 	addi	r6,sp,104
 4003900:	900b883a 	mov	r5,r18
 4003904:	9809883a 	mov	r4,r19
 4003908:	4007d3c0 	call	4007d3c <__ssprint_r>
 400390c:	103c621e 	bne	r2,zero,4002a98 <___svfprintf_internal_r+0x404>
 4003910:	d8c01c17 	ldw	r3,112(sp)
 4003914:	d8801b17 	ldw	r2,108(sp)
 4003918:	dd802704 	addi	r22,sp,156
 400391c:	003fec06 	br	40038d0 <___svfprintf_internal_r+0x123c>
 4003920:	d8800417 	ldw	r2,16(sp)
 4003924:	1080004c 	andi	r2,r2,1
 4003928:	103f0a1e 	bne	r2,zero,4003554 <___svfprintf_internal_r+0xec0>
 400392c:	00800044 	movi	r2,1
 4003930:	dd401b15 	stw	r21,108(sp)
 4003934:	b4400015 	stw	r17,0(r22)
 4003938:	b0800115 	stw	r2,4(r22)
 400393c:	d8c01c15 	stw	r3,112(sp)
 4003940:	ad400208 	cmpgei	r21,r21,8
 4003944:	a800db1e 	bne	r21,zero,4003cb4 <___svfprintf_internal_r+0x1620>
 4003948:	42000084 	addi	r8,r8,2
 400394c:	b5800404 	addi	r22,r22,16
 4003950:	003f2c06 	br	4003604 <___svfprintf_internal_r+0xf70>
 4003954:	4002ad1e 	bne	r8,zero,400440c <___svfprintf_internal_r+0x1d78>
 4003958:	0011883a 	mov	r8,zero
 400395c:	002b883a 	mov	r21,zero
 4003960:	dc402704 	addi	r17,sp,156
 4003964:	003d9e06 	br	4002fe0 <___svfprintf_internal_r+0x94c>
 4003968:	02ff260e 	bge	zero,r11,4003604 <___svfprintf_internal_r+0xf70>
 400396c:	58800450 	cmplti	r2,r11,17
 4003970:	01c10074 	movhi	r7,1025
 4003974:	10034d1e 	bne	r2,zero,40046ac <___svfprintf_internal_r+0x2018>
 4003978:	39c89504 	addi	r7,r7,8788
 400397c:	dc000715 	stw	r16,28(sp)
 4003980:	05800404 	movi	r22,16
 4003984:	5823883a 	mov	r17,r11
 4003988:	3821883a 	mov	r16,r7
 400398c:	402b883a 	mov	r21,r8
 4003990:	00000506 	br	40039a8 <___svfprintf_internal_r+0x1314>
 4003994:	e7000204 	addi	fp,fp,8
 4003998:	8c7ffc04 	addi	r17,r17,-16
 400399c:	88800448 	cmpgei	r2,r17,17
 40039a0:	1001ae26 	beq	r2,zero,400405c <___svfprintf_internal_r+0x19c8>
 40039a4:	ad400044 	addi	r21,r21,1
 40039a8:	18c00404 	addi	r3,r3,16
 40039ac:	e4000015 	stw	r16,0(fp)
 40039b0:	e5800115 	stw	r22,4(fp)
 40039b4:	d8c01c15 	stw	r3,112(sp)
 40039b8:	dd401b15 	stw	r21,108(sp)
 40039bc:	a8800208 	cmpgei	r2,r21,8
 40039c0:	103ff426 	beq	r2,zero,4003994 <___svfprintf_internal_r+0x1300>
 40039c4:	d9801a04 	addi	r6,sp,104
 40039c8:	900b883a 	mov	r5,r18
 40039cc:	9809883a 	mov	r4,r19
 40039d0:	4007d3c0 	call	4007d3c <__ssprint_r>
 40039d4:	103c301e 	bne	r2,zero,4002a98 <___svfprintf_internal_r+0x404>
 40039d8:	dd401b17 	ldw	r21,108(sp)
 40039dc:	d8c01c17 	ldw	r3,112(sp)
 40039e0:	df002704 	addi	fp,sp,156
 40039e4:	003fec06 	br	4003998 <___svfprintf_internal_r+0x1304>
 40039e8:	d9801a04 	addi	r6,sp,104
 40039ec:	900b883a 	mov	r5,r18
 40039f0:	9809883a 	mov	r4,r19
 40039f4:	4007d3c0 	call	4007d3c <__ssprint_r>
 40039f8:	103c271e 	bne	r2,zero,4002a98 <___svfprintf_internal_r+0x404>
 40039fc:	d8c01c17 	ldw	r3,112(sp)
 4003a00:	dd802704 	addi	r22,sp,156
 4003a04:	003c0606 	br	4002a20 <___svfprintf_internal_r+0x38c>
 4003a08:	d9801a04 	addi	r6,sp,104
 4003a0c:	900b883a 	mov	r5,r18
 4003a10:	9809883a 	mov	r4,r19
 4003a14:	4007d3c0 	call	4007d3c <__ssprint_r>
 4003a18:	103c1f1e 	bne	r2,zero,4002a98 <___svfprintf_internal_r+0x404>
 4003a1c:	d8c01c17 	ldw	r3,112(sp)
 4003a20:	dd401b17 	ldw	r21,108(sp)
 4003a24:	df002704 	addi	fp,sp,156
 4003a28:	003ed106 	br	4003570 <___svfprintf_internal_r+0xedc>
 4003a2c:	d9801a04 	addi	r6,sp,104
 4003a30:	900b883a 	mov	r5,r18
 4003a34:	9809883a 	mov	r4,r19
 4003a38:	4007d3c0 	call	4007d3c <__ssprint_r>
 4003a3c:	103c161e 	bne	r2,zero,4002a98 <___svfprintf_internal_r+0x404>
 4003a40:	d8c01c17 	ldw	r3,112(sp)
 4003a44:	dd401b17 	ldw	r21,108(sp)
 4003a48:	df002704 	addi	fp,sp,156
 4003a4c:	003ed306 	br	400359c <___svfprintf_internal_r+0xf08>
 4003a50:	dc402704 	addi	r17,sp,156
 4003a54:	003d6206 	br	4002fe0 <___svfprintf_internal_r+0x94c>
 4003a58:	25000017 	ldw	r20,0(r4)
 4003a5c:	002b883a 	mov	r21,zero
 4003a60:	d8c00615 	stw	r3,24(sp)
 4003a64:	0005883a 	mov	r2,zero
 4003a68:	003c2e06 	br	4002b24 <___svfprintf_internal_r+0x490>
 4003a6c:	d9000517 	ldw	r4,20(sp)
 4003a70:	2005d7fa 	srai	r2,r4,31
 4003a74:	19000015 	stw	r4,0(r3)
 4003a78:	18800115 	stw	r2,4(r3)
 4003a7c:	003b2b06 	br	400272c <___svfprintf_internal_r+0x98>
 4003a80:	25000017 	ldw	r20,0(r4)
 4003a84:	002b883a 	mov	r21,zero
 4003a88:	d8c00615 	stw	r3,24(sp)
 4003a8c:	00800044 	movi	r2,1
 4003a90:	003c2406 	br	4002b24 <___svfprintf_internal_r+0x490>
 4003a94:	25000017 	ldw	r20,0(r4)
 4003a98:	d8c00615 	stw	r3,24(sp)
 4003a9c:	a02bd7fa 	srai	r21,r20,31
 4003aa0:	a805883a 	mov	r2,r21
 4003aa4:	003cd506 	br	4002dfc <___svfprintf_internal_r+0x768>
 4003aa8:	18800017 	ldw	r2,0(r3)
 4003aac:	d8800915 	stw	r2,36(sp)
 4003ab0:	18800117 	ldw	r2,4(r3)
 4003ab4:	d8800a15 	stw	r2,40(sp)
 4003ab8:	003c5006 	br	4002bfc <___svfprintf_internal_r+0x568>
 4003abc:	25000017 	ldw	r20,0(r4)
 4003ac0:	002b883a 	mov	r21,zero
 4003ac4:	d8c00615 	stw	r3,24(sp)
 4003ac8:	003d9306 	br	4003118 <___svfprintf_internal_r+0xa84>
 4003acc:	00800c04 	movi	r2,48
 4003ad0:	d8801385 	stb	r2,78(sp)
 4003ad4:	df0013c5 	stb	fp,79(sp)
 4003ad8:	63000094 	ori	r12,r12,2
 4003adc:	00800084 	movi	r2,2
 4003ae0:	003c1006 	br	4002b24 <___svfprintf_internal_r+0x490>
 4003ae4:	0421c83a 	sub	r16,zero,r16
 4003ae8:	d8800615 	stw	r2,24(sp)
 4003aec:	003d5d06 	br	4003064 <___svfprintf_internal_r+0x9d0>
 4003af0:	202b883a 	mov	r21,r4
 4003af4:	057f3816 	blt	zero,r21,40037d8 <___svfprintf_internal_r+0x1144>
 4003af8:	003f4106 	br	4003800 <___svfprintf_internal_r+0x116c>
 4003afc:	d8800417 	ldw	r2,16(sp)
 4003b00:	1080004c 	andi	r2,r2,1
 4003b04:	103f451e 	bne	r2,zero,400381c <___svfprintf_internal_r+0x1188>
 4003b08:	d9000817 	ldw	r4,32(sp)
 4003b0c:	d9400717 	ldw	r5,28(sp)
 4003b10:	2545c83a 	sub	r2,r4,r21
 4003b14:	2179c83a 	sub	fp,r4,r5
 4003b18:	102b883a 	mov	r21,r2
 4003b1c:	e0bf5f0e 	bge	fp,r2,400389c <___svfprintf_internal_r+0x1208>
 4003b20:	e02b883a 	mov	r21,fp
 4003b24:	003f5d06 	br	400389c <___svfprintf_internal_r+0x1208>
 4003b28:	bf000043 	ldbu	fp,1(r23)
 4003b2c:	63000814 	ori	r12,r12,32
 4003b30:	bdc00044 	addi	r23,r23,1
 4003b34:	e2c03fcc 	andi	r11,fp,255
 4003b38:	5ac0201c 	xori	r11,r11,128
 4003b3c:	5affe004 	addi	r11,r11,-128
 4003b40:	003b1206 	br	400278c <___svfprintf_internal_r+0xf8>
 4003b44:	002b883a 	mov	r21,zero
 4003b48:	003f2e06 	br	4003804 <___svfprintf_internal_r+0x1170>
 4003b4c:	01401004 	movi	r5,64
 4003b50:	9809883a 	mov	r4,r19
 4003b54:	40060ac0 	call	40060ac <_malloc_r>
 4003b58:	90800015 	stw	r2,0(r18)
 4003b5c:	90800415 	stw	r2,16(r18)
 4003b60:	1002eb26 	beq	r2,zero,4004710 <___svfprintf_internal_r+0x207c>
 4003b64:	00801004 	movi	r2,64
 4003b68:	90800515 	stw	r2,20(r18)
 4003b6c:	003ae306 	br	40026fc <___svfprintf_internal_r+0x68>
 4003b70:	01c10074 	movhi	r7,1025
 4003b74:	a9000450 	cmplti	r4,r21,17
 4003b78:	d8801b17 	ldw	r2,108(sp)
 4003b7c:	39c89504 	addi	r7,r7,8788
 4003b80:	2001e01e 	bne	r4,zero,4004304 <___svfprintf_internal_r+0x1c70>
 4003b84:	dc000e15 	stw	r16,56(sp)
 4003b88:	07000404 	movi	fp,16
 4003b8c:	3821883a 	mov	r16,r7
 4003b90:	00000406 	br	4003ba4 <___svfprintf_internal_r+0x1510>
 4003b94:	b5800204 	addi	r22,r22,8
 4003b98:	ad7ffc04 	addi	r21,r21,-16
 4003b9c:	a9000448 	cmpgei	r4,r21,17
 4003ba0:	2001d626 	beq	r4,zero,40042fc <___svfprintf_internal_r+0x1c68>
 4003ba4:	10800044 	addi	r2,r2,1
 4003ba8:	18c00404 	addi	r3,r3,16
 4003bac:	b4000015 	stw	r16,0(r22)
 4003bb0:	b7000115 	stw	fp,4(r22)
 4003bb4:	d8c01c15 	stw	r3,112(sp)
 4003bb8:	d8801b15 	stw	r2,108(sp)
 4003bbc:	11000208 	cmpgei	r4,r2,8
 4003bc0:	203ff426 	beq	r4,zero,4003b94 <___svfprintf_internal_r+0x1500>
 4003bc4:	d9801a04 	addi	r6,sp,104
 4003bc8:	900b883a 	mov	r5,r18
 4003bcc:	9809883a 	mov	r4,r19
 4003bd0:	4007d3c0 	call	4007d3c <__ssprint_r>
 4003bd4:	103bb01e 	bne	r2,zero,4002a98 <___svfprintf_internal_r+0x404>
 4003bd8:	d8c01c17 	ldw	r3,112(sp)
 4003bdc:	d8801b17 	ldw	r2,108(sp)
 4003be0:	dd802704 	addi	r22,sp,156
 4003be4:	003fec06 	br	4003b98 <___svfprintf_internal_r+0x1504>
 4003be8:	8809883a 	mov	r4,r17
 4003bec:	db000415 	stw	r12,16(sp)
 4003bf0:	d8c00615 	stw	r3,24(sp)
 4003bf4:	4007ca40 	call	4007ca4 <strlen>
 4003bf8:	db000417 	ldw	r12,16(sp)
 4003bfc:	102b883a 	mov	r21,r2
 4003c00:	1029883a 	mov	r20,r2
 4003c04:	003b5a06 	br	4002970 <___svfprintf_internal_r+0x2dc>
 4003c08:	dc402704 	addi	r17,sp,156
 4003c0c:	a805883a 	mov	r2,r21
 4003c10:	dc000715 	stw	r16,28(sp)
 4003c14:	902b883a 	mov	r21,r18
 4003c18:	8821883a 	mov	r16,r17
 4003c1c:	db000415 	stw	r12,16(sp)
 4003c20:	a023883a 	mov	r17,r20
 4003c24:	da000e15 	stw	r8,56(sp)
 4003c28:	9829883a 	mov	r20,r19
 4003c2c:	1025883a 	mov	r18,r2
 4003c30:	6827883a 	mov	r19,r13
 4003c34:	8809883a 	mov	r4,r17
 4003c38:	900b883a 	mov	r5,r18
 4003c3c:	01800284 	movi	r6,10
 4003c40:	000f883a 	mov	r7,zero
 4003c44:	400d9f80 	call	400d9f8 <__umoddi3>
 4003c48:	10800c04 	addi	r2,r2,48
 4003c4c:	8809883a 	mov	r4,r17
 4003c50:	900b883a 	mov	r5,r18
 4003c54:	01800284 	movi	r6,10
 4003c58:	000f883a 	mov	r7,zero
 4003c5c:	80bfffc5 	stb	r2,-1(r16)
 4003c60:	400d3d80 	call	400d3d8 <__udivdi3>
 4003c64:	900d883a 	mov	r6,r18
 4003c68:	880f883a 	mov	r7,r17
 4003c6c:	843fffc4 	addi	r16,r16,-1
 4003c70:	1023883a 	mov	r17,r2
 4003c74:	1825883a 	mov	r18,r3
 4003c78:	303fee1e 	bne	r6,zero,4003c34 <___svfprintf_internal_r+0x15a0>
 4003c7c:	39c002a8 	cmpgeui	r7,r7,10
 4003c80:	383fec1e 	bne	r7,zero,4003c34 <___svfprintf_internal_r+0x15a0>
 4003c84:	8023883a 	mov	r17,r16
 4003c88:	d8802704 	addi	r2,sp,156
 4003c8c:	981b883a 	mov	r13,r19
 4003c90:	a825883a 	mov	r18,r21
 4003c94:	dc000717 	ldw	r16,28(sp)
 4003c98:	da000e17 	ldw	r8,56(sp)
 4003c9c:	a027883a 	mov	r19,r20
 4003ca0:	146bc83a 	sub	r21,r2,r17
 4003ca4:	003cce06 	br	4002fe0 <___svfprintf_internal_r+0x94c>
 4003ca8:	d8800517 	ldw	r2,20(sp)
 4003cac:	18800015 	stw	r2,0(r3)
 4003cb0:	003a9e06 	br	400272c <___svfprintf_internal_r+0x98>
 4003cb4:	d9801a04 	addi	r6,sp,104
 4003cb8:	900b883a 	mov	r5,r18
 4003cbc:	9809883a 	mov	r4,r19
 4003cc0:	4007d3c0 	call	4007d3c <__ssprint_r>
 4003cc4:	103b741e 	bne	r2,zero,4002a98 <___svfprintf_internal_r+0x404>
 4003cc8:	da001b17 	ldw	r8,108(sp)
 4003ccc:	d8c01c17 	ldw	r3,112(sp)
 4003cd0:	dd802904 	addi	r22,sp,164
 4003cd4:	42000044 	addi	r8,r8,1
 4003cd8:	df002704 	addi	fp,sp,156
 4003cdc:	003e4906 	br	4003604 <___svfprintf_internal_r+0xf70>
 4003ce0:	d9801a04 	addi	r6,sp,104
 4003ce4:	900b883a 	mov	r5,r18
 4003ce8:	9809883a 	mov	r4,r19
 4003cec:	da001115 	stw	r8,68(sp)
 4003cf0:	db400f15 	stw	r13,60(sp)
 4003cf4:	db800e15 	stw	r14,56(sp)
 4003cf8:	4007d3c0 	call	4007d3c <__ssprint_r>
 4003cfc:	103b661e 	bne	r2,zero,4002a98 <___svfprintf_internal_r+0x404>
 4003d00:	d8c01c17 	ldw	r3,112(sp)
 4003d04:	da001117 	ldw	r8,68(sp)
 4003d08:	db400f17 	ldw	r13,60(sp)
 4003d0c:	db800e17 	ldw	r14,56(sp)
 4003d10:	dd802704 	addi	r22,sp,156
 4003d14:	003b2306 	br	40029a4 <___svfprintf_internal_r+0x310>
 4003d18:	d8801b17 	ldw	r2,108(sp)
 4003d1c:	01010074 	movhi	r4,1025
 4003d20:	21089404 	addi	r4,r4,8784
 4003d24:	10800044 	addi	r2,r2,1
 4003d28:	18c00044 	addi	r3,r3,1
 4003d2c:	b1000015 	stw	r4,0(r22)
 4003d30:	01000044 	movi	r4,1
 4003d34:	d8801b15 	stw	r2,108(sp)
 4003d38:	b1000115 	stw	r4,4(r22)
 4003d3c:	d8c01c15 	stw	r3,112(sp)
 4003d40:	10800208 	cmpgei	r2,r2,8
 4003d44:	1001861e 	bne	r2,zero,4004360 <___svfprintf_internal_r+0x1ccc>
 4003d48:	b5800204 	addi	r22,r22,8
 4003d4c:	2800971e 	bne	r5,zero,4003fac <___svfprintf_internal_r+0x1918>
 4003d50:	d8800417 	ldw	r2,16(sp)
 4003d54:	d9000817 	ldw	r4,32(sp)
 4003d58:	1080004c 	andi	r2,r2,1
 4003d5c:	1104b03a 	or	r2,r2,r4
 4003d60:	103b3c26 	beq	r2,zero,4002a54 <___svfprintf_internal_r+0x3c0>
 4003d64:	d8800d17 	ldw	r2,52(sp)
 4003d68:	d9000c17 	ldw	r4,48(sp)
 4003d6c:	b0800015 	stw	r2,0(r22)
 4003d70:	d8801b17 	ldw	r2,108(sp)
 4003d74:	20c7883a 	add	r3,r4,r3
 4003d78:	b1000115 	stw	r4,4(r22)
 4003d7c:	10800044 	addi	r2,r2,1
 4003d80:	d8c01c15 	stw	r3,112(sp)
 4003d84:	d8801b15 	stw	r2,108(sp)
 4003d88:	11000208 	cmpgei	r4,r2,8
 4003d8c:	20018c1e 	bne	r4,zero,40043c0 <___svfprintf_internal_r+0x1d2c>
 4003d90:	b5800204 	addi	r22,r22,8
 4003d94:	d9000817 	ldw	r4,32(sp)
 4003d98:	10800044 	addi	r2,r2,1
 4003d9c:	d8801b15 	stw	r2,108(sp)
 4003da0:	20c7883a 	add	r3,r4,r3
 4003da4:	b4400015 	stw	r17,0(r22)
 4003da8:	b1000115 	stw	r4,4(r22)
 4003dac:	d8c01c15 	stw	r3,112(sp)
 4003db0:	10800208 	cmpgei	r2,r2,8
 4003db4:	103b2626 	beq	r2,zero,4002a50 <___svfprintf_internal_r+0x3bc>
 4003db8:	003e1b06 	br	4003628 <___svfprintf_internal_r+0xf94>
 4003dbc:	8825883a 	mov	r18,r17
 4003dc0:	003b3506 	br	4002a98 <___svfprintf_internal_r+0x404>
 4003dc4:	d9000917 	ldw	r4,36(sp)
 4003dc8:	d9400a17 	ldw	r5,40(sp)
 4003dcc:	da000615 	stw	r8,24(sp)
 4003dd0:	200d883a 	mov	r6,r4
 4003dd4:	280f883a 	mov	r7,r5
 4003dd8:	db000415 	stw	r12,16(sp)
 4003ddc:	401048c0 	call	401048c <__unorddf2>
 4003de0:	db000417 	ldw	r12,16(sp)
 4003de4:	da000617 	ldw	r8,24(sp)
 4003de8:	10021e1e 	bne	r2,zero,4004664 <___svfprintf_internal_r+0x1fd0>
 4003dec:	057ff7c4 	movi	r21,-33
 4003df0:	40bfffe0 	cmpeqi	r2,r8,-1
 4003df4:	e56a703a 	and	r21,fp,r21
 4003df8:	1001c01e 	bne	r2,zero,40044fc <___svfprintf_internal_r+0x1e68>
 4003dfc:	a88011d8 	cmpnei	r2,r21,71
 4003e00:	10004026 	beq	r2,zero,4003f04 <___svfprintf_internal_r+0x1870>
 4003e04:	60804014 	ori	r2,r12,256
 4003e08:	d8800415 	stw	r2,16(sp)
 4003e0c:	d8800a17 	ldw	r2,40(sp)
 4003e10:	10015c16 	blt	r2,zero,4004384 <___svfprintf_internal_r+0x1cf0>
 4003e14:	dd000a17 	ldw	r20,40(sp)
 4003e18:	d8000605 	stb	zero,24(sp)
 4003e1c:	e08019a0 	cmpeqi	r2,fp,102
 4003e20:	d8800f15 	stw	r2,60(sp)
 4003e24:	1000a01e 	bne	r2,zero,40040a8 <___svfprintf_internal_r+0x1a14>
 4003e28:	e08011a0 	cmpeqi	r2,fp,70
 4003e2c:	10009e1e 	bne	r2,zero,40040a8 <___svfprintf_internal_r+0x1a14>
 4003e30:	a8801158 	cmpnei	r2,r21,69
 4003e34:	10017c26 	beq	r2,zero,4004428 <___svfprintf_internal_r+0x1d94>
 4003e38:	d8801804 	addi	r2,sp,96
 4003e3c:	d8800315 	stw	r2,12(sp)
 4003e40:	d9400917 	ldw	r5,36(sp)
 4003e44:	d8801504 	addi	r2,sp,84
 4003e48:	d8800215 	stw	r2,8(sp)
 4003e4c:	d8801404 	addi	r2,sp,80
 4003e50:	da000015 	stw	r8,0(sp)
 4003e54:	9809883a 	mov	r4,r19
 4003e58:	d8800115 	stw	r2,4(sp)
 4003e5c:	01c00084 	movi	r7,2
 4003e60:	a00d883a 	mov	r6,r20
 4003e64:	db000815 	stw	r12,32(sp)
 4003e68:	da000715 	stw	r8,28(sp)
 4003e6c:	40049440 	call	4004944 <_dtoa_r>
 4003e70:	da000717 	ldw	r8,28(sp)
 4003e74:	e10019d8 	cmpnei	r4,fp,103
 4003e78:	db000817 	ldw	r12,32(sp)
 4003e7c:	1023883a 	mov	r17,r2
 4003e80:	4007883a 	mov	r3,r8
 4003e84:	20017c1e 	bne	r4,zero,4004478 <___svfprintf_internal_r+0x1de4>
 4003e88:	6080004c 	andi	r2,r12,1
 4003e8c:	10017c1e 	bne	r2,zero,4004480 <___svfprintf_internal_r+0x1dec>
 4003e90:	d8801417 	ldw	r2,80(sp)
 4003e94:	ad4011e0 	cmpeqi	r21,r21,71
 4003e98:	d8800715 	stw	r2,28(sp)
 4003e9c:	d8801817 	ldw	r2,96(sp)
 4003ea0:	1445c83a 	sub	r2,r2,r17
 4003ea4:	d8800815 	stw	r2,32(sp)
 4003ea8:	a800d226 	beq	r21,zero,40041f4 <___svfprintf_internal_r+0x1b60>
 4003eac:	d8c00717 	ldw	r3,28(sp)
 4003eb0:	18bfff50 	cmplti	r2,r3,-3
 4003eb4:	1000ce1e 	bne	r2,zero,40041f0 <___svfprintf_internal_r+0x1b5c>
 4003eb8:	40c0cd16 	blt	r8,r3,40041f0 <___svfprintf_internal_r+0x1b5c>
 4003ebc:	d8800717 	ldw	r2,28(sp)
 4003ec0:	d8c00817 	ldw	r3,32(sp)
 4003ec4:	10c19316 	blt	r2,r3,4004514 <___svfprintf_internal_r+0x1e80>
 4003ec8:	6300004c 	andi	r12,r12,1
 4003ecc:	6001d41e 	bne	r12,zero,4004620 <___svfprintf_internal_r+0x1f8c>
 4003ed0:	1029883a 	mov	r20,r2
 4003ed4:	1000010e 	bge	r2,zero,4003edc <___svfprintf_internal_r+0x1848>
 4003ed8:	0029883a 	mov	r20,zero
 4003edc:	dd400717 	ldw	r21,28(sp)
 4003ee0:	070019c4 	movi	fp,103
 4003ee4:	d8800607 	ldb	r2,24(sp)
 4003ee8:	10016b26 	beq	r2,zero,4004498 <___svfprintf_internal_r+0x1e04>
 4003eec:	00800b44 	movi	r2,45
 4003ef0:	d8801345 	stb	r2,77(sp)
 4003ef4:	d8800e17 	ldw	r2,56(sp)
 4003ef8:	0011883a 	mov	r8,zero
 4003efc:	d8800615 	stw	r2,24(sp)
 4003f00:	003c3f06 	br	4003000 <___svfprintf_internal_r+0x96c>
 4003f04:	403fbf1e 	bne	r8,zero,4003e04 <___svfprintf_internal_r+0x1770>
 4003f08:	02000044 	movi	r8,1
 4003f0c:	003fbd06 	br	4003e04 <___svfprintf_internal_r+0x1770>
 4003f10:	880f883a 	mov	r7,r17
 4003f14:	10800044 	addi	r2,r2,1
 4003f18:	1d47883a 	add	r3,r3,r21
 4003f1c:	b1c00015 	stw	r7,0(r22)
 4003f20:	003ac606 	br	4002a3c <___svfprintf_internal_r+0x3a8>
 4003f24:	d9801a04 	addi	r6,sp,104
 4003f28:	900b883a 	mov	r5,r18
 4003f2c:	9809883a 	mov	r4,r19
 4003f30:	4007d3c0 	call	4007d3c <__ssprint_r>
 4003f34:	103ad81e 	bne	r2,zero,4002a98 <___svfprintf_internal_r+0x404>
 4003f38:	d8c01c17 	ldw	r3,112(sp)
 4003f3c:	dd802704 	addi	r22,sp,156
 4003f40:	003cc406 	br	4003254 <___svfprintf_internal_r+0xbc0>
 4003f44:	d9801a04 	addi	r6,sp,104
 4003f48:	900b883a 	mov	r5,r18
 4003f4c:	9809883a 	mov	r4,r19
 4003f50:	da000e15 	stw	r8,56(sp)
 4003f54:	4007d3c0 	call	4007d3c <__ssprint_r>
 4003f58:	103acf1e 	bne	r2,zero,4002a98 <___svfprintf_internal_r+0x404>
 4003f5c:	d8c01c17 	ldw	r3,112(sp)
 4003f60:	da000e17 	ldw	r8,56(sp)
 4003f64:	dd802704 	addi	r22,sp,156
 4003f68:	003aab06 	br	4002a18 <___svfprintf_internal_r+0x384>
 4003f6c:	d9801a04 	addi	r6,sp,104
 4003f70:	900b883a 	mov	r5,r18
 4003f74:	9809883a 	mov	r4,r19
 4003f78:	4007d3c0 	call	4007d3c <__ssprint_r>
 4003f7c:	103ac61e 	bne	r2,zero,4002a98 <___svfprintf_internal_r+0x404>
 4003f80:	d8c01c17 	ldw	r3,112(sp)
 4003f84:	dd802704 	addi	r22,sp,156
 4003f88:	003cc406 	br	400329c <___svfprintf_internal_r+0xc08>
 4003f8c:	408001f0 	cmpltui	r2,r8,7
 4003f90:	402b883a 	mov	r21,r8
 4003f94:	10010126 	beq	r2,zero,400439c <___svfprintf_internal_r+0x1d08>
 4003f98:	04410074 	movhi	r17,1025
 4003f9c:	a829883a 	mov	r20,r21
 4003fa0:	d8c00615 	stw	r3,24(sp)
 4003fa4:	8c489204 	addi	r17,r17,8776
 4003fa8:	003a7106 	br	4002970 <___svfprintf_internal_r+0x2dc>
 4003fac:	d8800d17 	ldw	r2,52(sp)
 4003fb0:	d9000c17 	ldw	r4,48(sp)
 4003fb4:	b0800015 	stw	r2,0(r22)
 4003fb8:	d8801b17 	ldw	r2,108(sp)
 4003fbc:	20c7883a 	add	r3,r4,r3
 4003fc0:	b1000115 	stw	r4,4(r22)
 4003fc4:	10800044 	addi	r2,r2,1
 4003fc8:	d8c01c15 	stw	r3,112(sp)
 4003fcc:	d8801b15 	stw	r2,108(sp)
 4003fd0:	11000208 	cmpgei	r4,r2,8
 4003fd4:	2000fa1e 	bne	r4,zero,40043c0 <___svfprintf_internal_r+0x1d2c>
 4003fd8:	b5800204 	addi	r22,r22,8
 4003fdc:	283f6d0e 	bge	r5,zero,4003d94 <___svfprintf_internal_r+0x1700>
 4003fe0:	01c10074 	movhi	r7,1025
 4003fe4:	293ffc08 	cmpgei	r4,r5,-16
 4003fe8:	39c89504 	addi	r7,r7,8788
 4003fec:	0179c83a 	sub	fp,zero,r5
 4003ff0:	2001631e 	bne	r4,zero,4004580 <___svfprintf_internal_r+0x1eec>
 4003ff4:	dc000715 	stw	r16,28(sp)
 4003ff8:	05400404 	movi	r21,16
 4003ffc:	9021883a 	mov	r16,r18
 4004000:	3825883a 	mov	r18,r7
 4004004:	00000406 	br	4004018 <___svfprintf_internal_r+0x1984>
 4004008:	b5800204 	addi	r22,r22,8
 400400c:	e73ffc04 	addi	fp,fp,-16
 4004010:	e1800448 	cmpgei	r6,fp,17
 4004014:	30015726 	beq	r6,zero,4004574 <___svfprintf_internal_r+0x1ee0>
 4004018:	10800044 	addi	r2,r2,1
 400401c:	18c00404 	addi	r3,r3,16
 4004020:	b4800015 	stw	r18,0(r22)
 4004024:	b5400115 	stw	r21,4(r22)
 4004028:	d8c01c15 	stw	r3,112(sp)
 400402c:	d8801b15 	stw	r2,108(sp)
 4004030:	11800208 	cmpgei	r6,r2,8
 4004034:	303ff426 	beq	r6,zero,4004008 <___svfprintf_internal_r+0x1974>
 4004038:	d9801a04 	addi	r6,sp,104
 400403c:	800b883a 	mov	r5,r16
 4004040:	9809883a 	mov	r4,r19
 4004044:	4007d3c0 	call	4007d3c <__ssprint_r>
 4004048:	1001961e 	bne	r2,zero,40046a4 <___svfprintf_internal_r+0x2010>
 400404c:	d8c01c17 	ldw	r3,112(sp)
 4004050:	d8801b17 	ldw	r2,108(sp)
 4004054:	dd802704 	addi	r22,sp,156
 4004058:	003fec06 	br	400400c <___svfprintf_internal_r+0x1978>
 400405c:	800f883a 	mov	r7,r16
 4004060:	dc000717 	ldw	r16,28(sp)
 4004064:	8817883a 	mov	r11,r17
 4004068:	aa000044 	addi	r8,r21,1
 400406c:	e0800204 	addi	r2,fp,8
 4004070:	1ac7883a 	add	r3,r3,r11
 4004074:	e1c00015 	stw	r7,0(fp)
 4004078:	e2c00115 	stw	r11,4(fp)
 400407c:	d8c01c15 	stw	r3,112(sp)
 4004080:	da001b15 	stw	r8,108(sp)
 4004084:	41000208 	cmpgei	r4,r8,8
 4004088:	203f0a1e 	bne	r4,zero,4003cb4 <___svfprintf_internal_r+0x1620>
 400408c:	42000044 	addi	r8,r8,1
 4004090:	15800204 	addi	r22,r2,8
 4004094:	1039883a 	mov	fp,r2
 4004098:	003d5a06 	br	4003604 <___svfprintf_internal_r+0xf70>
 400409c:	04410074 	movhi	r17,1025
 40040a0:	8c488404 	addi	r17,r17,8720
 40040a4:	003afa06 	br	4002c90 <___svfprintf_internal_r+0x5fc>
 40040a8:	d8801804 	addi	r2,sp,96
 40040ac:	d8800315 	stw	r2,12(sp)
 40040b0:	d9400917 	ldw	r5,36(sp)
 40040b4:	d8801504 	addi	r2,sp,84
 40040b8:	d8800215 	stw	r2,8(sp)
 40040bc:	d8801404 	addi	r2,sp,80
 40040c0:	da000015 	stw	r8,0(sp)
 40040c4:	d8800115 	stw	r2,4(sp)
 40040c8:	01c000c4 	movi	r7,3
 40040cc:	a00d883a 	mov	r6,r20
 40040d0:	9809883a 	mov	r4,r19
 40040d4:	db000815 	stw	r12,32(sp)
 40040d8:	da000715 	stw	r8,28(sp)
 40040dc:	40049440 	call	4004944 <_dtoa_r>
 40040e0:	da000717 	ldw	r8,28(sp)
 40040e4:	1023883a 	mov	r17,r2
 40040e8:	db000817 	ldw	r12,32(sp)
 40040ec:	1207883a 	add	r3,r2,r8
 40040f0:	88800007 	ldb	r2,0(r17)
 40040f4:	10800c20 	cmpeqi	r2,r2,48
 40040f8:	1001321e 	bne	r2,zero,40045c4 <___svfprintf_internal_r+0x1f30>
 40040fc:	d8801417 	ldw	r2,80(sp)
 4004100:	1893883a 	add	r9,r3,r2
 4004104:	d9000917 	ldw	r4,36(sp)
 4004108:	000d883a 	mov	r6,zero
 400410c:	000f883a 	mov	r7,zero
 4004110:	a00b883a 	mov	r5,r20
 4004114:	da401115 	stw	r9,68(sp)
 4004118:	da000815 	stw	r8,32(sp)
 400411c:	db000715 	stw	r12,28(sp)
 4004120:	400f1dc0 	call	400f1dc <__eqdf2>
 4004124:	db000717 	ldw	r12,28(sp)
 4004128:	da000817 	ldw	r8,32(sp)
 400412c:	da401117 	ldw	r9,68(sp)
 4004130:	10009826 	beq	r2,zero,4004394 <___svfprintf_internal_r+0x1d00>
 4004134:	d8801817 	ldw	r2,96(sp)
 4004138:	1240062e 	bgeu	r2,r9,4004154 <___svfprintf_internal_r+0x1ac0>
 400413c:	01000c04 	movi	r4,48
 4004140:	10c00044 	addi	r3,r2,1
 4004144:	d8c01815 	stw	r3,96(sp)
 4004148:	11000005 	stb	r4,0(r2)
 400414c:	d8801817 	ldw	r2,96(sp)
 4004150:	127ffb36 	bltu	r2,r9,4004140 <___svfprintf_internal_r+0x1aac>
 4004154:	d8c01417 	ldw	r3,80(sp)
 4004158:	1445c83a 	sub	r2,r2,r17
 400415c:	ad4011d8 	cmpnei	r21,r21,71
 4004160:	d8c00715 	stw	r3,28(sp)
 4004164:	d8800815 	stw	r2,32(sp)
 4004168:	a83f5026 	beq	r21,zero,4003eac <___svfprintf_internal_r+0x1818>
 400416c:	d8800f17 	ldw	r2,60(sp)
 4004170:	10002026 	beq	r2,zero,40041f4 <___svfprintf_internal_r+0x1b60>
 4004174:	d8c00717 	ldw	r3,28(sp)
 4004178:	6080004c 	andi	r2,r12,1
 400417c:	1204b03a 	or	r2,r2,r8
 4004180:	00c0c10e 	bge	zero,r3,4004488 <___svfprintf_internal_r+0x1df4>
 4004184:	10013f1e 	bne	r2,zero,4004684 <___svfprintf_internal_r+0x1ff0>
 4004188:	dd400717 	ldw	r21,28(sp)
 400418c:	a829883a 	mov	r20,r21
 4004190:	003f5406 	br	4003ee4 <___svfprintf_internal_r+0x1850>
 4004194:	d8800617 	ldw	r2,24(sp)
 4004198:	002b883a 	mov	r21,zero
 400419c:	d8c00615 	stw	r3,24(sp)
 40041a0:	15000017 	ldw	r20,0(r2)
 40041a4:	00800044 	movi	r2,1
 40041a8:	003a5e06 	br	4002b24 <___svfprintf_internal_r+0x490>
 40041ac:	d8800617 	ldw	r2,24(sp)
 40041b0:	002b883a 	mov	r21,zero
 40041b4:	d8c00615 	stw	r3,24(sp)
 40041b8:	15000017 	ldw	r20,0(r2)
 40041bc:	003bd606 	br	4003118 <___svfprintf_internal_r+0xa84>
 40041c0:	d8800617 	ldw	r2,24(sp)
 40041c4:	002b883a 	mov	r21,zero
 40041c8:	d8c00615 	stw	r3,24(sp)
 40041cc:	15000017 	ldw	r20,0(r2)
 40041d0:	0005883a 	mov	r2,zero
 40041d4:	003a5306 	br	4002b24 <___svfprintf_internal_r+0x490>
 40041d8:	d8800617 	ldw	r2,24(sp)
 40041dc:	d8c00615 	stw	r3,24(sp)
 40041e0:	15000017 	ldw	r20,0(r2)
 40041e4:	a02bd7fa 	srai	r21,r20,31
 40041e8:	a805883a 	mov	r2,r21
 40041ec:	003b0306 	br	4002dfc <___svfprintf_internal_r+0x768>
 40041f0:	e73fff84 	addi	fp,fp,-2
 40041f4:	d8800717 	ldw	r2,28(sp)
 40041f8:	df001645 	stb	fp,89(sp)
 40041fc:	157fffc4 	addi	r21,r2,-1
 4004200:	dd401415 	stw	r21,80(sp)
 4004204:	a8008316 	blt	r21,zero,4004414 <___svfprintf_internal_r+0x1d80>
 4004208:	00800ac4 	movi	r2,43
 400420c:	d8801685 	stb	r2,90(sp)
 4004210:	a8800290 	cmplti	r2,r21,10
 4004214:	1000fb1e 	bne	r2,zero,4004604 <___svfprintf_internal_r+0x1f70>
 4004218:	d98019c4 	addi	r6,sp,103
 400421c:	9029883a 	mov	r20,r18
 4004220:	dc400715 	stw	r17,28(sp)
 4004224:	8025883a 	mov	r18,r16
 4004228:	db000f15 	stw	r12,60(sp)
 400422c:	3021883a 	mov	r16,r6
 4004230:	a809883a 	mov	r4,r21
 4004234:	01400284 	movi	r5,10
 4004238:	4001cf00 	call	4001cf0 <__modsi3>
 400423c:	10800c04 	addi	r2,r2,48
 4004240:	a809883a 	mov	r4,r21
 4004244:	80bfffc5 	stb	r2,-1(r16)
 4004248:	01400284 	movi	r5,10
 400424c:	4001c700 	call	4001c70 <__divsi3>
 4004250:	a9001908 	cmpgei	r4,r21,100
 4004254:	8023883a 	mov	r17,r16
 4004258:	102b883a 	mov	r21,r2
 400425c:	843fffc4 	addi	r16,r16,-1
 4004260:	203ff31e 	bne	r4,zero,4004230 <___svfprintf_internal_r+0x1b9c>
 4004264:	800d883a 	mov	r6,r16
 4004268:	11000c04 	addi	r4,r2,48
 400426c:	9021883a 	mov	r16,r18
 4004270:	a025883a 	mov	r18,r20
 4004274:	8829883a 	mov	r20,r17
 4004278:	a0bfff84 	addi	r2,r20,-2
 400427c:	313fffc5 	stb	r4,-1(r6)
 4004280:	d8c019c4 	addi	r3,sp,103
 4004284:	db000f17 	ldw	r12,60(sp)
 4004288:	dc400717 	ldw	r17,28(sp)
 400428c:	10c11d2e 	bgeu	r2,r3,4004704 <___svfprintf_internal_r+0x2070>
 4004290:	d8c016c4 	addi	r3,sp,91
 4004294:	00000106 	br	400429c <___svfprintf_internal_r+0x1c08>
 4004298:	11000003 	ldbu	r4,0(r2)
 400429c:	19000005 	stb	r4,0(r3)
 40042a0:	10800044 	addi	r2,r2,1
 40042a4:	d90019c4 	addi	r4,sp,103
 40042a8:	18c00044 	addi	r3,r3,1
 40042ac:	113ffa1e 	bne	r2,r4,4004298 <___svfprintf_internal_r+0x1c04>
 40042b0:	d8801a44 	addi	r2,sp,105
 40042b4:	d8c016c4 	addi	r3,sp,91
 40042b8:	1505c83a 	sub	r2,r2,r20
 40042bc:	1885883a 	add	r2,r3,r2
 40042c0:	d8c01644 	addi	r3,sp,89
 40042c4:	10c5c83a 	sub	r2,r2,r3
 40042c8:	d8801015 	stw	r2,64(sp)
 40042cc:	d8c00817 	ldw	r3,32(sp)
 40042d0:	d9001017 	ldw	r4,64(sp)
 40042d4:	18800088 	cmpgei	r2,r3,2
 40042d8:	192b883a 	add	r21,r3,r4
 40042dc:	1000da26 	beq	r2,zero,4004648 <___svfprintf_internal_r+0x1fb4>
 40042e0:	d8800c17 	ldw	r2,48(sp)
 40042e4:	a8ab883a 	add	r21,r21,r2
 40042e8:	a829883a 	mov	r20,r21
 40042ec:	a800010e 	bge	r21,zero,40042f4 <___svfprintf_internal_r+0x1c60>
 40042f0:	0029883a 	mov	r20,zero
 40042f4:	d8000715 	stw	zero,28(sp)
 40042f8:	003efa06 	br	4003ee4 <___svfprintf_internal_r+0x1850>
 40042fc:	800f883a 	mov	r7,r16
 4004300:	dc000e17 	ldw	r16,56(sp)
 4004304:	10800044 	addi	r2,r2,1
 4004308:	1d47883a 	add	r3,r3,r21
 400430c:	d8801b15 	stw	r2,108(sp)
 4004310:	b1c00015 	stw	r7,0(r22)
 4004314:	b5400115 	stw	r21,4(r22)
 4004318:	d8c01c15 	stw	r3,112(sp)
 400431c:	10800208 	cmpgei	r2,r2,8
 4004320:	1000321e 	bne	r2,zero,40043ec <___svfprintf_internal_r+0x1d58>
 4004324:	b5800204 	addi	r22,r22,8
 4004328:	003d3906 	br	4003810 <___svfprintf_internal_r+0x117c>
 400432c:	00800b44 	movi	r2,45
 4004330:	d8801345 	stb	r2,77(sp)
 4004334:	03400b44 	movi	r13,45
 4004338:	003a5106 	br	4002c80 <___svfprintf_internal_r+0x5ec>
 400433c:	d9801a04 	addi	r6,sp,104
 4004340:	900b883a 	mov	r5,r18
 4004344:	9809883a 	mov	r4,r19
 4004348:	4007d3c0 	call	4007d3c <__ssprint_r>
 400434c:	1039d21e 	bne	r2,zero,4002a98 <___svfprintf_internal_r+0x404>
 4004350:	dd401417 	ldw	r21,80(sp)
 4004354:	d8c01c17 	ldw	r3,112(sp)
 4004358:	dd802704 	addi	r22,sp,156
 400435c:	003d3b06 	br	400384c <___svfprintf_internal_r+0x11b8>
 4004360:	d9801a04 	addi	r6,sp,104
 4004364:	900b883a 	mov	r5,r18
 4004368:	9809883a 	mov	r4,r19
 400436c:	4007d3c0 	call	4007d3c <__ssprint_r>
 4004370:	1039c91e 	bne	r2,zero,4002a98 <___svfprintf_internal_r+0x404>
 4004374:	d9401417 	ldw	r5,80(sp)
 4004378:	d8c01c17 	ldw	r3,112(sp)
 400437c:	dd802704 	addi	r22,sp,156
 4004380:	003e7206 	br	4003d4c <___svfprintf_internal_r+0x16b8>
 4004384:	1520003c 	xorhi	r20,r2,32768
 4004388:	00800b44 	movi	r2,45
 400438c:	d8800605 	stb	r2,24(sp)
 4004390:	003ea206 	br	4003e1c <___svfprintf_internal_r+0x1788>
 4004394:	4805883a 	mov	r2,r9
 4004398:	003f6e06 	br	4004154 <___svfprintf_internal_r+0x1ac0>
 400439c:	05400184 	movi	r21,6
 40043a0:	003efd06 	br	4003f98 <___svfprintf_internal_r+0x1904>
 40043a4:	d9401345 	stb	r5,77(sp)
 40043a8:	00396b06 	br	4002958 <___svfprintf_internal_r+0x2c4>
 40043ac:	d9801a04 	addi	r6,sp,104
 40043b0:	900b883a 	mov	r5,r18
 40043b4:	9809883a 	mov	r4,r19
 40043b8:	4007d3c0 	call	4007d3c <__ssprint_r>
 40043bc:	0039b606 	br	4002a98 <___svfprintf_internal_r+0x404>
 40043c0:	d9801a04 	addi	r6,sp,104
 40043c4:	900b883a 	mov	r5,r18
 40043c8:	9809883a 	mov	r4,r19
 40043cc:	4007d3c0 	call	4007d3c <__ssprint_r>
 40043d0:	1039b11e 	bne	r2,zero,4002a98 <___svfprintf_internal_r+0x404>
 40043d4:	d9401417 	ldw	r5,80(sp)
 40043d8:	d8c01c17 	ldw	r3,112(sp)
 40043dc:	d8801b17 	ldw	r2,108(sp)
 40043e0:	dd802704 	addi	r22,sp,156
 40043e4:	283e6b0e 	bge	r5,zero,4003d94 <___svfprintf_internal_r+0x1700>
 40043e8:	003efd06 	br	4003fe0 <___svfprintf_internal_r+0x194c>
 40043ec:	d9801a04 	addi	r6,sp,104
 40043f0:	900b883a 	mov	r5,r18
 40043f4:	9809883a 	mov	r4,r19
 40043f8:	4007d3c0 	call	4007d3c <__ssprint_r>
 40043fc:	1039a61e 	bne	r2,zero,4002a98 <___svfprintf_internal_r+0x404>
 4004400:	d8c01c17 	ldw	r3,112(sp)
 4004404:	dd802704 	addi	r22,sp,156
 4004408:	003d0106 	br	4003810 <___svfprintf_internal_r+0x117c>
 400440c:	db000417 	ldw	r12,16(sp)
 4004410:	003a8706 	br	4002e30 <___svfprintf_internal_r+0x79c>
 4004414:	05400044 	movi	r21,1
 4004418:	a8abc83a 	sub	r21,r21,r2
 400441c:	00800b44 	movi	r2,45
 4004420:	d8801685 	stb	r2,90(sp)
 4004424:	003f7a06 	br	4004210 <___svfprintf_internal_r+0x1b7c>
 4004428:	d8801804 	addi	r2,sp,96
 400442c:	d8800315 	stw	r2,12(sp)
 4004430:	d9400917 	ldw	r5,36(sp)
 4004434:	d8801504 	addi	r2,sp,84
 4004438:	40c00044 	addi	r3,r8,1
 400443c:	d8800215 	stw	r2,8(sp)
 4004440:	d8801404 	addi	r2,sp,80
 4004444:	d8c00015 	stw	r3,0(sp)
 4004448:	d8800115 	stw	r2,4(sp)
 400444c:	01c00084 	movi	r7,2
 4004450:	a00d883a 	mov	r6,r20
 4004454:	9809883a 	mov	r4,r19
 4004458:	db001115 	stw	r12,68(sp)
 400445c:	da000815 	stw	r8,32(sp)
 4004460:	d8c00715 	stw	r3,28(sp)
 4004464:	40049440 	call	4004944 <_dtoa_r>
 4004468:	d8c00717 	ldw	r3,28(sp)
 400446c:	da000817 	ldw	r8,32(sp)
 4004470:	db001117 	ldw	r12,68(sp)
 4004474:	1023883a 	mov	r17,r2
 4004478:	e08011d8 	cmpnei	r2,fp,71
 400447c:	103e8226 	beq	r2,zero,4003e88 <___svfprintf_internal_r+0x17f4>
 4004480:	88d3883a 	add	r9,r17,r3
 4004484:	003f1f06 	br	4004104 <___svfprintf_internal_r+0x1a70>
 4004488:	1000821e 	bne	r2,zero,4004694 <___svfprintf_internal_r+0x2000>
 400448c:	05000044 	movi	r20,1
 4004490:	05400044 	movi	r21,1
 4004494:	003e9306 	br	4003ee4 <___svfprintf_internal_r+0x1850>
 4004498:	d8800e17 	ldw	r2,56(sp)
 400449c:	db401343 	ldbu	r13,77(sp)
 40044a0:	0011883a 	mov	r8,zero
 40044a4:	d8800615 	stw	r2,24(sp)
 40044a8:	003ad106 	br	4002ff0 <___svfprintf_internal_r+0x95c>
 40044ac:	d9801a04 	addi	r6,sp,104
 40044b0:	900b883a 	mov	r5,r18
 40044b4:	9809883a 	mov	r4,r19
 40044b8:	4007d3c0 	call	4007d3c <__ssprint_r>
 40044bc:	1039761e 	bne	r2,zero,4002a98 <___svfprintf_internal_r+0x404>
 40044c0:	d8c01c17 	ldw	r3,112(sp)
 40044c4:	dd802704 	addi	r22,sp,156
 40044c8:	a83cce0e 	bge	r21,zero,4003804 <___svfprintf_internal_r+0x1170>
 40044cc:	003d9d06 	br	4003b44 <___svfprintf_internal_r+0x14b0>
 40044d0:	d9801a04 	addi	r6,sp,104
 40044d4:	900b883a 	mov	r5,r18
 40044d8:	9809883a 	mov	r4,r19
 40044dc:	4007d3c0 	call	4007d3c <__ssprint_r>
 40044e0:	10396d1e 	bne	r2,zero,4002a98 <___svfprintf_internal_r+0x404>
 40044e4:	d8801417 	ldw	r2,80(sp)
 40044e8:	d9000817 	ldw	r4,32(sp)
 40044ec:	d8c01c17 	ldw	r3,112(sp)
 40044f0:	dd802704 	addi	r22,sp,156
 40044f4:	2085c83a 	sub	r2,r4,r2
 40044f8:	003ce806 	br	400389c <___svfprintf_internal_r+0x1208>
 40044fc:	02000184 	movi	r8,6
 4004500:	003e4006 	br	4003e04 <___svfprintf_internal_r+0x1770>
 4004504:	4029883a 	mov	r20,r8
 4004508:	d8c00615 	stw	r3,24(sp)
 400450c:	402b883a 	mov	r21,r8
 4004510:	00391706 	br	4002970 <___svfprintf_internal_r+0x2dc>
 4004514:	d8800817 	ldw	r2,32(sp)
 4004518:	d8c00c17 	ldw	r3,48(sp)
 400451c:	10eb883a 	add	r21,r2,r3
 4004520:	d8800717 	ldw	r2,28(sp)
 4004524:	00800316 	blt	zero,r2,4004534 <___svfprintf_internal_r+0x1ea0>
 4004528:	d8800717 	ldw	r2,28(sp)
 400452c:	a8abc83a 	sub	r21,r21,r2
 4004530:	ad400044 	addi	r21,r21,1
 4004534:	a829883a 	mov	r20,r21
 4004538:	a8003e16 	blt	r21,zero,4004634 <___svfprintf_internal_r+0x1fa0>
 400453c:	070019c4 	movi	fp,103
 4004540:	003e6806 	br	4003ee4 <___svfprintf_internal_r+0x1850>
 4004544:	d9401345 	stb	r5,77(sp)
 4004548:	003b1b06 	br	40031b8 <___svfprintf_internal_r+0xb24>
 400454c:	d9401345 	stb	r5,77(sp)
 4004550:	003a6c06 	br	4002f04 <___svfprintf_internal_r+0x870>
 4004554:	d9401345 	stb	r5,77(sp)
 4004558:	003a5306 	br	4002ea8 <___svfprintf_internal_r+0x814>
 400455c:	d9401345 	stb	r5,77(sp)
 4004560:	003ae306 	br	40030f0 <___svfprintf_internal_r+0xa5c>
 4004564:	d9401345 	stb	r5,77(sp)
 4004568:	00399a06 	br	4002bd4 <___svfprintf_internal_r+0x540>
 400456c:	d9401345 	stb	r5,77(sp)
 4004570:	003a1a06 	br	4002ddc <___svfprintf_internal_r+0x748>
 4004574:	900f883a 	mov	r7,r18
 4004578:	8025883a 	mov	r18,r16
 400457c:	dc000717 	ldw	r16,28(sp)
 4004580:	10800044 	addi	r2,r2,1
 4004584:	1f07883a 	add	r3,r3,fp
 4004588:	b1c00015 	stw	r7,0(r22)
 400458c:	b7000115 	stw	fp,4(r22)
 4004590:	d8c01c15 	stw	r3,112(sp)
 4004594:	d8801b15 	stw	r2,108(sp)
 4004598:	11000208 	cmpgei	r4,r2,8
 400459c:	203dfc26 	beq	r4,zero,4003d90 <___svfprintf_internal_r+0x16fc>
 40045a0:	d9801a04 	addi	r6,sp,104
 40045a4:	900b883a 	mov	r5,r18
 40045a8:	9809883a 	mov	r4,r19
 40045ac:	4007d3c0 	call	4007d3c <__ssprint_r>
 40045b0:	1039391e 	bne	r2,zero,4002a98 <___svfprintf_internal_r+0x404>
 40045b4:	d8c01c17 	ldw	r3,112(sp)
 40045b8:	d8801b17 	ldw	r2,108(sp)
 40045bc:	dd802704 	addi	r22,sp,156
 40045c0:	003df406 	br	4003d94 <___svfprintf_internal_r+0x1700>
 40045c4:	d9000917 	ldw	r4,36(sp)
 40045c8:	000d883a 	mov	r6,zero
 40045cc:	000f883a 	mov	r7,zero
 40045d0:	a00b883a 	mov	r5,r20
 40045d4:	d8c01115 	stw	r3,68(sp)
 40045d8:	da000815 	stw	r8,32(sp)
 40045dc:	db000715 	stw	r12,28(sp)
 40045e0:	400f1dc0 	call	400f1dc <__eqdf2>
 40045e4:	db000717 	ldw	r12,28(sp)
 40045e8:	da000817 	ldw	r8,32(sp)
 40045ec:	d8c01117 	ldw	r3,68(sp)
 40045f0:	103ec226 	beq	r2,zero,40040fc <___svfprintf_internal_r+0x1a68>
 40045f4:	00800044 	movi	r2,1
 40045f8:	1205c83a 	sub	r2,r2,r8
 40045fc:	d8801415 	stw	r2,80(sp)
 4004600:	003ebf06 	br	4004100 <___svfprintf_internal_r+0x1a6c>
 4004604:	00800c04 	movi	r2,48
 4004608:	ad400c04 	addi	r21,r21,48
 400460c:	d88016c5 	stb	r2,91(sp)
 4004610:	00800104 	movi	r2,4
 4004614:	dd401705 	stb	r21,92(sp)
 4004618:	d8801015 	stw	r2,64(sp)
 400461c:	003f2b06 	br	40042cc <___svfprintf_internal_r+0x1c38>
 4004620:	d8800717 	ldw	r2,28(sp)
 4004624:	d8c00c17 	ldw	r3,48(sp)
 4004628:	10eb883a 	add	r21,r2,r3
 400462c:	a829883a 	mov	r20,r21
 4004630:	a83fc20e 	bge	r21,zero,400453c <___svfprintf_internal_r+0x1ea8>
 4004634:	0029883a 	mov	r20,zero
 4004638:	003fc006 	br	400453c <___svfprintf_internal_r+0x1ea8>
 400463c:	00bfffc4 	movi	r2,-1
 4004640:	d8800515 	stw	r2,20(sp)
 4004644:	00391706 	br	4002aa4 <___svfprintf_internal_r+0x410>
 4004648:	6080004c 	andi	r2,r12,1
 400464c:	d8800715 	stw	r2,28(sp)
 4004650:	103f231e 	bne	r2,zero,40042e0 <___svfprintf_internal_r+0x1c4c>
 4004654:	a829883a 	mov	r20,r21
 4004658:	a83e220e 	bge	r21,zero,4003ee4 <___svfprintf_internal_r+0x1850>
 400465c:	0029883a 	mov	r20,zero
 4004660:	003e2006 	br	4003ee4 <___svfprintf_internal_r+0x1850>
 4004664:	d8800a17 	ldw	r2,40(sp)
 4004668:	10001616 	blt	r2,zero,40046c4 <___svfprintf_internal_r+0x2030>
 400466c:	db401343 	ldbu	r13,77(sp)
 4004670:	e0801210 	cmplti	r2,fp,72
 4004674:	1000101e 	bne	r2,zero,40046b8 <___svfprintf_internal_r+0x2024>
 4004678:	04410074 	movhi	r17,1025
 400467c:	8c488704 	addi	r17,r17,8732
 4004680:	00398306 	br	4002c90 <___svfprintf_internal_r+0x5fc>
 4004684:	d8800c17 	ldw	r2,48(sp)
 4004688:	18ab883a 	add	r21,r3,r2
 400468c:	aa2b883a 	add	r21,r21,r8
 4004690:	003ff006 	br	4004654 <___svfprintf_internal_r+0x1fc0>
 4004694:	d8800c17 	ldw	r2,48(sp)
 4004698:	15400044 	addi	r21,r2,1
 400469c:	aa2b883a 	add	r21,r21,r8
 40046a0:	003fec06 	br	4004654 <___svfprintf_internal_r+0x1fc0>
 40046a4:	8025883a 	mov	r18,r16
 40046a8:	0038fb06 	br	4002a98 <___svfprintf_internal_r+0x404>
 40046ac:	b005883a 	mov	r2,r22
 40046b0:	39c89504 	addi	r7,r7,8788
 40046b4:	003e6e06 	br	4004070 <___svfprintf_internal_r+0x19dc>
 40046b8:	04410074 	movhi	r17,1025
 40046bc:	8c488604 	addi	r17,r17,8728
 40046c0:	00397306 	br	4002c90 <___svfprintf_internal_r+0x5fc>
 40046c4:	00800b44 	movi	r2,45
 40046c8:	d8801345 	stb	r2,77(sp)
 40046cc:	03400b44 	movi	r13,45
 40046d0:	003fe706 	br	4004670 <___svfprintf_internal_r+0x1fdc>
 40046d4:	d8c00617 	ldw	r3,24(sp)
 40046d8:	1a000017 	ldw	r8,0(r3)
 40046dc:	18c00104 	addi	r3,r3,4
 40046e0:	4000010e 	bge	r8,zero,40046e8 <___svfprintf_internal_r+0x2054>
 40046e4:	023fffc4 	movi	r8,-1
 40046e8:	bf000043 	ldbu	fp,1(r23)
 40046ec:	d8c00615 	stw	r3,24(sp)
 40046f0:	102f883a 	mov	r23,r2
 40046f4:	e2c03fcc 	andi	r11,fp,255
 40046f8:	5ac0201c 	xori	r11,r11,128
 40046fc:	5affe004 	addi	r11,r11,-128
 4004700:	00382206 	br	400278c <___svfprintf_internal_r+0xf8>
 4004704:	00800084 	movi	r2,2
 4004708:	d8801015 	stw	r2,64(sp)
 400470c:	003eef06 	br	40042cc <___svfprintf_internal_r+0x1c38>
 4004710:	00800304 	movi	r2,12
 4004714:	98800015 	stw	r2,0(r19)
 4004718:	00bfffc4 	movi	r2,-1
 400471c:	d8800515 	stw	r2,20(sp)
 4004720:	0038e006 	br	4002aa4 <___svfprintf_internal_r+0x410>

04004724 <quorem>:
 4004724:	defff204 	addi	sp,sp,-56
 4004728:	dc400515 	stw	r17,20(sp)
 400472c:	20800417 	ldw	r2,16(r4)
 4004730:	2c400417 	ldw	r17,16(r5)
 4004734:	dfc00d15 	stw	ra,52(sp)
 4004738:	df000c15 	stw	fp,48(sp)
 400473c:	ddc00b15 	stw	r23,44(sp)
 4004740:	dd800a15 	stw	r22,40(sp)
 4004744:	dd400915 	stw	r21,36(sp)
 4004748:	dd000815 	stw	r20,32(sp)
 400474c:	dcc00715 	stw	r19,28(sp)
 4004750:	dc800615 	stw	r18,24(sp)
 4004754:	dc000415 	stw	r16,16(sp)
 4004758:	d9000115 	stw	r4,4(sp)
 400475c:	d9400215 	stw	r5,8(sp)
 4004760:	14407616 	blt	r2,r17,400493c <quorem+0x218>
 4004764:	8c7fffc4 	addi	r17,r17,-1
 4004768:	882a90ba 	slli	r21,r17,2
 400476c:	2f000504 	addi	fp,r5,20
 4004770:	25800504 	addi	r22,r4,20
 4004774:	e565883a 	add	r18,fp,r21
 4004778:	b545883a 	add	r2,r22,r21
 400477c:	95c00017 	ldw	r23,0(r18)
 4004780:	15000017 	ldw	r20,0(r2)
 4004784:	dd800015 	stw	r22,0(sp)
 4004788:	bdc00044 	addi	r23,r23,1
 400478c:	b80b883a 	mov	r5,r23
 4004790:	a009883a 	mov	r4,r20
 4004794:	d8800315 	stw	r2,12(sp)
 4004798:	4001d640 	call	4001d64 <__udivsi3>
 400479c:	1021883a 	mov	r16,r2
 40047a0:	a5c02f36 	bltu	r20,r23,4004860 <quorem+0x13c>
 40047a4:	e029883a 	mov	r20,fp
 40047a8:	002b883a 	mov	r21,zero
 40047ac:	002f883a 	mov	r23,zero
 40047b0:	a4c00017 	ldw	r19,0(r20)
 40047b4:	800b883a 	mov	r5,r16
 40047b8:	b5800104 	addi	r22,r22,4
 40047bc:	993fffcc 	andi	r4,r19,65535
 40047c0:	4001e240 	call	4001e24 <__mulsi3>
 40047c4:	9808d43a 	srli	r4,r19,16
 40047c8:	800b883a 	mov	r5,r16
 40047cc:	156b883a 	add	r21,r2,r21
 40047d0:	4001e240 	call	4001e24 <__mulsi3>
 40047d4:	b0ffff17 	ldw	r3,-4(r22)
 40047d8:	a80ad43a 	srli	r5,r21,16
 40047dc:	a93fffcc 	andi	r4,r21,65535
 40047e0:	19bfffcc 	andi	r6,r3,65535
 40047e4:	b909c83a 	sub	r4,r23,r4
 40047e8:	2189883a 	add	r4,r4,r6
 40047ec:	1806d43a 	srli	r3,r3,16
 40047f0:	1145883a 	add	r2,r2,r5
 40047f4:	200bd43a 	srai	r5,r4,16
 40047f8:	11bfffcc 	andi	r6,r2,65535
 40047fc:	1987c83a 	sub	r3,r3,r6
 4004800:	1947883a 	add	r3,r3,r5
 4004804:	180a943a 	slli	r5,r3,16
 4004808:	213fffcc 	andi	r4,r4,65535
 400480c:	a5000104 	addi	r20,r20,4
 4004810:	2908b03a 	or	r4,r5,r4
 4004814:	b13fff15 	stw	r4,-4(r22)
 4004818:	102ad43a 	srli	r21,r2,16
 400481c:	182fd43a 	srai	r23,r3,16
 4004820:	953fe32e 	bgeu	r18,r20,40047b0 <quorem+0x8c>
 4004824:	d8c00317 	ldw	r3,12(sp)
 4004828:	18800017 	ldw	r2,0(r3)
 400482c:	10000c1e 	bne	r2,zero,4004860 <quorem+0x13c>
 4004830:	d8800017 	ldw	r2,0(sp)
 4004834:	1d7fff04 	addi	r21,r3,-4
 4004838:	15400436 	bltu	r2,r21,400484c <quorem+0x128>
 400483c:	00000606 	br	4004858 <quorem+0x134>
 4004840:	d8800017 	ldw	r2,0(sp)
 4004844:	8c7fffc4 	addi	r17,r17,-1
 4004848:	1540032e 	bgeu	r2,r21,4004858 <quorem+0x134>
 400484c:	a8800017 	ldw	r2,0(r21)
 4004850:	ad7fff04 	addi	r21,r21,-4
 4004854:	103ffa26 	beq	r2,zero,4004840 <quorem+0x11c>
 4004858:	d8800117 	ldw	r2,4(sp)
 400485c:	14400415 	stw	r17,16(r2)
 4004860:	d9400217 	ldw	r5,8(sp)
 4004864:	d9000117 	ldw	r4,4(sp)
 4004868:	40075100 	call	4007510 <__mcmp>
 400486c:	10002616 	blt	r2,zero,4004908 <quorem+0x1e4>
 4004870:	d9400017 	ldw	r5,0(sp)
 4004874:	84000044 	addi	r16,r16,1
 4004878:	0007883a 	mov	r3,zero
 400487c:	e1000017 	ldw	r4,0(fp)
 4004880:	29800017 	ldw	r6,0(r5)
 4004884:	29400104 	addi	r5,r5,4
 4004888:	20bfffcc 	andi	r2,r4,65535
 400488c:	1887c83a 	sub	r3,r3,r2
 4004890:	30bfffcc 	andi	r2,r6,65535
 4004894:	1885883a 	add	r2,r3,r2
 4004898:	2008d43a 	srli	r4,r4,16
 400489c:	3006d43a 	srli	r3,r6,16
 40048a0:	100fd43a 	srai	r7,r2,16
 40048a4:	11bfffcc 	andi	r6,r2,65535
 40048a8:	1907c83a 	sub	r3,r3,r4
 40048ac:	19c7883a 	add	r3,r3,r7
 40048b0:	1804943a 	slli	r2,r3,16
 40048b4:	e7000104 	addi	fp,fp,4
 40048b8:	1807d43a 	srai	r3,r3,16
 40048bc:	1184b03a 	or	r2,r2,r6
 40048c0:	28bfff15 	stw	r2,-4(r5)
 40048c4:	973fed2e 	bgeu	r18,fp,400487c <quorem+0x158>
 40048c8:	880490ba 	slli	r2,r17,2
 40048cc:	d9000017 	ldw	r4,0(sp)
 40048d0:	2085883a 	add	r2,r4,r2
 40048d4:	10c00017 	ldw	r3,0(r2)
 40048d8:	18000b1e 	bne	r3,zero,4004908 <quorem+0x1e4>
 40048dc:	10bfff04 	addi	r2,r2,-4
 40048e0:	20800436 	bltu	r4,r2,40048f4 <quorem+0x1d0>
 40048e4:	00000606 	br	4004900 <quorem+0x1dc>
 40048e8:	d8c00017 	ldw	r3,0(sp)
 40048ec:	8c7fffc4 	addi	r17,r17,-1
 40048f0:	1880032e 	bgeu	r3,r2,4004900 <quorem+0x1dc>
 40048f4:	10c00017 	ldw	r3,0(r2)
 40048f8:	10bfff04 	addi	r2,r2,-4
 40048fc:	183ffa26 	beq	r3,zero,40048e8 <quorem+0x1c4>
 4004900:	d8800117 	ldw	r2,4(sp)
 4004904:	14400415 	stw	r17,16(r2)
 4004908:	8005883a 	mov	r2,r16
 400490c:	dfc00d17 	ldw	ra,52(sp)
 4004910:	df000c17 	ldw	fp,48(sp)
 4004914:	ddc00b17 	ldw	r23,44(sp)
 4004918:	dd800a17 	ldw	r22,40(sp)
 400491c:	dd400917 	ldw	r21,36(sp)
 4004920:	dd000817 	ldw	r20,32(sp)
 4004924:	dcc00717 	ldw	r19,28(sp)
 4004928:	dc800617 	ldw	r18,24(sp)
 400492c:	dc400517 	ldw	r17,20(sp)
 4004930:	dc000417 	ldw	r16,16(sp)
 4004934:	dec00e04 	addi	sp,sp,56
 4004938:	f800283a 	ret
 400493c:	0005883a 	mov	r2,zero
 4004940:	003ff206 	br	400490c <quorem+0x1e8>

04004944 <_dtoa_r>:
 4004944:	20801017 	ldw	r2,64(r4)
 4004948:	deffe204 	addi	sp,sp,-120
 400494c:	ddc01b15 	stw	r23,108(sp)
 4004950:	dcc01715 	stw	r19,92(sp)
 4004954:	dc801615 	stw	r18,88(sp)
 4004958:	dc401515 	stw	r17,84(sp)
 400495c:	dc001415 	stw	r16,80(sp)
 4004960:	dfc01d15 	stw	ra,116(sp)
 4004964:	df001c15 	stw	fp,112(sp)
 4004968:	dd801a15 	stw	r22,104(sp)
 400496c:	dd401915 	stw	r21,100(sp)
 4004970:	dd001815 	stw	r20,96(sp)
 4004974:	d9c00215 	stw	r7,8(sp)
 4004978:	dc002017 	ldw	r16,128(sp)
 400497c:	202f883a 	mov	r23,r4
 4004980:	3025883a 	mov	r18,r6
 4004984:	2827883a 	mov	r19,r5
 4004988:	3023883a 	mov	r17,r6
 400498c:	10000826 	beq	r2,zero,40049b0 <_dtoa_r+0x6c>
 4004990:	21801117 	ldw	r6,68(r4)
 4004994:	00c00044 	movi	r3,1
 4004998:	100b883a 	mov	r5,r2
 400499c:	1986983a 	sll	r3,r3,r6
 40049a0:	11800115 	stw	r6,4(r2)
 40049a4:	10c00215 	stw	r3,8(r2)
 40049a8:	4006b000 	call	4006b00 <_Bfree>
 40049ac:	b8001015 	stw	zero,64(r23)
 40049b0:	90018816 	blt	r18,zero,4004fd4 <_dtoa_r+0x690>
 40049b4:	80000015 	stw	zero,0(r16)
 40049b8:	909ffc2c 	andhi	r2,r18,32752
 40049bc:	00dffc34 	movhi	r3,32752
 40049c0:	10c18d26 	beq	r2,r3,4004ff8 <_dtoa_r+0x6b4>
 40049c4:	000d883a 	mov	r6,zero
 40049c8:	000f883a 	mov	r7,zero
 40049cc:	9809883a 	mov	r4,r19
 40049d0:	880b883a 	mov	r5,r17
 40049d4:	400f1dc0 	call	400f1dc <__eqdf2>
 40049d8:	1000191e 	bne	r2,zero,4004a40 <_dtoa_r+0xfc>
 40049dc:	d8c01f17 	ldw	r3,124(sp)
 40049e0:	00800044 	movi	r2,1
 40049e4:	18800015 	stw	r2,0(r3)
 40049e8:	d8802117 	ldw	r2,132(sp)
 40049ec:	1002f926 	beq	r2,zero,40055d4 <_dtoa_r+0xc90>
 40049f0:	d9002117 	ldw	r4,132(sp)
 40049f4:	00810074 	movhi	r2,1025
 40049f8:	10889444 	addi	r2,r2,8785
 40049fc:	00c10074 	movhi	r3,1025
 4004a00:	20800015 	stw	r2,0(r4)
 4004a04:	18889404 	addi	r2,r3,8784
 4004a08:	d8800115 	stw	r2,4(sp)
 4004a0c:	d8800117 	ldw	r2,4(sp)
 4004a10:	dfc01d17 	ldw	ra,116(sp)
 4004a14:	df001c17 	ldw	fp,112(sp)
 4004a18:	ddc01b17 	ldw	r23,108(sp)
 4004a1c:	dd801a17 	ldw	r22,104(sp)
 4004a20:	dd401917 	ldw	r21,100(sp)
 4004a24:	dd001817 	ldw	r20,96(sp)
 4004a28:	dcc01717 	ldw	r19,92(sp)
 4004a2c:	dc801617 	ldw	r18,88(sp)
 4004a30:	dc401517 	ldw	r17,84(sp)
 4004a34:	dc001417 	ldw	r16,80(sp)
 4004a38:	dec01e04 	addi	sp,sp,120
 4004a3c:	f800283a 	ret
 4004a40:	d8801204 	addi	r2,sp,72
 4004a44:	9020d53a 	srli	r16,r18,20
 4004a48:	d8800015 	stw	r2,0(sp)
 4004a4c:	d9c01304 	addi	r7,sp,76
 4004a50:	980b883a 	mov	r5,r19
 4004a54:	880d883a 	mov	r6,r17
 4004a58:	b809883a 	mov	r4,r23
 4004a5c:	40078f80 	call	40078f8 <__d2b>
 4004a60:	1039883a 	mov	fp,r2
 4004a64:	8001771e 	bne	r16,zero,4005044 <_dtoa_r+0x700>
 4004a68:	dd001217 	ldw	r20,72(sp)
 4004a6c:	dc001317 	ldw	r16,76(sp)
 4004a70:	a421883a 	add	r16,r20,r16
 4004a74:	80810c84 	addi	r2,r16,1074
 4004a78:	10c00850 	cmplti	r3,r2,33
 4004a7c:	1802e51e 	bne	r3,zero,4005614 <_dtoa_r+0xcd0>
 4004a80:	01001004 	movi	r4,64
 4004a84:	2085c83a 	sub	r2,r4,r2
 4004a88:	81010484 	addi	r4,r16,1042
 4004a8c:	90a4983a 	sll	r18,r18,r2
 4004a90:	9908d83a 	srl	r4,r19,r4
 4004a94:	9108b03a 	or	r4,r18,r4
 4004a98:	40106180 	call	4010618 <__floatunsidf>
 4004a9c:	1009883a 	mov	r4,r2
 4004aa0:	017f8434 	movhi	r5,65040
 4004aa4:	00800044 	movi	r2,1
 4004aa8:	194b883a 	add	r5,r3,r5
 4004aac:	843fffc4 	addi	r16,r16,-1
 4004ab0:	d8800a15 	stw	r2,40(sp)
 4004ab4:	000d883a 	mov	r6,zero
 4004ab8:	01cffe34 	movhi	r7,16376
 4004abc:	400fbd80 	call	400fbd8 <__subdf3>
 4004ac0:	0198dbf4 	movhi	r6,25455
 4004ac4:	01cff4f4 	movhi	r7,16339
 4004ac8:	3190d844 	addi	r6,r6,17249
 4004acc:	39e1e9c4 	addi	r7,r7,-30809
 4004ad0:	1009883a 	mov	r4,r2
 4004ad4:	180b883a 	mov	r5,r3
 4004ad8:	400f42c0 	call	400f42c <__muldf3>
 4004adc:	01a2d874 	movhi	r6,35681
 4004ae0:	01cff1f4 	movhi	r7,16327
 4004ae4:	31b22cc4 	addi	r6,r6,-14157
 4004ae8:	39e28a04 	addi	r7,r7,-30168
 4004aec:	180b883a 	mov	r5,r3
 4004af0:	1009883a 	mov	r4,r2
 4004af4:	400dfbc0 	call	400dfbc <__adddf3>
 4004af8:	8009883a 	mov	r4,r16
 4004afc:	102b883a 	mov	r21,r2
 4004b00:	1825883a 	mov	r18,r3
 4004b04:	40105600 	call	4010560 <__floatsidf>
 4004b08:	019427f4 	movhi	r6,20639
 4004b0c:	01cff4f4 	movhi	r7,16339
 4004b10:	319e7ec4 	addi	r6,r6,31227
 4004b14:	39d104c4 	addi	r7,r7,17427
 4004b18:	1009883a 	mov	r4,r2
 4004b1c:	180b883a 	mov	r5,r3
 4004b20:	400f42c0 	call	400f42c <__muldf3>
 4004b24:	100d883a 	mov	r6,r2
 4004b28:	180f883a 	mov	r7,r3
 4004b2c:	a809883a 	mov	r4,r21
 4004b30:	900b883a 	mov	r5,r18
 4004b34:	400dfbc0 	call	400dfbc <__adddf3>
 4004b38:	1009883a 	mov	r4,r2
 4004b3c:	180b883a 	mov	r5,r3
 4004b40:	1025883a 	mov	r18,r2
 4004b44:	182d883a 	mov	r22,r3
 4004b48:	40104e00 	call	40104e0 <__fixdfsi>
 4004b4c:	000d883a 	mov	r6,zero
 4004b50:	000f883a 	mov	r7,zero
 4004b54:	9009883a 	mov	r4,r18
 4004b58:	b00b883a 	mov	r5,r22
 4004b5c:	102b883a 	mov	r21,r2
 4004b60:	d8800315 	stw	r2,12(sp)
 4004b64:	400f3440 	call	400f344 <__ledf2>
 4004b68:	10028f16 	blt	r2,zero,40055a8 <_dtoa_r+0xc64>
 4004b6c:	dc800317 	ldw	r18,12(sp)
 4004b70:	a421c83a 	sub	r16,r20,r16
 4004b74:	85bfffc4 	addi	r22,r16,-1
 4004b78:	908005e8 	cmpgeui	r2,r18,23
 4004b7c:	1002821e 	bne	r2,zero,4005588 <_dtoa_r+0xc44>
 4004b80:	900690fa 	slli	r3,r18,3
 4004b84:	00810074 	movhi	r2,1025
 4004b88:	1088dd04 	addi	r2,r2,9076
 4004b8c:	10c5883a 	add	r2,r2,r3
 4004b90:	11800017 	ldw	r6,0(r2)
 4004b94:	11c00117 	ldw	r7,4(r2)
 4004b98:	9809883a 	mov	r4,r19
 4004b9c:	880b883a 	mov	r5,r17
 4004ba0:	400f3440 	call	400f344 <__ledf2>
 4004ba4:	1002550e 	bge	r2,zero,40054fc <_dtoa_r+0xbb8>
 4004ba8:	90bfffc4 	addi	r2,r18,-1
 4004bac:	d8800315 	stw	r2,12(sp)
 4004bb0:	d8000915 	stw	zero,36(sp)
 4004bb4:	b0027716 	blt	r22,zero,4005594 <_dtoa_r+0xc50>
 4004bb8:	d8000615 	stw	zero,24(sp)
 4004bbc:	d8800317 	ldw	r2,12(sp)
 4004bc0:	1002510e 	bge	r2,zero,4005508 <_dtoa_r+0xbc4>
 4004bc4:	d8800317 	ldw	r2,12(sp)
 4004bc8:	d8c00617 	ldw	r3,24(sp)
 4004bcc:	d8000315 	stw	zero,12(sp)
 4004bd0:	d8800415 	stw	r2,16(sp)
 4004bd4:	1887c83a 	sub	r3,r3,r2
 4004bd8:	d8c00615 	stw	r3,24(sp)
 4004bdc:	0087c83a 	sub	r3,zero,r2
 4004be0:	d8c00815 	stw	r3,32(sp)
 4004be4:	d8c00217 	ldw	r3,8(sp)
 4004be8:	188002a8 	cmpgeui	r2,r3,10
 4004bec:	10024d1e 	bne	r2,zero,4005524 <_dtoa_r+0xbe0>
 4004bf0:	18800190 	cmplti	r2,r3,6
 4004bf4:	10028b1e 	bne	r2,zero,4005624 <_dtoa_r+0xce0>
 4004bf8:	18bfff04 	addi	r2,r3,-4
 4004bfc:	d8800215 	stw	r2,8(sp)
 4004c00:	0021883a 	mov	r16,zero
 4004c04:	d8c00217 	ldw	r3,8(sp)
 4004c08:	18800120 	cmpeqi	r2,r3,4
 4004c0c:	10035d1e 	bne	r2,zero,4005984 <_dtoa_r+0x1040>
 4004c10:	18800160 	cmpeqi	r2,r3,5
 4004c14:	10031b1e 	bne	r2,zero,4005884 <_dtoa_r+0xf40>
 4004c18:	188000a0 	cmpeqi	r2,r3,2
 4004c1c:	10024d26 	beq	r2,zero,4005554 <_dtoa_r+0xc10>
 4004c20:	d8000715 	stw	zero,28(sp)
 4004c24:	d8801e17 	ldw	r2,120(sp)
 4004c28:	0083260e 	bge	zero,r2,40058c4 <_dtoa_r+0xf80>
 4004c2c:	d8800b15 	stw	r2,44(sp)
 4004c30:	d8800515 	stw	r2,20(sp)
 4004c34:	100d883a 	mov	r6,r2
 4004c38:	b8001115 	stw	zero,68(r23)
 4004c3c:	30800610 	cmplti	r2,r6,24
 4004c40:	1004f11e 	bne	r2,zero,4006008 <_dtoa_r+0x16c4>
 4004c44:	00c00044 	movi	r3,1
 4004c48:	00800104 	movi	r2,4
 4004c4c:	1085883a 	add	r2,r2,r2
 4004c50:	11000504 	addi	r4,r2,20
 4004c54:	180b883a 	mov	r5,r3
 4004c58:	18c00044 	addi	r3,r3,1
 4004c5c:	313ffb2e 	bgeu	r6,r4,4004c4c <_dtoa_r+0x308>
 4004c60:	b9401115 	stw	r5,68(r23)
 4004c64:	b809883a 	mov	r4,r23
 4004c68:	4006a5c0 	call	4006a5c <_Balloc>
 4004c6c:	d8800115 	stw	r2,4(sp)
 4004c70:	1004de26 	beq	r2,zero,4005fec <_dtoa_r+0x16a8>
 4004c74:	d8800117 	ldw	r2,4(sp)
 4004c78:	b8801015 	stw	r2,64(r23)
 4004c7c:	d8800517 	ldw	r2,20(sp)
 4004c80:	108003e8 	cmpgeui	r2,r2,15
 4004c84:	1001021e 	bne	r2,zero,4005090 <_dtoa_r+0x74c>
 4004c88:	80010126 	beq	r16,zero,4005090 <_dtoa_r+0x74c>
 4004c8c:	d9000417 	ldw	r4,16(sp)
 4004c90:	01038b0e 	bge	zero,r4,4005ac0 <_dtoa_r+0x117c>
 4004c94:	208003cc 	andi	r2,r4,15
 4004c98:	100690fa 	slli	r3,r2,3
 4004c9c:	2029d13a 	srai	r20,r4,4
 4004ca0:	00810074 	movhi	r2,1025
 4004ca4:	1088dd04 	addi	r2,r2,9076
 4004ca8:	10c5883a 	add	r2,r2,r3
 4004cac:	a0c0040c 	andi	r3,r20,16
 4004cb0:	12800017 	ldw	r10,0(r2)
 4004cb4:	12400117 	ldw	r9,4(r2)
 4004cb8:	18032c26 	beq	r3,zero,400596c <_dtoa_r+0x1028>
 4004cbc:	00810074 	movhi	r2,1025
 4004cc0:	1088d304 	addi	r2,r2,9036
 4004cc4:	11800817 	ldw	r6,32(r2)
 4004cc8:	11c00917 	ldw	r7,36(r2)
 4004ccc:	9809883a 	mov	r4,r19
 4004cd0:	880b883a 	mov	r5,r17
 4004cd4:	da400e15 	stw	r9,56(sp)
 4004cd8:	da800d15 	stw	r10,52(sp)
 4004cdc:	400e8ac0 	call	400e8ac <__divdf3>
 4004ce0:	da800d17 	ldw	r10,52(sp)
 4004ce4:	da400e17 	ldw	r9,56(sp)
 4004ce8:	a50003cc 	andi	r20,r20,15
 4004cec:	d8800c15 	stw	r2,48(sp)
 4004cf0:	1825883a 	mov	r18,r3
 4004cf4:	054000c4 	movi	r21,3
 4004cf8:	a0001126 	beq	r20,zero,4004d40 <_dtoa_r+0x3fc>
 4004cfc:	04010074 	movhi	r16,1025
 4004d00:	8408d304 	addi	r16,r16,9036
 4004d04:	5009883a 	mov	r4,r10
 4004d08:	480b883a 	mov	r5,r9
 4004d0c:	a180004c 	andi	r6,r20,1
 4004d10:	30000626 	beq	r6,zero,4004d2c <_dtoa_r+0x3e8>
 4004d14:	81800017 	ldw	r6,0(r16)
 4004d18:	81c00117 	ldw	r7,4(r16)
 4004d1c:	ad400044 	addi	r21,r21,1
 4004d20:	400f42c0 	call	400f42c <__muldf3>
 4004d24:	1009883a 	mov	r4,r2
 4004d28:	180b883a 	mov	r5,r3
 4004d2c:	a029d07a 	srai	r20,r20,1
 4004d30:	84000204 	addi	r16,r16,8
 4004d34:	a03ff51e 	bne	r20,zero,4004d0c <_dtoa_r+0x3c8>
 4004d38:	2015883a 	mov	r10,r4
 4004d3c:	2813883a 	mov	r9,r5
 4004d40:	d9000c17 	ldw	r4,48(sp)
 4004d44:	900b883a 	mov	r5,r18
 4004d48:	500d883a 	mov	r6,r10
 4004d4c:	480f883a 	mov	r7,r9
 4004d50:	400e8ac0 	call	400e8ac <__divdf3>
 4004d54:	1021883a 	mov	r16,r2
 4004d58:	1825883a 	mov	r18,r3
 4004d5c:	d8800917 	ldw	r2,36(sp)
 4004d60:	10000626 	beq	r2,zero,4004d7c <_dtoa_r+0x438>
 4004d64:	000d883a 	mov	r6,zero
 4004d68:	01cffc34 	movhi	r7,16368
 4004d6c:	8009883a 	mov	r4,r16
 4004d70:	900b883a 	mov	r5,r18
 4004d74:	400f3440 	call	400f344 <__ledf2>
 4004d78:	10044416 	blt	r2,zero,4005e8c <_dtoa_r+0x1548>
 4004d7c:	a809883a 	mov	r4,r21
 4004d80:	40105600 	call	4010560 <__floatsidf>
 4004d84:	800d883a 	mov	r6,r16
 4004d88:	900f883a 	mov	r7,r18
 4004d8c:	1009883a 	mov	r4,r2
 4004d90:	180b883a 	mov	r5,r3
 4004d94:	400f42c0 	call	400f42c <__muldf3>
 4004d98:	000d883a 	mov	r6,zero
 4004d9c:	01d00734 	movhi	r7,16412
 4004da0:	1009883a 	mov	r4,r2
 4004da4:	180b883a 	mov	r5,r3
 4004da8:	400dfbc0 	call	400dfbc <__adddf3>
 4004dac:	1029883a 	mov	r20,r2
 4004db0:	00bf3034 	movhi	r2,64704
 4004db4:	1885883a 	add	r2,r3,r2
 4004db8:	d8800c15 	stw	r2,48(sp)
 4004dbc:	d8800517 	ldw	r2,20(sp)
 4004dc0:	10032226 	beq	r2,zero,4005a4c <_dtoa_r+0x1108>
 4004dc4:	d8800417 	ldw	r2,16(sp)
 4004dc8:	d8801115 	stw	r2,68(sp)
 4004dcc:	d8800517 	ldw	r2,20(sp)
 4004dd0:	d8800d15 	stw	r2,52(sp)
 4004dd4:	d8800d17 	ldw	r2,52(sp)
 4004dd8:	900b883a 	mov	r5,r18
 4004ddc:	8009883a 	mov	r4,r16
 4004de0:	10bfffc4 	addi	r2,r2,-1
 4004de4:	100690fa 	slli	r3,r2,3
 4004de8:	00810074 	movhi	r2,1025
 4004dec:	1088dd04 	addi	r2,r2,9076
 4004df0:	10c5883a 	add	r2,r2,r3
 4004df4:	12800017 	ldw	r10,0(r2)
 4004df8:	12c00117 	ldw	r11,4(r2)
 4004dfc:	da800f15 	stw	r10,60(sp)
 4004e00:	dac00e15 	stw	r11,56(sp)
 4004e04:	40104e00 	call	40104e0 <__fixdfsi>
 4004e08:	1009883a 	mov	r4,r2
 4004e0c:	10800c04 	addi	r2,r2,48
 4004e10:	d8801015 	stw	r2,64(sp)
 4004e14:	40105600 	call	4010560 <__floatsidf>
 4004e18:	8009883a 	mov	r4,r16
 4004e1c:	100d883a 	mov	r6,r2
 4004e20:	180f883a 	mov	r7,r3
 4004e24:	900b883a 	mov	r5,r18
 4004e28:	400fbd80 	call	400fbd8 <__subdf3>
 4004e2c:	d9000117 	ldw	r4,4(sp)
 4004e30:	dac00e17 	ldw	r11,56(sp)
 4004e34:	da800f17 	ldw	r10,60(sp)
 4004e38:	1825883a 	mov	r18,r3
 4004e3c:	d8c00717 	ldw	r3,28(sp)
 4004e40:	25400044 	addi	r21,r4,1
 4004e44:	1021883a 	mov	r16,r2
 4004e48:	500d883a 	mov	r6,r10
 4004e4c:	580f883a 	mov	r7,r11
 4004e50:	1803b626 	beq	r3,zero,4005d2c <_dtoa_r+0x13e8>
 4004e54:	0009883a 	mov	r4,zero
 4004e58:	014ff834 	movhi	r5,16352
 4004e5c:	400e8ac0 	call	400e8ac <__divdf3>
 4004e60:	d9c00c17 	ldw	r7,48(sp)
 4004e64:	a00d883a 	mov	r6,r20
 4004e68:	1009883a 	mov	r4,r2
 4004e6c:	180b883a 	mov	r5,r3
 4004e70:	400fbd80 	call	400fbd8 <__subdf3>
 4004e74:	d9000117 	ldw	r4,4(sp)
 4004e78:	1029883a 	mov	r20,r2
 4004e7c:	d8801017 	ldw	r2,64(sp)
 4004e80:	800d883a 	mov	r6,r16
 4004e84:	900f883a 	mov	r7,r18
 4004e88:	20800005 	stb	r2,0(r4)
 4004e8c:	180b883a 	mov	r5,r3
 4004e90:	a009883a 	mov	r4,r20
 4004e94:	d8c00c15 	stw	r3,48(sp)
 4004e98:	400f25c0 	call	400f25c <__gedf2>
 4004e9c:	0083e716 	blt	zero,r2,4005e3c <_dtoa_r+0x14f8>
 4004ea0:	0005883a 	mov	r2,zero
 4004ea4:	dd800e15 	stw	r22,56(sp)
 4004ea8:	dc400f15 	stw	r17,60(sp)
 4004eac:	dd800d17 	ldw	r22,52(sp)
 4004eb0:	dc400c17 	ldw	r17,48(sp)
 4004eb4:	ddc00d15 	stw	r23,52(sp)
 4004eb8:	dcc00c15 	stw	r19,48(sp)
 4004ebc:	1027883a 	mov	r19,r2
 4004ec0:	00002606 	br	4004f5c <_dtoa_r+0x618>
 4004ec4:	9cc00044 	addi	r19,r19,1
 4004ec8:	9d806d0e 	bge	r19,r22,4005080 <_dtoa_r+0x73c>
 4004ecc:	a009883a 	mov	r4,r20
 4004ed0:	880b883a 	mov	r5,r17
 4004ed4:	000d883a 	mov	r6,zero
 4004ed8:	01d00934 	movhi	r7,16420
 4004edc:	400f42c0 	call	400f42c <__muldf3>
 4004ee0:	000d883a 	mov	r6,zero
 4004ee4:	01d00934 	movhi	r7,16420
 4004ee8:	8009883a 	mov	r4,r16
 4004eec:	900b883a 	mov	r5,r18
 4004ef0:	1029883a 	mov	r20,r2
 4004ef4:	1823883a 	mov	r17,r3
 4004ef8:	400f42c0 	call	400f42c <__muldf3>
 4004efc:	180b883a 	mov	r5,r3
 4004f00:	1009883a 	mov	r4,r2
 4004f04:	1821883a 	mov	r16,r3
 4004f08:	1025883a 	mov	r18,r2
 4004f0c:	40104e00 	call	40104e0 <__fixdfsi>
 4004f10:	1009883a 	mov	r4,r2
 4004f14:	102f883a 	mov	r23,r2
 4004f18:	40105600 	call	4010560 <__floatsidf>
 4004f1c:	9009883a 	mov	r4,r18
 4004f20:	800b883a 	mov	r5,r16
 4004f24:	100d883a 	mov	r6,r2
 4004f28:	180f883a 	mov	r7,r3
 4004f2c:	400fbd80 	call	400fbd8 <__subdf3>
 4004f30:	ad400044 	addi	r21,r21,1
 4004f34:	ba000c04 	addi	r8,r23,48
 4004f38:	aa3fffc5 	stb	r8,-1(r21)
 4004f3c:	a00d883a 	mov	r6,r20
 4004f40:	880f883a 	mov	r7,r17
 4004f44:	1009883a 	mov	r4,r2
 4004f48:	180b883a 	mov	r5,r3
 4004f4c:	1021883a 	mov	r16,r2
 4004f50:	1825883a 	mov	r18,r3
 4004f54:	400f3440 	call	400f344 <__ledf2>
 4004f58:	10040516 	blt	r2,zero,4005f70 <_dtoa_r+0x162c>
 4004f5c:	800d883a 	mov	r6,r16
 4004f60:	900f883a 	mov	r7,r18
 4004f64:	0009883a 	mov	r4,zero
 4004f68:	014ffc34 	movhi	r5,16368
 4004f6c:	400fbd80 	call	400fbd8 <__subdf3>
 4004f70:	a00d883a 	mov	r6,r20
 4004f74:	880f883a 	mov	r7,r17
 4004f78:	1009883a 	mov	r4,r2
 4004f7c:	180b883a 	mov	r5,r3
 4004f80:	400f3440 	call	400f344 <__ledf2>
 4004f84:	103fcf0e 	bge	r2,zero,4004ec4 <_dtoa_r+0x580>
 4004f88:	d8801117 	ldw	r2,68(sp)
 4004f8c:	ddc00d17 	ldw	r23,52(sp)
 4004f90:	d9000117 	ldw	r4,4(sp)
 4004f94:	10800044 	addi	r2,r2,1
 4004f98:	d8800415 	stw	r2,16(sp)
 4004f9c:	a829883a 	mov	r20,r21
 4004fa0:	00000106 	br	4004fa8 <_dtoa_r+0x664>
 4004fa4:	a103da26 	beq	r20,r4,4005f10 <_dtoa_r+0x15cc>
 4004fa8:	a0ffffc3 	ldbu	r3,-1(r20)
 4004fac:	a02b883a 	mov	r21,r20
 4004fb0:	a53fffc4 	addi	r20,r20,-1
 4004fb4:	18803fcc 	andi	r2,r3,255
 4004fb8:	1080201c 	xori	r2,r2,128
 4004fbc:	10bfe004 	addi	r2,r2,-128
 4004fc0:	10800e60 	cmpeqi	r2,r2,57
 4004fc4:	103ff71e 	bne	r2,zero,4004fa4 <_dtoa_r+0x660>
 4004fc8:	18c00044 	addi	r3,r3,1
 4004fcc:	a0c00005 	stb	r3,0(r20)
 4004fd0:	00013f06 	br	40054d0 <_dtoa_r+0xb8c>
 4004fd4:	04600034 	movhi	r17,32768
 4004fd8:	8c7fffc4 	addi	r17,r17,-1
 4004fdc:	9462703a 	and	r17,r18,r17
 4004fe0:	00800044 	movi	r2,1
 4004fe4:	8825883a 	mov	r18,r17
 4004fe8:	80800015 	stw	r2,0(r16)
 4004fec:	00dffc34 	movhi	r3,32752
 4004ff0:	909ffc2c 	andhi	r2,r18,32752
 4004ff4:	10fe731e 	bne	r2,r3,40049c4 <_dtoa_r+0x80>
 4004ff8:	d9001f17 	ldw	r4,124(sp)
 4004ffc:	00800434 	movhi	r2,16
 4005000:	10bfffc4 	addi	r2,r2,-1
 4005004:	9084703a 	and	r2,r18,r2
 4005008:	00c9c3c4 	movi	r3,9999
 400500c:	20c00015 	stw	r3,0(r4)
 4005010:	14e6b03a 	or	r19,r2,r19
 4005014:	9800141e 	bne	r19,zero,4005068 <_dtoa_r+0x724>
 4005018:	d8802117 	ldw	r2,132(sp)
 400501c:	10041226 	beq	r2,zero,4006068 <_dtoa_r+0x1724>
 4005020:	00810074 	movhi	r2,1025
 4005024:	1007883a 	mov	r3,r2
 4005028:	18c89e04 	addi	r3,r3,8824
 400502c:	00810074 	movhi	r2,1025
 4005030:	d8c00115 	stw	r3,4(sp)
 4005034:	1088a004 	addi	r2,r2,8832
 4005038:	d8c02117 	ldw	r3,132(sp)
 400503c:	18800015 	stw	r2,0(r3)
 4005040:	003e7206 	br	4004a0c <_dtoa_r+0xc8>
 4005044:	01400434 	movhi	r5,16
 4005048:	297fffc4 	addi	r5,r5,-1
 400504c:	894a703a 	and	r5,r17,r5
 4005050:	dd001217 	ldw	r20,72(sp)
 4005054:	9809883a 	mov	r4,r19
 4005058:	294ffc34 	orhi	r5,r5,16368
 400505c:	843f0044 	addi	r16,r16,-1023
 4005060:	d8000a15 	stw	zero,40(sp)
 4005064:	003e9306 	br	4004ab4 <_dtoa_r+0x170>
 4005068:	d8802117 	ldw	r2,132(sp)
 400506c:	1001fe1e 	bne	r2,zero,4005868 <_dtoa_r+0xf24>
 4005070:	00810074 	movhi	r2,1025
 4005074:	10889d04 	addi	r2,r2,8820
 4005078:	d8800115 	stw	r2,4(sp)
 400507c:	003e6306 	br	4004a0c <_dtoa_r+0xc8>
 4005080:	dd800e17 	ldw	r22,56(sp)
 4005084:	ddc00d17 	ldw	r23,52(sp)
 4005088:	dc400f17 	ldw	r17,60(sp)
 400508c:	dcc00c17 	ldw	r19,48(sp)
 4005090:	d8801317 	ldw	r2,76(sp)
 4005094:	10006e16 	blt	r2,zero,4005250 <_dtoa_r+0x90c>
 4005098:	d9000417 	ldw	r4,16(sp)
 400509c:	20c003c8 	cmpgei	r3,r4,15
 40050a0:	18006b1e 	bne	r3,zero,4005250 <_dtoa_r+0x90c>
 40050a4:	200690fa 	slli	r3,r4,3
 40050a8:	00810074 	movhi	r2,1025
 40050ac:	1088dd04 	addi	r2,r2,9076
 40050b0:	10c5883a 	add	r2,r2,r3
 40050b4:	14000017 	ldw	r16,0(r2)
 40050b8:	14800117 	ldw	r18,4(r2)
 40050bc:	d8801e17 	ldw	r2,120(sp)
 40050c0:	1000150e 	bge	r2,zero,4005118 <_dtoa_r+0x7d4>
 40050c4:	d8800517 	ldw	r2,20(sp)
 40050c8:	00801316 	blt	zero,r2,4005118 <_dtoa_r+0x7d4>
 40050cc:	d8800517 	ldw	r2,20(sp)
 40050d0:	1002721e 	bne	r2,zero,4005a9c <_dtoa_r+0x1158>
 40050d4:	8009883a 	mov	r4,r16
 40050d8:	000d883a 	mov	r6,zero
 40050dc:	01d00534 	movhi	r7,16404
 40050e0:	900b883a 	mov	r5,r18
 40050e4:	400f42c0 	call	400f42c <__muldf3>
 40050e8:	100d883a 	mov	r6,r2
 40050ec:	180f883a 	mov	r7,r3
 40050f0:	9809883a 	mov	r4,r19
 40050f4:	880b883a 	mov	r5,r17
 40050f8:	400f3440 	call	400f344 <__ledf2>
 40050fc:	0029883a 	mov	r20,zero
 4005100:	0021883a 	mov	r16,zero
 4005104:	00820216 	blt	zero,r2,4005910 <_dtoa_r+0xfcc>
 4005108:	d8801e17 	ldw	r2,120(sp)
 400510c:	dd400117 	ldw	r21,4(sp)
 4005110:	00a2303a 	nor	r17,zero,r2
 4005114:	00020406 	br	4005928 <_dtoa_r+0xfe4>
 4005118:	800d883a 	mov	r6,r16
 400511c:	900f883a 	mov	r7,r18
 4005120:	9809883a 	mov	r4,r19
 4005124:	880b883a 	mov	r5,r17
 4005128:	400e8ac0 	call	400e8ac <__divdf3>
 400512c:	180b883a 	mov	r5,r3
 4005130:	1009883a 	mov	r4,r2
 4005134:	40104e00 	call	40104e0 <__fixdfsi>
 4005138:	1009883a 	mov	r4,r2
 400513c:	102b883a 	mov	r21,r2
 4005140:	40105600 	call	4010560 <__floatsidf>
 4005144:	800d883a 	mov	r6,r16
 4005148:	900f883a 	mov	r7,r18
 400514c:	1009883a 	mov	r4,r2
 4005150:	180b883a 	mov	r5,r3
 4005154:	400f42c0 	call	400f42c <__muldf3>
 4005158:	100d883a 	mov	r6,r2
 400515c:	9809883a 	mov	r4,r19
 4005160:	880b883a 	mov	r5,r17
 4005164:	180f883a 	mov	r7,r3
 4005168:	400fbd80 	call	400fbd8 <__subdf3>
 400516c:	d9800117 	ldw	r6,4(sp)
 4005170:	dd800517 	ldw	r22,20(sp)
 4005174:	1009883a 	mov	r4,r2
 4005178:	a8800c04 	addi	r2,r21,48
 400517c:	30800005 	stb	r2,0(r6)
 4005180:	b0800060 	cmpeqi	r2,r22,1
 4005184:	180b883a 	mov	r5,r3
 4005188:	35000044 	addi	r20,r6,1
 400518c:	10029f1e 	bne	r2,zero,4005c0c <_dtoa_r+0x12c8>
 4005190:	04400044 	movi	r17,1
 4005194:	ddc00215 	stw	r23,8(sp)
 4005198:	00001c06 	br	400520c <_dtoa_r+0x8c8>
 400519c:	800d883a 	mov	r6,r16
 40051a0:	900f883a 	mov	r7,r18
 40051a4:	a809883a 	mov	r4,r21
 40051a8:	980b883a 	mov	r5,r19
 40051ac:	400e8ac0 	call	400e8ac <__divdf3>
 40051b0:	180b883a 	mov	r5,r3
 40051b4:	1009883a 	mov	r4,r2
 40051b8:	40104e00 	call	40104e0 <__fixdfsi>
 40051bc:	1009883a 	mov	r4,r2
 40051c0:	102f883a 	mov	r23,r2
 40051c4:	40105600 	call	4010560 <__floatsidf>
 40051c8:	800d883a 	mov	r6,r16
 40051cc:	900f883a 	mov	r7,r18
 40051d0:	1009883a 	mov	r4,r2
 40051d4:	180b883a 	mov	r5,r3
 40051d8:	400f42c0 	call	400f42c <__muldf3>
 40051dc:	a809883a 	mov	r4,r21
 40051e0:	980b883a 	mov	r5,r19
 40051e4:	100d883a 	mov	r6,r2
 40051e8:	180f883a 	mov	r7,r3
 40051ec:	400fbd80 	call	400fbd8 <__subdf3>
 40051f0:	b9000c04 	addi	r4,r23,48
 40051f4:	a1000005 	stb	r4,0(r20)
 40051f8:	8c400044 	addi	r17,r17,1
 40051fc:	a5000044 	addi	r20,r20,1
 4005200:	1009883a 	mov	r4,r2
 4005204:	180b883a 	mov	r5,r3
 4005208:	8d827e26 	beq	r17,r22,4005c04 <_dtoa_r+0x12c0>
 400520c:	000d883a 	mov	r6,zero
 4005210:	01d00934 	movhi	r7,16420
 4005214:	400f42c0 	call	400f42c <__muldf3>
 4005218:	000d883a 	mov	r6,zero
 400521c:	000f883a 	mov	r7,zero
 4005220:	1009883a 	mov	r4,r2
 4005224:	180b883a 	mov	r5,r3
 4005228:	102b883a 	mov	r21,r2
 400522c:	1827883a 	mov	r19,r3
 4005230:	400f1dc0 	call	400f1dc <__eqdf2>
 4005234:	103fd91e 	bne	r2,zero,400519c <_dtoa_r+0x858>
 4005238:	d8800417 	ldw	r2,16(sp)
 400523c:	ddc00217 	ldw	r23,8(sp)
 4005240:	a02b883a 	mov	r21,r20
 4005244:	10800044 	addi	r2,r2,1
 4005248:	d8800415 	stw	r2,16(sp)
 400524c:	0000a006 	br	40054d0 <_dtoa_r+0xb8c>
 4005250:	d8c00717 	ldw	r3,28(sp)
 4005254:	1800e326 	beq	r3,zero,40055e4 <_dtoa_r+0xca0>
 4005258:	d8c00217 	ldw	r3,8(sp)
 400525c:	18c00088 	cmpgei	r3,r3,2
 4005260:	1801e026 	beq	r3,zero,40059e4 <_dtoa_r+0x10a0>
 4005264:	d8800517 	ldw	r2,20(sp)
 4005268:	153fffc4 	addi	r20,r2,-1
 400526c:	d8800817 	ldw	r2,32(sp)
 4005270:	1501bc0e 	bge	r2,r20,4005964 <_dtoa_r+0x1020>
 4005274:	d8800817 	ldw	r2,32(sp)
 4005278:	d8c00317 	ldw	r3,12(sp)
 400527c:	dd000815 	stw	r20,32(sp)
 4005280:	a085c83a 	sub	r2,r20,r2
 4005284:	1885883a 	add	r2,r3,r2
 4005288:	d8800315 	stw	r2,12(sp)
 400528c:	0029883a 	mov	r20,zero
 4005290:	d8800517 	ldw	r2,20(sp)
 4005294:	10028b16 	blt	r2,zero,4005cc4 <_dtoa_r+0x1380>
 4005298:	d8c00617 	ldw	r3,24(sp)
 400529c:	b0ad883a 	add	r22,r22,r2
 40052a0:	1885883a 	add	r2,r3,r2
 40052a4:	1825883a 	mov	r18,r3
 40052a8:	d8800615 	stw	r2,24(sp)
 40052ac:	01400044 	movi	r5,1
 40052b0:	b809883a 	mov	r4,r23
 40052b4:	4006ecc0 	call	4006ecc <__i2b>
 40052b8:	1021883a 	mov	r16,r2
 40052bc:	0480080e 	bge	zero,r18,40052e0 <_dtoa_r+0x99c>
 40052c0:	0580070e 	bge	zero,r22,40052e0 <_dtoa_r+0x99c>
 40052c4:	9005883a 	mov	r2,r18
 40052c8:	b4819e16 	blt	r22,r18,4005944 <_dtoa_r+0x1000>
 40052cc:	d8c00617 	ldw	r3,24(sp)
 40052d0:	90a5c83a 	sub	r18,r18,r2
 40052d4:	b0adc83a 	sub	r22,r22,r2
 40052d8:	1887c83a 	sub	r3,r3,r2
 40052dc:	d8c00615 	stw	r3,24(sp)
 40052e0:	d8800817 	ldw	r2,32(sp)
 40052e4:	10001426 	beq	r2,zero,4005338 <_dtoa_r+0x9f4>
 40052e8:	d8800717 	ldw	r2,28(sp)
 40052ec:	1001ee26 	beq	r2,zero,4005aa8 <_dtoa_r+0x1164>
 40052f0:	05000e0e 	bge	zero,r20,400532c <_dtoa_r+0x9e8>
 40052f4:	800b883a 	mov	r5,r16
