
RoomTempControllerSW.elf:     file format elf32-littlenios2
RoomTempControllerSW.elf
architecture: nios2:r1, flags 0x00000112:
EXEC_P, HAS_SYMS, D_PAGED
start address 0x04000224

Program Header:
    LOAD off    0x00001000 vaddr 0x04000000 paddr 0x04000000 align 2**12
         filesz 0x00000020 memsz 0x00000020 flags r-x
    LOAD off    0x00001020 vaddr 0x04000020 paddr 0x04000020 align 2**12
         filesz 0x00012748 memsz 0x00012748 flags r-x
    LOAD off    0x00013768 vaddr 0x04012768 paddr 0x040132e0 align 2**12
         filesz 0x00000b78 memsz 0x00000b78 flags rw-
    LOAD off    0x00014e58 vaddr 0x04013e58 paddr 0x04013e58 align 2**12
         filesz 0x00000000 memsz 0x000005b4 flags rw-

Sections:
Idx Name          Size      VMA       LMA       File off  Algn
  0 .entry        00000020  04000000  04000000  00001000  2**5
                  CONTENTS, ALLOC, LOAD, READONLY, CODE
  1 .exceptions   00000204  04000020  04000020  00001020  2**2
                  CONTENTS, ALLOC, LOAD, READONLY, CODE
  2 .text         00011e50  04000224  04000224  00001224  2**2
                  CONTENTS, ALLOC, LOAD, READONLY, CODE
  3 .rodata       000006f4  04012074  04012074  00013074  2**2
                  CONTENTS, ALLOC, LOAD, READONLY, DATA
  4 .rwdata       00000b78  04012768  040132e0  00013768  2**2
                  CONTENTS, ALLOC, LOAD, DATA, SMALL_DATA
  5 .bss          000005b4  04013e58  04013e58  00014e58  2**2
                  ALLOC, SMALL_DATA
  6 .sdram_controller_0 00000000  0401440c  0401440c  000142e0  2**0
                  CONTENTS
  7 .comment      0000002d  00000000  00000000  000142e0  2**0
                  CONTENTS, READONLY
  8 .debug_aranges 00001088  00000000  00000000  00014310  2**3
                  CONTENTS, READONLY, DEBUGGING, OCTETS
  9 .debug_info   0002eac5  00000000  00000000  00015398  2**0
                  CONTENTS, READONLY, DEBUGGING, OCTETS
 10 .debug_abbrev 0000b5fa  00000000  00000000  00043e5d  2**0
                  CONTENTS, READONLY, DEBUGGING, OCTETS
 11 .debug_line   00018722  00000000  00000000  0004f457  2**0
                  CONTENTS, READONLY, DEBUGGING, OCTETS
 12 .debug_frame  000025b0  00000000  00000000  00067b7c  2**2
                  CONTENTS, READONLY, DEBUGGING, OCTETS
 13 .debug_str    0000414d  00000000  00000000  0006a12c  2**0
                  CONTENTS, READONLY, DEBUGGING, OCTETS
 14 .debug_loc    000204cd  00000000  00000000  0006e279  2**0
                  CONTENTS, READONLY, DEBUGGING, OCTETS
 15 .debug_alt_sim_info 00000010  00000000  00000000  0008e748  2**2
                  CONTENTS, READONLY, DEBUGGING, OCTETS
 16 .debug_ranges 000026a8  00000000  00000000  0008e758  2**3
                  CONTENTS, READONLY, DEBUGGING, OCTETS
 17 .thread_model 00000003  00000000  00000000  000942e4  2**0
                  CONTENTS, READONLY
 18 .cpu          00000005  00000000  00000000  000942e7  2**0
                  CONTENTS, READONLY
 19 .qsys         00000001  00000000  00000000  000942ec  2**0
                  CONTENTS, READONLY
 20 .simulation_enabled 00000001  00000000  00000000  000942ed  2**0
                  CONTENTS, READONLY
 21 .stderr_dev   00000006  00000000  00000000  000942ee  2**0
                  CONTENTS, READONLY
 22 .stdin_dev    00000006  00000000  00000000  000942f4  2**0
                  CONTENTS, READONLY
 23 .stdout_dev   00000006  00000000  00000000  000942fa  2**0
                  CONTENTS, READONLY
 24 .sopc_system_name 00000003  00000000  00000000  00094300  2**0
                  CONTENTS, READONLY
 25 .quartus_project_dir 0000004d  00000000  00000000  00094303  2**0
                  CONTENTS, READONLY
 26 .jdi          000031de  00000000  00000000  00094350  2**0
                  CONTENTS, READONLY
SYMBOL TABLE:
04000000 l    d  .entry	00000000 .entry
04000020 l    d  .exceptions	00000000 .exceptions
04000224 l    d  .text	00000000 .text
04012074 l    d  .rodata	00000000 .rodata
04012768 l    d  .rwdata	00000000 .rwdata
04013e58 l    d  .bss	00000000 .bss
0401440c l    d  .sdram_controller_0	00000000 .sdram_controller_0
00000000 l    d  .comment	00000000 .comment
00000000 l    d  .debug_aranges	00000000 .debug_aranges
00000000 l    d  .debug_info	00000000 .debug_info
00000000 l    d  .debug_abbrev	00000000 .debug_abbrev
00000000 l    d  .debug_line	00000000 .debug_line
00000000 l    d  .debug_frame	00000000 .debug_frame
00000000 l    d  .debug_str	00000000 .debug_str
00000000 l    d  .debug_loc	00000000 .debug_loc
00000000 l    d  .debug_alt_sim_info	00000000 .debug_alt_sim_info
00000000 l    d  .debug_ranges	00000000 .debug_ranges
00000000 l    df *ABS*	00000000 c:/Users/gabri/OneDrive/Desktop/EFES_Project/projects/TempControllerRoom_FPGA/software/RoomTempControllerSW_bsp//obj/HAL/src/crt0.o
0400025c l       .text	00000000 alt_after_alt_main
00000000 l    df *ABS*	00000000 alt_irq_handler.c
00000000 l    df *ABS*	00000000 alt_instruction_exception_entry.c
00000000 l    df *ABS*	00000000 HistoryMemory.c
00000000 l    df *ABS*	00000000 adc.c
00000000 l    df *ABS*	00000000 pwm.c
00000000 l    df *ABS*	00000000 uart.c
00000000 l    df *ABS*	00000000 hello_world.c
04013e5c l     O .bss	00000004 uart0
04013e60 l     O .bss	00000008 pwm0
04013e68 l     O .bss	00000008 pwm1
04013e70 l     O .bss	00000008 history0
040132a8 l     O .rwdata	00000004 sampling_period_ms
040132ac l     O .rwdata	00000004 avg_each_count
04013ec0 l     O .bss	0000000c th0
04013ecc l     O .bss	0000000c th1
04013ed8 l     O .bss	0000000c th2
04013e78 l     O .bss	00000004 history_address
04013e7c l     O .bss	00000004 retrieve_history_address
04013e80 l     O .bss	00000004 lost_acks
04013e84 l     O .bss	00000001 buffer_post.3
04013ee4 l     O .bss	00000400 buffer.2
04013e88 l     O .bss	00000004 i.1
04013e8c l     O .bss	00000004 is_stx.0
00000000 l    df *ABS*	00000000 lib2-divmod.c
00000000 l    df *ABS*	00000000 lib2-mul.c
00000000 l    df *ABS*	00000000 divsf3.c
00000000 l    df *ABS*	00000000 gesf2.c
00000000 l    df *ABS*	00000000 fixsfsi.c
00000000 l    df *ABS*	00000000 floatsisf.c
00000000 l    df *ABS*	00000000 floatunsisf.c
00000000 l    df *ABS*	00000000 libgcc2.c
00000000 l    df *ABS*	00000000 libgcc2.c
00000000 l    df *ABS*	00000000 sprintf.c
00000000 l    df *ABS*	00000000 vfprintf.c
04012264 l     O .rodata	00000010 blanks.1
04012254 l     O .rodata	00000010 zeroes.0
00000000 l    df *ABS*	00000000 dtoa.c
04004724 l     F .text	00000220 quorem
00000000 l    df *ABS*	00000000 impure.c
04012768 l     O .rwdata	00000424 impure_data
00000000 l    df *ABS*	00000000 localeconv.c
00000000 l    df *ABS*	00000000 mallocr.c
00000000 l    df *ABS*	00000000 memchr.c
00000000 l    df *ABS*	00000000 memcpy.c
00000000 l    df *ABS*	00000000 mprec.c
04012318 l     O .rodata	0000000c p05.0
00000000 l    df *ABS*	00000000 sbrkr.c
00000000 l    df *ABS*	00000000 strlen.c
00000000 l    df *ABS*	00000000 vfprintf.c
0401244c l     O .rodata	00000010 blanks.1
0401243c l     O .rodata	00000010 zeroes.0
00000000 l    df *ABS*	00000000 assert.c
00000000 l    df *ABS*	00000000 mallocr.c
00000000 l    df *ABS*	00000000 fiprintf.c
00000000 l    df *ABS*	00000000 mallocr.c
00000000 l    df *ABS*	00000000 int_errno.c
00000000 l    df *ABS*	00000000 locale.c
00000000 l    df *ABS*	00000000 mbtowc_r.c
00000000 l    df *ABS*	00000000 memmove.c
00000000 l    df *ABS*	00000000 memset.c
00000000 l    df *ABS*	00000000 mallocr.c
00000000 l    df *ABS*	00000000 strcmp.c
00000000 l    df *ABS*	00000000 vfiprintfr_1.c
00000000 l    df *ABS*	00000000 wctomb_r.c
00000000 l    df *ABS*	00000000 abort.c
00000000 l    df *ABS*	00000000 ctype_.c
00000000 l    df *ABS*	00000000 signal.c
00000000 l    df *ABS*	00000000 signalr.c
00000000 l    df *ABS*	00000000 vfprintf.c
0400a4d0 l     F .text	000000f4 __sprint_r.part.0
0400b93c l     F .text	000000c0 __sbprintf
04012740 l     O .rodata	00000010 blanks.1
04012730 l     O .rodata	00000010 zeroes.0
00000000 l    df *ABS*	00000000 wsetup.c
00000000 l    df *ABS*	00000000 fflush.c
00000000 l    df *ABS*	00000000 findfp.c
0400be6c l     F .text	00000008 __fp_lock
0400be80 l     F .text	00000008 __fp_unlock
0400be88 l     F .text	00000168 __sinit.part.0
00000000 l    df *ABS*	00000000 fputwc.c
00000000 l    df *ABS*	00000000 fvwrite.c
00000000 l    df *ABS*	00000000 fwalk.c
00000000 l    df *ABS*	00000000 makebuf.c
00000000 l    df *ABS*	00000000 stdio.c
00000000 l    df *ABS*	00000000 wbuf.c
00000000 l    df *ABS*	00000000 wcrtomb.c
00000000 l    df *ABS*	00000000 writer.c
00000000 l    df *ABS*	00000000 closer.c
00000000 l    df *ABS*	00000000 fclose.c
0400d0b8 l     F .text	000000c0 _fclose_r.part.0
00000000 l    df *ABS*	00000000 fstatr.c
00000000 l    df *ABS*	00000000 isattyr.c
00000000 l    df *ABS*	00000000 lseekr.c
00000000 l    df *ABS*	00000000 readr.c
00000000 l    df *ABS*	00000000 libgcc2.c
00000000 l    df *ABS*	00000000 libgcc2.c
00000000 l    df *ABS*	00000000 adddf3.c
00000000 l    df *ABS*	00000000 divdf3.c
00000000 l    df *ABS*	00000000 eqdf2.c
00000000 l    df *ABS*	00000000 gedf2.c
00000000 l    df *ABS*	00000000 ledf2.c
00000000 l    df *ABS*	00000000 muldf3.c
00000000 l    df *ABS*	00000000 subdf3.c
00000000 l    df *ABS*	00000000 unorddf2.c
00000000 l    df *ABS*	00000000 fixdfsi.c
00000000 l    df *ABS*	00000000 floatsidf.c
00000000 l    df *ABS*	00000000 floatunsidf.c
00000000 l    df *ABS*	00000000 alt_close.c
040106a8 l     F .text	0000003c alt_get_errno
00000000 l    df *ABS*	00000000 alt_dev.c
040107c0 l     F .text	0000002c alt_dev_null_write
00000000 l    df *ABS*	00000000 alt_errno.c
00000000 l    df *ABS*	00000000 alt_exit.c
00000000 l    df *ABS*	00000000 alt_fstat.c
04010824 l     F .text	0000003c alt_get_errno
00000000 l    df *ABS*	00000000 alt_getpid.c
00000000 l    df *ABS*	00000000 alt_iic.c
00000000 l    df *ABS*	00000000 alt_iic_isr_register.c
00000000 l    df *ABS*	00000000 alt_irq_vars.c
00000000 l    df *ABS*	00000000 alt_isatty.c
04010bd4 l     F .text	0000003c alt_get_errno
00000000 l    df *ABS*	00000000 alt_kill.c
04010cc0 l     F .text	0000003c alt_get_errno
00000000 l    df *ABS*	00000000 alt_load.c
04010e28 l     F .text	00000068 alt_load_section
00000000 l    df *ABS*	00000000 alt_lseek.c
04010f14 l     F .text	0000003c alt_get_errno
00000000 l    df *ABS*	00000000 alt_main.c
00000000 l    df *ABS*	00000000 alt_malloc_lock.c
00000000 l    df *ABS*	00000000 alt_read.c
040110f4 l     F .text	0000003c alt_get_errno
00000000 l    df *ABS*	00000000 alt_release_fd.c
00000000 l    df *ABS*	00000000 alt_sbrk.c
040132dc l     O .rwdata	00000004 heap_end
00000000 l    df *ABS*	00000000 alt_write.c
04011360 l     F .text	0000003c alt_get_errno
00000000 l    df *ABS*	00000000 alt_sys_init.c
00000000 l    df *ABS*	00000000 altera_avalon_timer_ts.c
00000000 l    df *ABS*	00000000 altera_avalon_timer_vars.c
00000000 l    df *ABS*	00000000 alt_dcache_flush_all.c
00000000 l    df *ABS*	00000000 alt_do_ctors.c
00000000 l    df *ABS*	00000000 alt_do_dtors.c
00000000 l    df *ABS*	00000000 alt_icache_flush_all.c
00000000 l    df *ABS*	00000000 alt_io_redirect.c
040117c8 l     F .text	000000d4 alt_open_fd
00000000 l    df *ABS*	00000000 alt_open.c
04011918 l     F .text	0000003c alt_get_errno
04011954 l     F .text	000000dc alt_file_locked
00000000 l    df *ABS*	00000000 altera_nios2_gen2_irq.c
00000000 l    df *ABS*	00000000 alt_find_dev.c
00000000 l    df *ABS*	00000000 alt_find_file.c
00000000 l    df *ABS*	00000000 alt_get_fd.c
00000000 l    df *ABS*	00000000 atexit.c
00000000 l    df *ABS*	00000000 exit.c
00000000 l    df *ABS*	00000000 memcmp.c
00000000 l    df *ABS*	00000000 __atexit.c
00000000 l    df *ABS*	00000000 __call_atexit.c
04013ebc g     O .bss	00000004 alt_instruction_exception_handler
04007b00 g     F .text	00000070 _mprec_log10
04000598 g     F .text	00000038 adc_stop
04007bec g     F .text	00000060 __any_on
0400d2b8 g     F .text	00000058 _isatty_r
04012324 g     O .rodata	00000028 __mprec_tinytens
04011030 g     F .text	0000007c alt_main
04001c08 g     F .text	00000068 history0_addr_get_update
0401430c g     O .bss	00000100 alt_irq
0400d310 g     F .text	00000064 _lseek_r
040132e0 g       *ABS*	00000000 __flash_rwdata_start
0400f1dc g     F .text	00000080 .hidden __eqdf2
04000604 g     F .text	00000068 adc_start_get
0401440c g       *ABS*	00000000 __alt_heap_start
0400a46c g     F .text	00000060 _kill_r
0400cf08 g     F .text	0000006c _wcrtomb_r
04009fdc g     F .text	00000098 _signal_r
0400cd44 g     F .text	0000005c __sseek
0400c1d0 g     F .text	00000010 __sinit
0400cda8 g     F .text	00000148 __swbuf_r
040095ac g     F .text	00000074 _setlocale_r
0400bff0 g     F .text	00000078 __sfmoreglue
040110d0 g     F .text	00000024 __malloc_unlock
040002d8 g     F .text	00000100 historymem_write
04001e4c g     F .text	000003f4 .hidden __divsf3
04013eb8 g     O .bss	00000004 altera_avalon_timer_ts_freq
040096f0 g     F .text	0000012c memmove
0400c1bc g     F .text	00000014 _cleanup
04006a5c g     F .text	000000a4 _Balloc
040022f8 g     F .text	00000070 .hidden __fixsfsi
0400f25c g     F .text	000000e8 .hidden __gtdf2
04011b90 g     F .text	00000024 altera_nios2_gen2_irq_init
04000000 g     F .entry	0000000c __reset
0400608c g     F .text	00000008 __localeconv_l
04000020 g       *ABS*	00000000 __flash_exceptions_start
0400d258 g     F .text	00000060 _fstat_r
04013e9c g     O .bss	00000004 errno
0400ccbc g     F .text	00000008 __seofread
04001b28 g     F .text	0000004c gabriuart_checksum
04007f00 g     F .text	00001100 ___svfiprintf_internal_r
04013eac g     O .bss	00000004 alt_argv
0401b2a8 g       *ABS*	00000000 _gp
040003d8 g     F .text	00000080 historymem_wr_check
0401091c g     F .text	00000020 getpid
04013e58 g     O .bss	00000004 cmd_e
04013128 g     O .rwdata	00000180 alt_fd_list
04011bb4 g     F .text	00000090 alt_find_dev
0400695c g     F .text	00000100 memcpy
040008ac g     F .text	0000004c uputc
0400be74 g     F .text	0000000c _cleanup_r
04010560 g     F .text	000000b8 .hidden __floatsidf
0401189c g     F .text	0000007c alt_io_redirect
0400f344 g     F .text	000000e8 .hidden __ltdf2
04012074 g       *ABS*	00000000 __DTOR_END__
04011730 g     F .text	00000098 alt_exception_cause_generated_bad_addr
04007a5c g     F .text	000000a4 __ratio
0400b920 g     F .text	0000001c __vfiprintf_internal
04001d64 g     F .text	00000064 .hidden __udivsi3
04010c10 g     F .text	000000b0 isatty
0400a074 g     F .text	000000c4 _raise_r
04009000 g     F .text	00000064 __assert_func
04012374 g     O .rodata	000000c8 __mprec_tens
04013e98 g     O .bss	00000004 __malloc_top_pad
040007f4 g     F .text	000000b8 uprintf
0400a4cc g     F .text	00000004 _getpid_r
04006094 g     F .text	0000000c _localeconv_r
0400c418 g     F .text	000004c8 __sfvwrite_r
04006ecc g     F .text	000000b0 __i2b
0400a138 g     F .text	000000bc __sigtramp_r
04007c4c g     F .text	00000058 _sbrk_r
0400d374 g     F .text	00000064 _read_r
040132d0 g     O .rwdata	00000004 alt_max_fd
0400d178 g     F .text	00000070 _fclose_r
0400bde8 g     F .text	00000084 fflush
04013e94 g     O .bss	00000004 __malloc_max_sbrked_mem
0400dfbc g     F .text	000008f0 .hidden __adddf3
040077f0 g     F .text	00000108 __b2d
0400d9f8 g     F .text	000005c4 .hidden __umoddi3
04010f50 g     F .text	000000e0 lseek
04000000 g       *ABS*	00000000 __alt_mem_sdram_controller_0
040132b0 g     O .rwdata	00000004 _global_impure_ptr
0400990c g     F .text	00000564 _realloc_r
0401440c g       *ABS*	00000000 __bss_end
040007b4 g     F .text	00000040 uart_begin
04010aec g     F .text	000000e8 alt_iic_isr_register
0400d3d8 g     F .text	00000620 .hidden __udivdi3
0400c37c g     F .text	00000024 _fputwc_r
0401234c g     O .rodata	00000028 __mprec_bigtens
04006c80 g     F .text	00000138 __s2b
04009f68 g     F .text	00000018 abort
04010618 g     F .text	00000090 .hidden __floatunsidf
04007510 g     F .text	00000058 __mcmp
04000a0c g     F .text	000000a4 ugetc
0400c1f0 g     F .text	00000014 __fp_lock_all
04010aa0 g     F .text	0000004c alt_ic_irq_enabled
04013ea4 g     O .bss	00000004 alt_irq_active
040000fc g     F .exceptions	000000c8 alt_irq_handler
04013100 g     O .rwdata	00000028 alt_dev_null
04000748 g     F .text	0000006c pwm_set_dutycycle
040008f8 g     F .text	00000114 ugets
04011628 g     F .text	00000020 alt_dcache_flush_all
04006db8 g     F .text	00000064 __hi0bits
040104e0 g     F .text	00000080 .hidden __fixdfsi
040132e0 g       *ABS*	00000000 __ram_rwdata_end
040132c8 g     O .rwdata	00000008 alt_dev_list
0401139c g     F .text	00000104 write
04011608 g     F .text	00000020 alt_timestamp_freq
04002240 g     F .text	000000b8 .hidden __gtsf2
04012768 g       *ABS*	00000000 __ram_rodata_end
0400066c g     F .text	00000070 pwm_init
04010860 g     F .text	000000bc fstat
04010cfc g     F .text	0000012c kill
0400f344 g     F .text	000000e8 .hidden __ledf2
04007240 g     F .text	00000148 __pow5mult
04000564 g     F .text	00000034 adc_start
0400a5dc g     F .text	00001344 ___vfiprintf_internal_r
04001dc8 g     F .text	0000005c .hidden __umodsi3
0401440c g       *ABS*	00000000 end
040001c4 g     F .exceptions	00000060 alt_instruction_exception_entry
04000458 g     F .text	000000a0 historymem_read
04012074 g       *ABS*	00000000 __CTOR_LIST__
04800000 g       *ABS*	00000000 __alt_stack_pointer
04002588 g     F .text	00000054 .hidden __clzsi2
0400c1e0 g     F .text	00000004 __sfp_lock_acquire
0400688c g     F .text	000000d0 memchr
040025dc g     F .text	00000054 _sprintf_r
040092b0 g     F .text	000002fc _free_r
040125b0 g     O .rodata	00000180 _ctype_b
04009620 g     F .text	0000000c __locale_mb_cur_max
04011f54 g     F .text	00000120 __call_exitprocs
040132b8 g     O .rwdata	00000004 __malloc_sbrk_base
04000224 g     F .text	0000003c _start
04007388 g     F .text	00000188 __lshift
0400a2b0 g     F .text	000000a0 signal
04011130 g     F .text	00000108 read
040114dc g     F .text	00000034 alt_sys_init
04002368 g     F .text	00000124 .hidden __floatsisf
04007d3c g     F .text	000001c4 __ssprint_r
04011ec4 g     F .text	00000090 __register_exitproc
040006dc g     F .text	0000006c pwm_set_prescaler
04006f7c g     F .text	000002c4 __multiply
04001e24 g     F .text	00000028 .hidden __mulsi3
04012768 g       *ABS*	00000000 __ram_rwdata_start
04012074 g       *ABS*	00000000 __ram_rodata_start
040142e4 g     O .bss	00000028 __malloc_current_mallinfo
040078f8 g     F .text	00000164 __d2b
04011d4c g     F .text	000000b8 alt_get_fd
0400d060 g     F .text	00000058 _close_r
04011e4c g     F .text	00000078 memcmp
0401440c g       *ABS*	00000000 __alt_stack_base
0400b9fc g     F .text	00000164 __swsetup_r
0400e8ac g     F .text	00000930 .hidden __divdf3
0400c068 g     F .text	00000154 __sfp
04000ab0 g     F .text	0000004c uart_register_irq
04007b70 g     F .text	0000007c __copybits
04012b8c g     O .rwdata	00000408 __malloc_av_
0400c1ec g     F .text	00000004 __sinit_lock_release
0400f42c g     F .text	000007ac .hidden __muldf3
0400cc68 g     F .text	00000054 __sread
04011c44 g     F .text	00000108 alt_find_file
040110ac g     F .text	00000024 __malloc_lock
040112a8 g     F .text	000000b8 sbrk
04002694 g     F .text	00002090 ___svfprintf_internal_r
0400bd88 g     F .text	00000060 _fflush_r
04009078 g     F .text	000000c4 _calloc_r
04013e58 g       *ABS*	00000000 __bss_start
0400981c g     F .text	000000f0 memset
04000afc g     F .text	0000051c main
04013eb0 g     O .bss	00000004 alt_envp
04013e90 g     O .bss	00000004 __malloc_max_total_mem
0400cef0 g     F .text	00000018 __swbuf
0400cda0 g     F .text	00000008 __sclose
04800000 g       *ABS*	00000000 __alt_heap_limit
0400d1e8 g     F .text	00000070 fclose
04011510 g     F .text	00000078 alt_timestamp_start
04004944 g     F .text	00001748 _dtoa_r
040060ac g     F .text	000007e0 _malloc_r
04009f38 g     F .text	00000030 __ascii_wctomb
040132d4 g     O .rwdata	00000004 alt_errno
0400913c g     F .text	00000020 _fiprintf_r
0400a350 g     F .text	00000060 _init_signal
0400c8e0 g     F .text	00000098 _fwalk
040096a0 g     F .text	0000000c _mbtowc_r
04000260 g     F .text	00000078 historymem_init
04001c70 g     F .text	00000080 .hidden __divsi3
04009194 g     F .text	0000011c _malloc_trim_r
04012074 g       *ABS*	00000000 __CTOR_END__
04009e70 g     F .text	000000b8 strcmp
04012074 g       *ABS*	00000000 __flash_rodata_start
04012074 g       *ABS*	00000000 __DTOR_LIST__
0400f1dc g     F .text	00000080 .hidden __nedf2
040114a0 g     F .text	0000003c alt_irq_init
04011238 g     F .text	00000070 alt_release_fd
04002630 g     F .text	00000064 sprintf
04012110 g     O .rodata	00000100 .hidden __clz_tab
04013ea0 g     O .bss	00000004 _PathLocale
04011e04 g     F .text	00000014 atexit
04002240 g     F .text	000000b8 .hidden __gesf2
0400cffc g     F .text	00000064 _write_r
0400962c g     F .text	00000074 setlocale
040132b4 g     O .rwdata	00000004 _impure_ptr
04013ea8 g     O .bss	00000004 alt_argc
040004f8 g     F .text	0000006c adc_init
0400bb60 g     F .text	00000228 __sflush_r
04013eb4 g     O .bss	00000004 altera_avalon_timer_ts_base
040116ac g     F .text	00000064 _do_dtors
04000020 g       .exceptions	00000000 alt_irq_entry
040096ac g     F .text	00000044 __ascii_mbtowc
04007794 g     F .text	0000005c __ulp
0400c204 g     F .text	00000014 __fp_unlock_all
040132c0 g     O .rwdata	00000008 alt_fs_list
04000020 g       *ABS*	00000000 __ram_exceptions_start
040060a0 g     F .text	0000000c localeconv
04011588 g     F .text	00000080 alt_timestamp
0400cbd0 g     F .text	00000098 __swhatbuf_r
0401093c g     F .text	00000050 alt_ic_isr_register
040132e0 g       *ABS*	00000000 _edata
0401440c g       *ABS*	00000000 _end
0400c218 g     F .text	00000164 __fputwc
04000224 g       *ABS*	00000000 __ram_exceptions_end
040019e8 g     F .text	00000140 gabriuart_send
04010a14 g     F .text	0000008c alt_ic_irq_disable
0400ccc4 g     F .text	00000080 __swrite
040132bc g     O .rwdata	00000004 __malloc_trim_threshold
04011e18 g     F .text	00000034 exit
0400915c g     F .text	00000038 fiprintf
04009f28 g     F .text	00000004 _vfiprintf_r
0400c978 g     F .text	000000a8 _fwalk_reent
0400248c g     F .text	000000fc .hidden __floatunsisf
04007568 g     F .text	0000022c __mdiff
04001cf0 g     F .text	00000074 .hidden __modsi3
04800000 g       *ABS*	00000000 __alt_data_end
04000020 g     F .exceptions	00000000 alt_exception
0400c1e4 g     F .text	00000004 __sfp_lock_release
040005d0 g     F .text	00000034 adc_get_last
04001018 g     F .text	000009d0 _ISR_uart0
040124ac g     O .rodata	00000101 _ctype_
0401048c g     F .text	00000054 .hidden __unorddf2
040107ec g     F .text	00000038 _exit
0400ca20 g     F .text	000001b0 __smakebuf_r
04007ca4 g     F .text	00000098 strlen
04009f80 g     F .text	0000005c _init_signal_r
04011a30 g     F .text	00000160 open
0400f25c g     F .text	000000e8 .hidden __gedf2
04001b74 g     F .text	00000094 gabriuart_cmd2_u32
04009064 g     F .text	00000014 __assert
0400a5c4 g     F .text	00000018 __sprint_r
04011710 g     F .text	00000020 alt_icache_flush_all
040132d8 g     O .rwdata	00000004 alt_priority_mask
0401098c g     F .text	00000088 alt_ic_irq_enable
04009f2c g     F .text	0000000c _wctomb_r
0400fbd8 g     F .text	000008b4 .hidden __subdf3
04006e1c g     F .text	000000b0 __lo0bits
04011648 g     F .text	00000064 _do_ctors
0400a3b0 g     F .text	000000bc __sigtramp
0400cf74 g     F .text	00000088 wcrtomb
040106e4 g     F .text	000000dc close
04012f94 g     O .rwdata	0000016c __global_locale
04010e90 g     F .text	00000084 alt_load
0400c3a0 g     F .text	00000078 fputwc
0400a1f4 g     F .text	000000bc raise
0400c1e8 g     F .text	00000004 __sinit_lock_acquire
04006b24 g     F .text	0000015c __multadd
04006b00 g     F .text	00000024 _Bfree



Disassembly of section .entry:

04000000 <__reset>:
 * Jump to the _start entry point in the .text section if reset code
 * is allowed or if optimizing for RTL simulation.
 */
#if defined(ALT_ALLOW_CODE_AT_RESET) || defined(ALT_SIM_OPTIMIZE)
    /* Jump to the _start entry point in the .text section. */
    movhi r1, %hi(_start)
 4000000:	00410034 	movhi	at,1024
    ori r1, r1, %lo(_start)
 4000004:	08408914 	ori	at,at,548
    jmp r1
 4000008:	0800683a 	jmp	at
	...

Disassembly of section .exceptions:

04000020 <alt_exception>:

#else /* ALT_EXCEPTION_STACK disabled */
        /* 
         * Reserve space on normal stack for registers about to be pushed.
         */
        addi  sp, sp, -76
 4000020:	deffed04 	addi	sp,sp,-76
         * documentation for details).
         *
         * Leave a gap in the stack frame at 4(sp) for the muldiv handler to
         * store zero into.
         */
        stw   ra,  0(sp)
 4000024:	dfc00015 	stw	ra,0(sp)
        stw   r1,   8(sp)
 4000028:	d8400215 	stw	at,8(sp)
        stw   r2,  12(sp)
 400002c:	d8800315 	stw	r2,12(sp)
        stw   r3,  16(sp)
 4000030:	d8c00415 	stw	r3,16(sp)
        stw   r4,  20(sp)
 4000034:	d9000515 	stw	r4,20(sp)
        stw   r5,  24(sp)
 4000038:	d9400615 	stw	r5,24(sp)
        stw   r6,  28(sp)
 400003c:	d9800715 	stw	r6,28(sp)
        stw   r7,  32(sp)
 4000040:	d9c00815 	stw	r7,32(sp)
        rdctl r5, estatus   /* Read early to avoid usage stall */
 4000044:	000b307a 	rdctl	r5,estatus
        stw   r8,  36(sp)
 4000048:	da000915 	stw	r8,36(sp)
        stw   r9,  40(sp)
 400004c:	da400a15 	stw	r9,40(sp)
        stw   r10, 44(sp)
 4000050:	da800b15 	stw	r10,44(sp)
        stw   r11, 48(sp)
 4000054:	dac00c15 	stw	r11,48(sp)
        stw   r12, 52(sp)
 4000058:	db000d15 	stw	r12,52(sp)
        stw   r13, 56(sp)
 400005c:	db400e15 	stw	r13,56(sp)
        stw   r14, 60(sp)
 4000060:	db800f15 	stw	r14,60(sp)
        stw   r15, 64(sp)
 4000064:	dbc01015 	stw	r15,64(sp)
        /*
         * ea-4 contains the address of the instruction being executed
         * when the exception occured. For interrupt exceptions, we will
         * will be re-issue the isntruction. Store it in 72(sp)
         */
        stw   r5,  68(sp)  /* estatus */
 4000068:	d9401115 	stw	r5,68(sp)
        addi  r15, ea, -4  /* instruction that caused exception */
 400006c:	ebffff04 	addi	r15,ea,-4
        stw   r15,  72(sp)
 4000070:	dbc01215 	stw	r15,72(sp)
#else
        /*
         * Test to see if the exception was a software exception or caused 
         * by an external interrupt, and vector accordingly.
         */
        rdctl r4, ipending
 4000074:	0009313a 	rdctl	r4,ipending
        andi  r2, r5, 1
 4000078:	2880004c 	andi	r2,r5,1
        beq   r2, zero, .Lnot_irq
 400007c:	10000326 	beq	r2,zero,400008c <alt_exception+0x6c>
        beq   r4, zero, .Lnot_irq
 4000080:	20000226 	beq	r4,zero,400008c <alt_exception+0x6c>
        /*
         * Now that all necessary registers have been preserved, call 
         * alt_irq_handler() to process the interrupts.
         */

        call alt_irq_handler
 4000084:	40000fc0 	call	40000fc <alt_irq_handler>

        .section .exceptions.irqreturn, "xa"

        br    .Lexception_exit
 4000088:	00000706 	br	40000a8 <alt_exception+0x88>
         * upon completion, so we write ea (address of instruction *after*
         * the one where the exception occured) into 72(sp). The actual
         * instruction that caused the exception is written in r2, which these
         * handlers will utilize.
         */
        stw ea, 72(sp) /* EA is PC+4 so will skip over instruction causing exception */
 400008c:	df401215 	stw	ea,72(sp)
.Lunknown_16bit:
        addi.n r4, r4, 2 /* Need PC+2 to skip over instruction causing exception */
        stw r4, 72(sp)

#else /* CDX is not Enabled and all instructions are 32bits */
        ldw r2, -4(ea) /* Instruction value that caused exception */
 4000090:	e8bfff17 	ldw	r2,-4(ea)
         * debugger is present) or go into an infinite loop since the
         * handling behavior is undefined; in that case we will not return here.
         */

        /* Load exception-causing address as first argument (r4) */
        addi   r4, ea, -4
 4000094:	e93fff04 	addi	r4,ea,-4

        /* Call the instruction-exception entry */
        call   alt_instruction_exception_entry
 4000098:	40001c40 	call	40001c4 <alt_instruction_exception_entry>
         * instruction
         *
         * Return code was 0: Skip. The instruction after the exception is
         * already stored in 72(sp).
         */
        bne   r2, r0, .Lexception_exit
 400009c:	1000021e 	bne	r2,zero,40000a8 <alt_exception+0x88>

        /*
         * Otherwise, modify 72(sp) to re-issue the instruction that caused the
         * exception.
         */
        addi  r15, ea, -4  /* instruction that caused exception */
 40000a0:	ebffff04 	addi	r15,ea,-4
        stw   r15,  72(sp)
 40000a4:	dbc01215 	stw	r15,72(sp)
        /* 
         * Restore the saved registers, so that all general purpose registers 
         * have been restored to their state at the time the interrupt occured.
         */

        ldw   r5,  68(sp)
 40000a8:	d9401117 	ldw	r5,68(sp)
        ldw   ea,  72(sp)  /* This becomes the PC once eret is executed */
 40000ac:	df401217 	ldw	ea,72(sp)
        ldw   ra,   0(sp)
 40000b0:	dfc00017 	ldw	ra,0(sp)

        wrctl estatus, r5
 40000b4:	2801707a 	wrctl	estatus,r5

        ldw   r1,   8(sp)
 40000b8:	d8400217 	ldw	at,8(sp)
        ldw   r2,  12(sp)
 40000bc:	d8800317 	ldw	r2,12(sp)
        ldw   r3,  16(sp)
 40000c0:	d8c00417 	ldw	r3,16(sp)
        ldw   r4,  20(sp)
 40000c4:	d9000517 	ldw	r4,20(sp)
        ldw   r5,  24(sp)
 40000c8:	d9400617 	ldw	r5,24(sp)
        ldw   r6,  28(sp)
 40000cc:	d9800717 	ldw	r6,28(sp)
        ldw   r7,  32(sp)
 40000d0:	d9c00817 	ldw	r7,32(sp)

#if defined(ALT_EXCEPTION_STACK) && defined(ALT_STACK_CHECK)
        ldw   et, %gprel(alt_exception_old_stack_limit)(gp)
#endif

        ldw   r8,  36(sp)
 40000d4:	da000917 	ldw	r8,36(sp)
        ldw   r9,  40(sp)
 40000d8:	da400a17 	ldw	r9,40(sp)
        ldw   r10, 44(sp)
 40000dc:	da800b17 	ldw	r10,44(sp)
        ldw   r11, 48(sp)
 40000e0:	dac00c17 	ldw	r11,48(sp)
        ldw   r12, 52(sp)
 40000e4:	db000d17 	ldw	r12,52(sp)
        ldw   r13, 56(sp)
 40000e8:	db400e17 	ldw	r13,56(sp)
        ldw   r14, 60(sp)
 40000ec:	db800f17 	ldw	r14,60(sp)
        ldw   r15, 64(sp)
 40000f0:	dbc01017 	ldw	r15,64(sp)
        stw   et, %gprel(alt_stack_limit_value)(gp)
        stw   zero, %gprel(alt_exception_old_stack_limit)(gp)
#endif /* ALT_STACK_CHECK */
        ldw   sp,  76(sp)
#else /* ALT_EXCEPTION_STACK disabled */
        addi  sp, sp, 76
 40000f4:	dec01304 	addi	sp,sp,76

        /*
         * Return to the interrupted instruction.
         */

        eret
 40000f8:	ef80083a 	eret

040000fc <alt_irq_handler>:
 * instruction is present if the macro ALT_CI_INTERRUPT_VECTOR defined.
 */

void alt_irq_handler (void) __attribute__ ((section (".exceptions")));
void alt_irq_handler (void)
{
 40000fc:	defff904 	addi	sp,sp,-28
 4000100:	dfc00615 	stw	ra,24(sp)
 4000104:	df000515 	stw	fp,20(sp)
 4000108:	df000504 	addi	fp,sp,20
  
  /*
   * Notify the operating system that we are at interrupt level.
   */ 
  
  ALT_OS_INT_ENTER();
 400010c:	0001883a 	nop
#ifndef NIOS2_EIC_PRESENT
static ALT_INLINE alt_u32 ALT_ALWAYS_INLINE alt_irq_pending (void)
{
  alt_u32 active;

  NIOS2_READ_IPENDING (active);
 4000110:	0005313a 	rdctl	r2,ipending
 4000114:	e0bffc15 	stw	r2,-16(fp)

  return active;
 4000118:	e0bffc17 	ldw	r2,-16(fp)
   * Consider the case where the high priority interupt is asserted during
   * the interrupt entry sequence for a lower priority interrupt to see why
   * this is the case.
   */

  active = alt_irq_pending ();
 400011c:	e0bfff15 	stw	r2,-4(fp)

  do
  {
    i = 0;
 4000120:	e03ffd15 	stw	zero,-12(fp)
    mask = 1;
 4000124:	00800044 	movi	r2,1
 4000128:	e0bffe15 	stw	r2,-8(fp)
     * called to clear the interrupt condition.
     */

    do
    {
      if (active & mask)
 400012c:	e0ffff17 	ldw	r3,-4(fp)
 4000130:	e0bffe17 	ldw	r2,-8(fp)
 4000134:	1884703a 	and	r2,r3,r2
 4000138:	10001126 	beq	r2,zero,4000180 <alt_irq_handler+0x84>
      { 
#ifdef ALT_ENHANCED_INTERRUPT_API_PRESENT
        alt_irq[i].handler(alt_irq[i].context); 
 400013c:	e0bffd17 	ldw	r2,-12(fp)
 4000140:	100690fa 	slli	r3,r2,3
 4000144:	00810074 	movhi	r2,1025
 4000148:	1885883a 	add	r2,r3,r2
 400014c:	10d0c317 	ldw	r3,17164(r2)
 4000150:	e0bffd17 	ldw	r2,-12(fp)
 4000154:	100890fa 	slli	r4,r2,3
 4000158:	00810074 	movhi	r2,1025
 400015c:	2085883a 	add	r2,r4,r2
 4000160:	1090c417 	ldw	r2,17168(r2)
 4000164:	1009883a 	mov	r4,r2
 4000168:	183ee83a 	callr	r3
#else
        alt_irq[i].handler(alt_irq[i].context, i); 
#endif
        break;
 400016c:	0001883a 	nop
  NIOS2_READ_IPENDING (active);
 4000170:	0005313a 	rdctl	r2,ipending
 4000174:	e0bffb15 	stw	r2,-20(fp)
  return active;
 4000178:	e0bffb17 	ldw	r2,-20(fp)
 400017c:	00000706 	br	400019c <alt_irq_handler+0xa0>
      }
      mask <<= 1;
 4000180:	e0bffe17 	ldw	r2,-8(fp)
 4000184:	1085883a 	add	r2,r2,r2
 4000188:	e0bffe15 	stw	r2,-8(fp)
      i++;
 400018c:	e0bffd17 	ldw	r2,-12(fp)
 4000190:	10800044 	addi	r2,r2,1
 4000194:	e0bffd15 	stw	r2,-12(fp)
      if (active & mask)
 4000198:	003fe406 	br	400012c <alt_irq_handler+0x30>

    } while (1);

    active = alt_irq_pending ();
 400019c:	e0bfff15 	stw	r2,-4(fp)
    
  } while (active);
 40001a0:	e0bfff17 	ldw	r2,-4(fp)
 40001a4:	103fde1e 	bne	r2,zero,4000120 <alt_irq_handler+0x24>

  /*
   * Notify the operating system that interrupt processing is complete.
   */ 

  ALT_OS_INT_EXIT();
 40001a8:	0001883a 	nop
}
 40001ac:	0001883a 	nop
 40001b0:	e037883a 	mov	sp,fp
 40001b4:	dfc00117 	ldw	ra,4(sp)
 40001b8:	df000017 	ldw	fp,0(sp)
 40001bc:	dec00204 	addi	sp,sp,8
 40001c0:	f800283a 	ret

040001c4 <alt_instruction_exception_entry>:
 * that handler if it has been registered. Absent a handler, it will
 * break break or hang as discussed below.
 */
int 
alt_instruction_exception_entry (alt_u32 exception_pc)
{
 40001c4:	defffb04 	addi	sp,sp,-20
 40001c8:	dfc00415 	stw	ra,16(sp)
 40001cc:	df000315 	stw	fp,12(sp)
 40001d0:	df000304 	addi	fp,sp,12
 40001d4:	e13ffd15 	stw	r4,-12(fp)
  cause = ( (cause & NIOS2_EXCEPTION_REG_CAUSE_MASK) >>
              NIOS2_EXCEPTION_REG_CAUSE_OFST );

  NIOS2_READ_BADADDR(badaddr);
#else
  cause = NIOS2_EXCEPTION_CAUSE_NOT_PRESENT;
 40001d8:	00bfffc4 	movi	r2,-1
 40001dc:	e0bfff15 	stw	r2,-4(fp)
  badaddr = 0;
 40001e0:	e03ffe15 	stw	zero,-8(fp)
#endif /* NIOS2_HAS_EXTRA_EXCEPTION_INFO */

  if(alt_instruction_exception_handler) {
 40001e4:	d0a30517 	ldw	r2,-29676(gp)
 40001e8:	10000726 	beq	r2,zero,4000208 <alt_instruction_exception_entry+0x44>
     * Call handler. Its return value indicates whether the exception-causing
     * instruction should be re-issued. The code that called us,
     * alt_eceptions_entry.S, will look at this value and adjust the ea
     * register as necessary
     */
    return alt_instruction_exception_handler(cause, exception_pc, badaddr);
 40001ec:	d0a30517 	ldw	r2,-29676(gp)
 40001f0:	e0ffff17 	ldw	r3,-4(fp)
 40001f4:	e1bffe17 	ldw	r6,-8(fp)
 40001f8:	e17ffd17 	ldw	r5,-12(fp)
 40001fc:	1809883a 	mov	r4,r3
 4000200:	103ee83a 	callr	r2
 4000204:	00000206 	br	4000210 <alt_instruction_exception_entry+0x4c>
   *    (a peripheral which negates its interrupt output before its
   *    interrupt handler has been executed will cause spurious interrupts)
   */
  else {
#ifdef NIOS2_HAS_DEBUG_STUB
    NIOS2_BREAK();
 4000208:	003da03a 	break	0
      ;
#endif /* NIOS2_HAS_DEBUG_STUB */
  }

  /* We should not get here. Remove compiler warning. */
  return NIOS2_EXCEPTION_RETURN_REISSUE_INST;
 400020c:	0005883a 	mov	r2,zero
}
 4000210:	e037883a 	mov	sp,fp
 4000214:	dfc00117 	ldw	ra,4(sp)
 4000218:	df000017 	ldw	fp,0(sp)
 400021c:	dec00204 	addi	sp,sp,8
 4000220:	f800283a 	ret

Disassembly of section .text:

04000224 <_start>:

    /*
     * Now that the caches are initialized, set up the stack pointer and global pointer.
     * The values provided by the linker are assumed to be correctly aligned.
     */
    movhi sp, %hi(__alt_stack_pointer)
 4000224:	06c12034 	movhi	sp,1152
    ori sp, sp, %lo(__alt_stack_pointer)
 4000228:	dec00014 	ori	sp,sp,0
    movhi gp, %hi(_gp)
 400022c:	06810074 	movhi	gp,1025
    ori gp, gp, %lo(_gp)
 4000230:	d6acaa14 	ori	gp,gp,45736
 */
#ifndef ALT_SIM_OPTIMIZE
    /* Log that the BSS is about to be cleared. */
    ALT_LOG_PUTS(alt_log_msg_bss)

    movhi r2, %hi(__bss_start)
 4000234:	00810074 	movhi	r2,1025
    ori r2, r2, %lo(__bss_start)
 4000238:	108f9614 	ori	r2,r2,15960

    movhi r3, %hi(__bss_end)
 400023c:	00c10074 	movhi	r3,1025
    ori r3, r3, %lo(__bss_end)
 4000240:	18d10314 	ori	r3,r3,17420

    beq r2, r3, 1f
 4000244:	10c00326 	beq	r2,r3,4000254 <_start+0x30>

0:
    stw zero, (r2)
 4000248:	10000015 	stw	zero,0(r2)
    addi r2, r2, 4
 400024c:	10800104 	addi	r2,r2,4
    bltu r2, r3, 0b
 4000250:	10fffd36 	bltu	r2,r3,4000248 <_start+0x24>
     * section aren't defined until alt_load() has been called).
     */
    mov   et, zero
#endif

    call alt_load
 4000254:	4010e900 	call	4010e90 <alt_load>

    /* Log that alt_main is about to be called. */
    ALT_LOG_PUTS(alt_log_msg_alt_main)

    /* Call the C entry point. It should never return. */
    call alt_main
 4000258:	40110300 	call	4011030 <alt_main>

0400025c <alt_after_alt_main>:

    /* Wait in infinite loop in case alt_main does return. */
alt_after_alt_main:
    br alt_after_alt_main
 400025c:	003fff06 	br	400025c <alt_after_alt_main>

04000260 <historymem_init>:
#include "HistoryMemory.h"
#include "sys/alt_timestamp.h"

historymem_t historymem_init(int *gpio_wrport_addr, int *gpio_rdport_addr) {
 4000260:	defffb04 	addi	sp,sp,-20
 4000264:	df000415 	stw	fp,16(sp)
 4000268:	df000404 	addi	fp,sp,16
 400026c:	e13ffd15 	stw	r4,-12(fp)
 4000270:	e17ffc15 	stw	r5,-16(fp)
	historymem_t mem;

	mem.write_port = gpio_wrport_addr;
 4000274:	e0bffd17 	ldw	r2,-12(fp)
 4000278:	e0bffe15 	stw	r2,-8(fp)
	mem.read_port = gpio_rdport_addr;
 400027c:	e0bffc17 	ldw	r2,-16(fp)
 4000280:	e0bfff15 	stw	r2,-4(fp)

	mem.read_port->gpio_direction.fields.rdaddr = 0x7ff;
 4000284:	e0ffff17 	ldw	r3,-4(fp)
 4000288:	19000117 	ldw	r4,4(r3)
 400028c:	00800434 	movhi	r2,16
 4000290:	10bf8004 	addi	r2,r2,-512
 4000294:	2084b03a 	or	r2,r4,r2
 4000298:	18800115 	stw	r2,4(r3)
	mem.read_port->gpio_direction.fields.rddata = 0x000;
 400029c:	e0bfff17 	ldw	r2,-4(fp)
 40002a0:	11000117 	ldw	r4,4(r2)
 40002a4:	00ff8044 	movi	r3,-511
 40002a8:	20c6703a 	and	r3,r4,r3
 40002ac:	10c00115 	stw	r3,4(r2)

	return mem;
 40002b0:	e0bffe17 	ldw	r2,-8(fp)
 40002b4:	e0ffff17 	ldw	r3,-4(fp)
 40002b8:	1009883a 	mov	r4,r2
 40002bc:	180b883a 	mov	r5,r3
}
 40002c0:	2005883a 	mov	r2,r4
 40002c4:	2807883a 	mov	r3,r5
 40002c8:	e037883a 	mov	sp,fp
 40002cc:	df000017 	ldw	fp,0(sp)
 40002d0:	dec00104 	addi	sp,sp,4
 40002d4:	f800283a 	ret

040002d8 <historymem_write>:

void historymem_write(historymem_t history, alt_u16 address, alt_u8 data) {
 40002d8:	defff904 	addi	sp,sp,-28
 40002dc:	dfc00615 	stw	ra,24(sp)
 40002e0:	df000515 	stw	fp,20(sp)
 40002e4:	df000504 	addi	fp,sp,20
 40002e8:	e13ffd15 	stw	r4,-12(fp)
 40002ec:	e17ffe15 	stw	r5,-8(fp)
 40002f0:	3005883a 	mov	r2,r6
 40002f4:	3807883a 	mov	r3,r7
 40002f8:	e0bffc0d 	sth	r2,-16(fp)
 40002fc:	1805883a 	mov	r2,r3
 4000300:	e0bffb05 	stb	r2,-20(fp)
	int start;

	history.write_port->control.fields.wraddr = address;
 4000304:	e0fffd17 	ldw	r3,-12(fp)
 4000308:	e0bffc0b 	ldhu	r2,-16(fp)
 400030c:	1081ffcc 	andi	r2,r2,2047
 4000310:	10bfffcc 	andi	r2,r2,65535
 4000314:	1081ffcc 	andi	r2,r2,2047
 4000318:	1008927a 	slli	r4,r2,9
 400031c:	19400017 	ldw	r5,0(r3)
 4000320:	00bffc34 	movhi	r2,65520
 4000324:	10807fc4 	addi	r2,r2,511
 4000328:	2884703a 	and	r2,r5,r2
 400032c:	1104b03a 	or	r2,r2,r4
 4000330:	18800015 	stw	r2,0(r3)
	history.write_port->control.fields.wrdata = data;
 4000334:	e0bffd17 	ldw	r2,-12(fp)
 4000338:	e0fffb03 	ldbu	r3,-20(fp)
 400033c:	18c7883a 	add	r3,r3,r3
 4000340:	11400017 	ldw	r5,0(r2)
 4000344:	013f8044 	movi	r4,-511
 4000348:	2908703a 	and	r4,r5,r4
 400034c:	20c6b03a 	or	r3,r4,r3
 4000350:	10c00015 	stw	r3,0(r2)

	start = alt_timestamp_start();
 4000354:	40115100 	call	4011510 <alt_timestamp_start>
 4000358:	e0bfff15 	stw	r2,-4(fp)
	while(alt_timestamp() - start < TIMER50MHZ_EQUIVALENT);		// Waiting for a memory's clock period
 400035c:	0001883a 	nop
 4000360:	40115880 	call	4011588 <alt_timestamp>
 4000364:	1007883a 	mov	r3,r2
 4000368:	e0bfff17 	ldw	r2,-4(fp)
 400036c:	1885c83a 	sub	r2,r3,r2
 4000370:	10800670 	cmpltui	r2,r2,25
 4000374:	103ffa1e 	bne	r2,zero,4000360 <historymem_write+0x88>

	history.write_port->control.fields.wren = 1;
 4000378:	e0bffd17 	ldw	r2,-12(fp)
 400037c:	10c00017 	ldw	r3,0(r2)
 4000380:	18c00054 	ori	r3,r3,1
 4000384:	10c00015 	stw	r3,0(r2)
	start = alt_timestamp_start();
 4000388:	40115100 	call	4011510 <alt_timestamp_start>
 400038c:	e0bfff15 	stw	r2,-4(fp)
	while(alt_timestamp() - start < TIMER50MHZ_EQUIVALENT);		// Waiting for a memory's clock period
 4000390:	0001883a 	nop
 4000394:	40115880 	call	4011588 <alt_timestamp>
 4000398:	1007883a 	mov	r3,r2
 400039c:	e0bfff17 	ldw	r2,-4(fp)
 40003a0:	1885c83a 	sub	r2,r3,r2
 40003a4:	10800670 	cmpltui	r2,r2,25
 40003a8:	103ffa1e 	bne	r2,zero,4000394 <historymem_write+0xbc>

	history.write_port->control.fields.wren = 0;
 40003ac:	e0bffd17 	ldw	r2,-12(fp)
 40003b0:	11000017 	ldw	r4,0(r2)
 40003b4:	00ffff84 	movi	r3,-2
 40003b8:	20c6703a 	and	r3,r4,r3
 40003bc:	10c00015 	stw	r3,0(r2)
}
 40003c0:	0001883a 	nop
 40003c4:	e037883a 	mov	sp,fp
 40003c8:	dfc00117 	ldw	ra,4(sp)
 40003cc:	df000017 	ldw	fp,0(sp)
 40003d0:	dec00204 	addi	sp,sp,8
 40003d4:	f800283a 	ret

040003d8 <historymem_wr_check>:

alt_u8 historymem_wr_check(historymem_t history, alt_u16 address, alt_u8 data) {
 40003d8:	defffa04 	addi	sp,sp,-24
 40003dc:	dfc00515 	stw	ra,20(sp)
 40003e0:	df000415 	stw	fp,16(sp)
 40003e4:	df000404 	addi	fp,sp,16
 40003e8:	e13ffe15 	stw	r4,-8(fp)
 40003ec:	e17fff15 	stw	r5,-4(fp)
 40003f0:	3005883a 	mov	r2,r6
 40003f4:	3807883a 	mov	r3,r7
 40003f8:	e0bffd0d 	sth	r2,-12(fp)
 40003fc:	1805883a 	mov	r2,r3
 4000400:	e0bffc05 	stb	r2,-16(fp)
	historymem_write(history, address, data);
 4000404:	e0bffd0b 	ldhu	r2,-12(fp)
 4000408:	e0fffc03 	ldbu	r3,-16(fp)
 400040c:	180f883a 	mov	r7,r3
 4000410:	100d883a 	mov	r6,r2
 4000414:	e13ffe17 	ldw	r4,-8(fp)
 4000418:	e17fff17 	ldw	r5,-4(fp)
 400041c:	40002d80 	call	40002d8 <historymem_write>
	return (address == historymem_read(history, address));
 4000420:	e0bffd0b 	ldhu	r2,-12(fp)
 4000424:	100d883a 	mov	r6,r2
 4000428:	e13ffe17 	ldw	r4,-8(fp)
 400042c:	e17fff17 	ldw	r5,-4(fp)
 4000430:	40004580 	call	4000458 <historymem_read>
 4000434:	10803fcc 	andi	r2,r2,255
 4000438:	e0fffd0b 	ldhu	r3,-12(fp)
 400043c:	10bfffcc 	andi	r2,r2,65535
 4000440:	1885003a 	cmpeq	r2,r3,r2
}
 4000444:	e037883a 	mov	sp,fp
 4000448:	dfc00117 	ldw	ra,4(sp)
 400044c:	df000017 	ldw	fp,0(sp)
 4000450:	dec00204 	addi	sp,sp,8
 4000454:	f800283a 	ret

04000458 <historymem_read>:

alt_u8 historymem_read(historymem_t history, alt_u16 address) {
 4000458:	defffa04 	addi	sp,sp,-24
 400045c:	dfc00515 	stw	ra,20(sp)
 4000460:	df000415 	stw	fp,16(sp)
 4000464:	df000404 	addi	fp,sp,16
 4000468:	e13ffd15 	stw	r4,-12(fp)
 400046c:	e17ffe15 	stw	r5,-8(fp)
 4000470:	3005883a 	mov	r2,r6
 4000474:	e0bffc0d 	sth	r2,-16(fp)
	int start;

	history.read_port->control.fields.rdaddr = address;
 4000478:	e0fffe17 	ldw	r3,-8(fp)
 400047c:	e0bffc0b 	ldhu	r2,-16(fp)
 4000480:	1081ffcc 	andi	r2,r2,2047
 4000484:	10bfffcc 	andi	r2,r2,65535
 4000488:	1081ffcc 	andi	r2,r2,2047
 400048c:	1008927a 	slli	r4,r2,9
 4000490:	19400017 	ldw	r5,0(r3)
 4000494:	00bffc34 	movhi	r2,65520
 4000498:	10807fc4 	addi	r2,r2,511
 400049c:	2884703a 	and	r2,r5,r2
 40004a0:	1104b03a 	or	r2,r2,r4
 40004a4:	18800015 	stw	r2,0(r3)

	start = alt_timestamp_start();
 40004a8:	40115100 	call	4011510 <alt_timestamp_start>
 40004ac:	e0bfff15 	stw	r2,-4(fp)
	while(alt_timestamp() - start < TIMER50MHZ_EQUIVALENT);		// Waiting for a memory's clock period
 40004b0:	0001883a 	nop
 40004b4:	40115880 	call	4011588 <alt_timestamp>
 40004b8:	1007883a 	mov	r3,r2
 40004bc:	e0bfff17 	ldw	r2,-4(fp)
 40004c0:	1885c83a 	sub	r2,r3,r2
 40004c4:	10800670 	cmpltui	r2,r2,25
 40004c8:	103ffa1e 	bne	r2,zero,40004b4 <historymem_read+0x5c>

	return history.read_port->control.fields.rddata;
 40004cc:	e0bffe17 	ldw	r2,-8(fp)
 40004d0:	10800017 	ldw	r2,0(r2)
 40004d4:	1004d07a 	srli	r2,r2,1
 40004d8:	1007883a 	mov	r3,r2
 40004dc:	00bfffc4 	movi	r2,-1
 40004e0:	1884703a 	and	r2,r3,r2
}
 40004e4:	e037883a 	mov	sp,fp
 40004e8:	dfc00117 	ldw	ra,4(sp)
 40004ec:	df000017 	ldw	fp,0(sp)
 40004f0:	dec00204 	addi	sp,sp,8
 40004f4:	f800283a 	ret

040004f8 <adc_init>:
#include "adc.h"
#include "system.h"

adc_t adc_init(int *gpio_adc_base) {
 40004f8:	defffd04 	addi	sp,sp,-12
 40004fc:	df000215 	stw	fp,8(sp)
 4000500:	df000204 	addi	fp,sp,8
 4000504:	e13ffe15 	stw	r4,-8(fp)
	adc_t adc;

	adc = (adc_t)gpio_adc_base;
 4000508:	e0bffe17 	ldw	r2,-8(fp)
 400050c:	e0bfff15 	stw	r2,-4(fp)
	adc->direction.reg |= 0x1;
 4000510:	e0bfff17 	ldw	r2,-4(fp)
 4000514:	10800117 	ldw	r2,4(r2)
 4000518:	10c00054 	ori	r3,r2,1
 400051c:	e0bfff17 	ldw	r2,-4(fp)
 4000520:	10c00115 	stw	r3,4(r2)
	adc->direction.reg &= ~0x3fa;
 4000524:	e0bfff17 	ldw	r2,-4(fp)
 4000528:	10c00117 	ldw	r3,4(r2)
 400052c:	00bf0144 	movi	r2,-1019
 4000530:	1886703a 	and	r3,r3,r2
 4000534:	e0bfff17 	ldw	r2,-4(fp)
 4000538:	10c00115 	stw	r3,4(r2)
	adc->control.fields.soc = 0;
 400053c:	e0bfff17 	ldw	r2,-4(fp)
 4000540:	11000017 	ldw	r4,0(r2)
 4000544:	00ffff84 	movi	r3,-2
 4000548:	20c6703a 	and	r3,r4,r3
 400054c:	10c00015 	stw	r3,0(r2)

	return adc;
 4000550:	e0bfff17 	ldw	r2,-4(fp)
}
 4000554:	e037883a 	mov	sp,fp
 4000558:	df000017 	ldw	fp,0(sp)
 400055c:	dec00104 	addi	sp,sp,4
 4000560:	f800283a 	ret

04000564 <adc_start>:

void adc_start(adc_t adc) {
 4000564:	defffe04 	addi	sp,sp,-8
 4000568:	df000115 	stw	fp,4(sp)
 400056c:	df000104 	addi	fp,sp,4
 4000570:	e13fff15 	stw	r4,-4(fp)
	adc->control.fields.soc = 1;
 4000574:	e0bfff17 	ldw	r2,-4(fp)
 4000578:	10c00017 	ldw	r3,0(r2)
 400057c:	18c00054 	ori	r3,r3,1
 4000580:	10c00015 	stw	r3,0(r2)
}
 4000584:	0001883a 	nop
 4000588:	e037883a 	mov	sp,fp
 400058c:	df000017 	ldw	fp,0(sp)
 4000590:	dec00104 	addi	sp,sp,4
 4000594:	f800283a 	ret

04000598 <adc_stop>:

void adc_stop(adc_t adc) {
 4000598:	defffe04 	addi	sp,sp,-8
 400059c:	df000115 	stw	fp,4(sp)
 40005a0:	df000104 	addi	fp,sp,4
 40005a4:	e13fff15 	stw	r4,-4(fp)
	adc->control.fields.soc = 0;
 40005a8:	e0bfff17 	ldw	r2,-4(fp)
 40005ac:	11000017 	ldw	r4,0(r2)
 40005b0:	00ffff84 	movi	r3,-2
 40005b4:	20c6703a 	and	r3,r4,r3
 40005b8:	10c00015 	stw	r3,0(r2)
}
 40005bc:	0001883a 	nop
 40005c0:	e037883a 	mov	sp,fp
 40005c4:	df000017 	ldw	fp,0(sp)
 40005c8:	dec00104 	addi	sp,sp,4
 40005cc:	f800283a 	ret

040005d0 <adc_get_last>:

int adc_get_last(adc_t adc) {
 40005d0:	defffe04 	addi	sp,sp,-8
 40005d4:	df000115 	stw	fp,4(sp)
 40005d8:	df000104 	addi	fp,sp,4
 40005dc:	e13fff15 	stw	r4,-4(fp)
	return adc->control.fields.adc_value;
 40005e0:	e0bfff17 	ldw	r2,-4(fp)
 40005e4:	10800017 	ldw	r2,0(r2)
 40005e8:	1004d0fa 	srli	r2,r2,3
 40005ec:	10801fcc 	andi	r2,r2,127
 40005f0:	10803fcc 	andi	r2,r2,255
}
 40005f4:	e037883a 	mov	sp,fp
 40005f8:	df000017 	ldw	fp,0(sp)
 40005fc:	dec00104 	addi	sp,sp,4
 4000600:	f800283a 	ret

04000604 <adc_start_get>:

int adc_start_get(adc_t adc) {
 4000604:	defffd04 	addi	sp,sp,-12
 4000608:	dfc00215 	stw	ra,8(sp)
 400060c:	df000115 	stw	fp,4(sp)
 4000610:	df000104 	addi	fp,sp,4
 4000614:	e13fff15 	stw	r4,-4(fp)

	adc_start(adc);
 4000618:	e13fff17 	ldw	r4,-4(fp)
 400061c:	40005640 	call	4000564 <adc_start>
	while(adc->control.fields.eoc != 1);
 4000620:	0001883a 	nop
 4000624:	e0bfff17 	ldw	r2,-4(fp)
 4000628:	10800017 	ldw	r2,0(r2)
 400062c:	1080008c 	andi	r2,r2,2
 4000630:	103ffc26 	beq	r2,zero,4000624 <adc_start_get+0x20>

	adc_stop(adc);
 4000634:	e13fff17 	ldw	r4,-4(fp)
 4000638:	40005980 	call	4000598 <adc_stop>
	while(adc->control.fields.eoc == 1);
 400063c:	0001883a 	nop
 4000640:	e0bfff17 	ldw	r2,-4(fp)
 4000644:	10800017 	ldw	r2,0(r2)
 4000648:	1080008c 	andi	r2,r2,2
 400064c:	103ffc1e 	bne	r2,zero,4000640 <adc_start_get+0x3c>

	return adc_get_last(adc);
 4000650:	e13fff17 	ldw	r4,-4(fp)
 4000654:	40005d00 	call	40005d0 <adc_get_last>
}
 4000658:	e037883a 	mov	sp,fp
 400065c:	dfc00117 	ldw	ra,4(sp)
 4000660:	df000017 	ldw	fp,0(sp)
 4000664:	dec00204 	addi	sp,sp,8
 4000668:	f800283a 	ret

0400066c <pwm_init>:
#include "pwm.h"
#include "alt_types.h"

pwm_t pwm_init(int *pwm_main_base_addr, int *pwm_prescaler_base_addr) {
 400066c:	defffb04 	addi	sp,sp,-20
 4000670:	df000415 	stw	fp,16(sp)
 4000674:	df000404 	addi	fp,sp,16
 4000678:	e13ffd15 	stw	r4,-12(fp)
 400067c:	e17ffc15 	stw	r5,-16(fp)
	pwm_t pwm;

	pwm.pwm_config = pwm_main_base_addr;
 4000680:	e0bffd17 	ldw	r2,-12(fp)
 4000684:	e0bffe15 	stw	r2,-8(fp)
	pwm.pwm_prescaler = pwm_prescaler_base_addr;
 4000688:	e0bffc17 	ldw	r2,-16(fp)
 400068c:	e0bfff15 	stw	r2,-4(fp)

	pwm.pwm_config->gpio_direction = 0x3ff5; //bit 0, 2, [4, 13] as output
 4000690:	e0bffe17 	ldw	r2,-8(fp)
 4000694:	00cffd44 	movi	r3,16373
 4000698:	10c00115 	stw	r3,4(r2)
	pwm.pwm_config->gpio_direction &= ~0xa; //bit 1, 3 as input
 400069c:	e0bffe17 	ldw	r2,-8(fp)
 40006a0:	11000117 	ldw	r4,4(r2)
 40006a4:	e0bffe17 	ldw	r2,-8(fp)
 40006a8:	00fffd44 	movi	r3,-11
 40006ac:	20c6703a 	and	r3,r4,r3
 40006b0:	10c00115 	stw	r3,4(r2)

	//pwm_set_prescaler(pwm, 0x1); //Setting default prescaler at 1 -> 2 MHz clock, 1 KHz PWM

	return pwm;
 40006b4:	e0bffe17 	ldw	r2,-8(fp)
 40006b8:	e0ffff17 	ldw	r3,-4(fp)
 40006bc:	1009883a 	mov	r4,r2
 40006c0:	180b883a 	mov	r5,r3
}
 40006c4:	2005883a 	mov	r2,r4
 40006c8:	2807883a 	mov	r3,r5
 40006cc:	e037883a 	mov	sp,fp
 40006d0:	df000017 	ldw	fp,0(sp)
 40006d4:	dec00104 	addi	sp,sp,4
 40006d8:	f800283a 	ret

040006dc <pwm_set_prescaler>:

void pwm_set_prescaler(pwm_t pwm, int divisor) {
 40006dc:	defffc04 	addi	sp,sp,-16
 40006e0:	df000315 	stw	fp,12(sp)
 40006e4:	df000304 	addi	fp,sp,12
 40006e8:	e13ffe15 	stw	r4,-8(fp)
 40006ec:	e17fff15 	stw	r5,-4(fp)
 40006f0:	e1bffd15 	stw	r6,-12(fp)
	pwm.pwm_prescaler = 1;
 40006f4:	00800044 	movi	r2,1
 40006f8:	e0bfff15 	stw	r2,-4(fp)

	pwm.pwm_config->control.fields.load_prescaler = 1;
 40006fc:	e0bffe17 	ldw	r2,-8(fp)
 4000700:	10c00017 	ldw	r3,0(r2)
 4000704:	18c00054 	ori	r3,r3,1
 4000708:	10c00015 	stw	r3,0(r2)
	while(pwm.pwm_config->control.fields.done_prescaler != 1);
 400070c:	0001883a 	nop
 4000710:	e0bffe17 	ldw	r2,-8(fp)
 4000714:	10800017 	ldw	r2,0(r2)
 4000718:	1080008c 	andi	r2,r2,2
 400071c:	103ffc26 	beq	r2,zero,4000710 <pwm_set_prescaler+0x34>
	pwm.pwm_config->control.fields.load_prescaler = 0;
 4000720:	e0bffe17 	ldw	r2,-8(fp)
 4000724:	11000017 	ldw	r4,0(r2)
 4000728:	00ffff84 	movi	r3,-2
 400072c:	20c6703a 	and	r3,r4,r3
 4000730:	10c00015 	stw	r3,0(r2)
}
 4000734:	0001883a 	nop
 4000738:	e037883a 	mov	sp,fp
 400073c:	df000017 	ldw	fp,0(sp)
 4000740:	dec00104 	addi	sp,sp,4
 4000744:	f800283a 	ret

04000748 <pwm_set_dutycycle>:

void pwm_set_dutycycle(pwm_t pwm, int dutycycle) {
 4000748:	defffc04 	addi	sp,sp,-16
 400074c:	df000315 	stw	fp,12(sp)
 4000750:	df000304 	addi	fp,sp,12
 4000754:	e13ffe15 	stw	r4,-8(fp)
 4000758:	e17fff15 	stw	r5,-4(fp)
 400075c:	e1bffd15 	stw	r6,-12(fp)
	pwm.pwm_config->control.reg = (dutycycle << 4) | (1 << 2);
 4000760:	e0bffd17 	ldw	r2,-12(fp)
 4000764:	1006913a 	slli	r3,r2,4
 4000768:	e0bffe17 	ldw	r2,-8(fp)
 400076c:	18c00114 	ori	r3,r3,4
 4000770:	10c00015 	stw	r3,0(r2)
	while(pwm.pwm_config->control.fields.done_duty != 0);
 4000774:	0001883a 	nop
 4000778:	e0bffe17 	ldw	r2,-8(fp)
 400077c:	10800017 	ldw	r2,0(r2)
 4000780:	1080020c 	andi	r2,r2,8
 4000784:	103ffc1e 	bne	r2,zero,4000778 <pwm_set_dutycycle+0x30>
	while(pwm.pwm_config->control.fields.done_duty != 1);
 4000788:	0001883a 	nop
 400078c:	e0bffe17 	ldw	r2,-8(fp)
 4000790:	10800017 	ldw	r2,0(r2)
 4000794:	1080020c 	andi	r2,r2,8
 4000798:	103ffc26 	beq	r2,zero,400078c <pwm_set_dutycycle+0x44>
	//pwm.pwm_config->control.fields.load_duty = 0;
}
 400079c:	0001883a 	nop
 40007a0:	0001883a 	nop
 40007a4:	e037883a 	mov	sp,fp
 40007a8:	df000017 	ldw	fp,0(sp)
 40007ac:	dec00104 	addi	sp,sp,4
 40007b0:	f800283a 	ret

040007b4 <uart_begin>:
#include <stdio.h>
#include <stdarg.h>
#include "uart.h"
#include "system.h"

uart_t uart_begin(int *base_address, alt_u16 baudrate_divisor) {
 40007b4:	defffc04 	addi	sp,sp,-16
 40007b8:	df000315 	stw	fp,12(sp)
 40007bc:	df000304 	addi	fp,sp,12
 40007c0:	e13ffe15 	stw	r4,-8(fp)
 40007c4:	2805883a 	mov	r2,r5
 40007c8:	e0bffd0d 	sth	r2,-12(fp)
	uart_t uart;

	uart = (uart_t)base_address;
 40007cc:	e0bffe17 	ldw	r2,-8(fp)
 40007d0:	e0bfff15 	stw	r2,-4(fp)
	uart->divisor = baudrate_divisor;
 40007d4:	e0fffd0b 	ldhu	r3,-12(fp)
 40007d8:	e0bfff17 	ldw	r2,-4(fp)
 40007dc:	10c00415 	stw	r3,16(r2)

	return uart;
 40007e0:	e0bfff17 	ldw	r2,-4(fp)
}
 40007e4:	e037883a 	mov	sp,fp
 40007e8:	df000017 	ldw	fp,0(sp)
 40007ec:	dec00104 	addi	sp,sp,4
 40007f0:	f800283a 	ret

040007f4 <uprintf>:

void uprintf(uart_t uart, const char *template, ...) {
 40007f4:	defdf804 	addi	sp,sp,-2080
 40007f8:	dfc20515 	stw	ra,2068(sp)
 40007fc:	df020415 	stw	fp,2064(sp)
 4000800:	df020404 	addi	fp,sp,2064
 4000804:	e13dfd15 	stw	r4,-2060(fp)
 4000808:	e17dfc15 	stw	r5,-2064(fp)
 400080c:	e1800215 	stw	r6,8(fp)
 4000810:	e1c00315 	stw	r7,12(fp)
	char buf[BUFSIZE];
	va_list arg_ptr;
	alt_u8 i;

	va_start(arg_ptr, template);
 4000814:	e0800204 	addi	r2,fp,8
 4000818:	e0bdfe15 	stw	r2,-2056(fp)
	sprintf(buf, template);
 400081c:	e0bdffc4 	addi	r2,fp,-2049
 4000820:	e17dfc17 	ldw	r5,-2064(fp)
 4000824:	1009883a 	mov	r4,r2
 4000828:	40026300 	call	4002630 <sprintf>

	for (i = 0; buf[i] != '\0'; i++) {
 400082c:	e03fffc5 	stb	zero,-1(fp)
 4000830:	00001006 	br	4000874 <uprintf+0x80>
		while (uart->status.fields.trdy != 1);
 4000834:	0001883a 	nop
 4000838:	e0bdfd17 	ldw	r2,-2060(fp)
 400083c:	10800217 	ldw	r2,8(r2)
 4000840:	1080100c 	andi	r2,r2,64
 4000844:	103ffc26 	beq	r2,zero,4000838 <uprintf+0x44>
		uart->txdata = buf[i];
 4000848:	e0bfffc3 	ldbu	r2,-1(fp)
 400084c:	e085883a 	add	r2,fp,r2
 4000850:	10bdffc3 	ldbu	r2,-2049(r2)
 4000854:	10c03fcc 	andi	r3,r2,255
 4000858:	18c0201c 	xori	r3,r3,128
 400085c:	18ffe004 	addi	r3,r3,-128
 4000860:	e0bdfd17 	ldw	r2,-2060(fp)
 4000864:	10c00115 	stw	r3,4(r2)
	for (i = 0; buf[i] != '\0'; i++) {
 4000868:	e0bfffc3 	ldbu	r2,-1(fp)
 400086c:	10800044 	addi	r2,r2,1
 4000870:	e0bfffc5 	stb	r2,-1(fp)
 4000874:	e0bfffc3 	ldbu	r2,-1(fp)
 4000878:	e085883a 	add	r2,fp,r2
 400087c:	10bdffc3 	ldbu	r2,-2049(r2)
 4000880:	10803fcc 	andi	r2,r2,255
 4000884:	1080201c 	xori	r2,r2,128
 4000888:	10bfe004 	addi	r2,r2,-128
 400088c:	103fe91e 	bne	r2,zero,4000834 <uprintf+0x40>
	}

	va_end(arg_ptr);
}
 4000890:	0001883a 	nop
 4000894:	0001883a 	nop
 4000898:	e037883a 	mov	sp,fp
 400089c:	dfc00117 	ldw	ra,4(sp)
 40008a0:	df000017 	ldw	fp,0(sp)
 40008a4:	dec00404 	addi	sp,sp,16
 40008a8:	f800283a 	ret

040008ac <uputc>:

void uputc(uart_t uart, char ch) {
 40008ac:	defffd04 	addi	sp,sp,-12
 40008b0:	df000215 	stw	fp,8(sp)
 40008b4:	df000204 	addi	fp,sp,8
 40008b8:	e13fff15 	stw	r4,-4(fp)
 40008bc:	2805883a 	mov	r2,r5
 40008c0:	e0bffe05 	stb	r2,-8(fp)
	while (uart->status.fields.trdy != 1);
 40008c4:	0001883a 	nop
 40008c8:	e0bfff17 	ldw	r2,-4(fp)
 40008cc:	10800217 	ldw	r2,8(r2)
 40008d0:	1080100c 	andi	r2,r2,64
 40008d4:	103ffc26 	beq	r2,zero,40008c8 <uputc+0x1c>
	uart->txdata = ch;
 40008d8:	e0fffe07 	ldb	r3,-8(fp)
 40008dc:	e0bfff17 	ldw	r2,-4(fp)
 40008e0:	10c00115 	stw	r3,4(r2)
}
 40008e4:	0001883a 	nop
 40008e8:	e037883a 	mov	sp,fp
 40008ec:	df000017 	ldw	fp,0(sp)
 40008f0:	dec00104 	addi	sp,sp,4
 40008f4:	f800283a 	ret

040008f8 <ugets>:

void ugets(char *s, int count, uart_t uart) {
 40008f8:	defff904 	addi	sp,sp,-28
 40008fc:	df000615 	stw	fp,24(sp)
 4000900:	df000604 	addi	fp,sp,24
 4000904:	e13ffc15 	stw	r4,-16(fp)
 4000908:	e17ffb15 	stw	r5,-20(fp)
 400090c:	e1bffa15 	stw	r6,-24(fp)
	char ch;
	int i, old_irrdy;

	//Temporary disable of irdy interrupt
	old_irrdy = uart->control.fields.irrdy;
 4000910:	e0bffa17 	ldw	r2,-24(fp)
 4000914:	10800317 	ldw	r2,12(r2)
 4000918:	1004d1fa 	srli	r2,r2,7
 400091c:	1080004c 	andi	r2,r2,1
 4000920:	10803fcc 	andi	r2,r2,255
 4000924:	e0bffd15 	stw	r2,-12(fp)
	uart->control.fields.irrdy = 0;
 4000928:	e0bffa17 	ldw	r2,-24(fp)
 400092c:	11000317 	ldw	r4,12(r2)
 4000930:	00ffdfc4 	movi	r3,-129
 4000934:	20c6703a 	and	r3,r4,r3
 4000938:	10c00315 	stw	r3,12(r2)

	for (i = 1; i < count && !(ch == '\n' || ch == '\r'); i++) {
 400093c:	00800044 	movi	r2,1
 4000940:	e0bffe15 	stw	r2,-8(fp)
 4000944:	00001106 	br	400098c <ugets+0x94>
		while (uart->status.fields.rrdy != 1);
 4000948:	0001883a 	nop
 400094c:	e0bffa17 	ldw	r2,-24(fp)
 4000950:	10800217 	ldw	r2,8(r2)
 4000954:	1080200c 	andi	r2,r2,128
 4000958:	103ffc26 	beq	r2,zero,400094c <ugets+0x54>

		ch = (char)uart->rxdata;
 400095c:	e0bffa17 	ldw	r2,-24(fp)
 4000960:	10800017 	ldw	r2,0(r2)
 4000964:	e0bfffc5 	stb	r2,-1(fp)
		s[i - 1] = ch;
 4000968:	e0bffe17 	ldw	r2,-8(fp)
 400096c:	10bfffc4 	addi	r2,r2,-1
 4000970:	e0fffc17 	ldw	r3,-16(fp)
 4000974:	1885883a 	add	r2,r3,r2
 4000978:	e0ffffc3 	ldbu	r3,-1(fp)
 400097c:	10c00005 	stb	r3,0(r2)
	for (i = 1; i < count && !(ch == '\n' || ch == '\r'); i++) {
 4000980:	e0bffe17 	ldw	r2,-8(fp)
 4000984:	10800044 	addi	r2,r2,1
 4000988:	e0bffe15 	stw	r2,-8(fp)
 400098c:	e0fffe17 	ldw	r3,-8(fp)
 4000990:	e0bffb17 	ldw	r2,-20(fp)
 4000994:	1880060e 	bge	r3,r2,40009b0 <ugets+0xb8>
 4000998:	e0bfffc7 	ldb	r2,-1(fp)
 400099c:	108002a0 	cmpeqi	r2,r2,10
 40009a0:	1000031e 	bne	r2,zero,40009b0 <ugets+0xb8>
 40009a4:	e0bfffc7 	ldb	r2,-1(fp)
 40009a8:	10800358 	cmpnei	r2,r2,13
 40009ac:	103fe61e 	bne	r2,zero,4000948 <ugets+0x50>
	}

	uart->control.fields.irrdy = old_irrdy;
 40009b0:	e0bffd17 	ldw	r2,-12(fp)
 40009b4:	1007883a 	mov	r3,r2
 40009b8:	1880004c 	andi	r2,r3,1
 40009bc:	1007883a 	mov	r3,r2
 40009c0:	e0bffa17 	ldw	r2,-24(fp)
 40009c4:	18c03fcc 	andi	r3,r3,255
 40009c8:	18c0004c 	andi	r3,r3,1
 40009cc:	180691fa 	slli	r3,r3,7
 40009d0:	11400317 	ldw	r5,12(r2)
 40009d4:	013fdfc4 	movi	r4,-129
 40009d8:	2908703a 	and	r4,r5,r4
 40009dc:	20c6b03a 	or	r3,r4,r3
 40009e0:	10c00315 	stw	r3,12(r2)
	s[i - 1] = '\0';
 40009e4:	e0bffe17 	ldw	r2,-8(fp)
 40009e8:	10bfffc4 	addi	r2,r2,-1
 40009ec:	e0fffc17 	ldw	r3,-16(fp)
 40009f0:	1885883a 	add	r2,r3,r2
 40009f4:	10000005 	stb	zero,0(r2)
}
 40009f8:	0001883a 	nop
 40009fc:	e037883a 	mov	sp,fp
 4000a00:	df000017 	ldw	fp,0(sp)
 4000a04:	dec00104 	addi	sp,sp,4
 4000a08:	f800283a 	ret

04000a0c <ugetc>:

int ugetc(uart_t uart) {
 4000a0c:	defffc04 	addi	sp,sp,-16
 4000a10:	df000315 	stw	fp,12(sp)
 4000a14:	df000304 	addi	fp,sp,12
 4000a18:	e13ffd15 	stw	r4,-12(fp)
	int old_irrdy, ch;

	//Temporary disable of irdy interrupt
	old_irrdy = uart->control.fields.irrdy;
 4000a1c:	e0bffd17 	ldw	r2,-12(fp)
 4000a20:	10800317 	ldw	r2,12(r2)
 4000a24:	1004d1fa 	srli	r2,r2,7
 4000a28:	1080004c 	andi	r2,r2,1
 4000a2c:	10803fcc 	andi	r2,r2,255
 4000a30:	e0bfff15 	stw	r2,-4(fp)
	uart->control.fields.irrdy = 0;
 4000a34:	e0bffd17 	ldw	r2,-12(fp)
 4000a38:	11000317 	ldw	r4,12(r2)
 4000a3c:	00ffdfc4 	movi	r3,-129
 4000a40:	20c6703a 	and	r3,r4,r3
 4000a44:	10c00315 	stw	r3,12(r2)

	while (uart->status.fields.rrdy != 1);
 4000a48:	0001883a 	nop
 4000a4c:	e0bffd17 	ldw	r2,-12(fp)
 4000a50:	10800217 	ldw	r2,8(r2)
 4000a54:	1080200c 	andi	r2,r2,128
 4000a58:	103ffc26 	beq	r2,zero,4000a4c <ugetc+0x40>
	ch = uart->rxdata;
 4000a5c:	e0bffd17 	ldw	r2,-12(fp)
 4000a60:	10800017 	ldw	r2,0(r2)
 4000a64:	e0bffe15 	stw	r2,-8(fp)

	uart->control.fields.irrdy = old_irrdy;
 4000a68:	e0bfff17 	ldw	r2,-4(fp)
 4000a6c:	1007883a 	mov	r3,r2
 4000a70:	1880004c 	andi	r2,r3,1
 4000a74:	1007883a 	mov	r3,r2
 4000a78:	e0bffd17 	ldw	r2,-12(fp)
 4000a7c:	18c03fcc 	andi	r3,r3,255
 4000a80:	18c0004c 	andi	r3,r3,1
 4000a84:	180691fa 	slli	r3,r3,7
 4000a88:	11400317 	ldw	r5,12(r2)
 4000a8c:	013fdfc4 	movi	r4,-129
 4000a90:	2908703a 	and	r4,r5,r4
 4000a94:	20c6b03a 	or	r3,r4,r3
 4000a98:	10c00315 	stw	r3,12(r2)
	return ch;
 4000a9c:	e0bffe17 	ldw	r2,-8(fp)
}
 4000aa0:	e037883a 	mov	sp,fp
 4000aa4:	df000017 	ldw	fp,0(sp)
 4000aa8:	dec00104 	addi	sp,sp,4
 4000aac:	f800283a 	ret

04000ab0 <uart_register_irq>:

void uart_register_irq(uart_t uart, alt_isr_func isr, void *isr_context) {
 4000ab0:	defffa04 	addi	sp,sp,-24
 4000ab4:	dfc00515 	stw	ra,20(sp)
 4000ab8:	df000415 	stw	fp,16(sp)
 4000abc:	df000404 	addi	fp,sp,16
 4000ac0:	e13fff15 	stw	r4,-4(fp)
 4000ac4:	e17ffe15 	stw	r5,-8(fp)
 4000ac8:	e1bffd15 	stw	r6,-12(fp)
	alt_ic_isr_register(UART_0_IRQ_INTERRUPT_CONTROLLER_ID, UART_0_IRQ, isr, isr_context, NULL);
 4000acc:	d8000015 	stw	zero,0(sp)
 4000ad0:	e1fffd17 	ldw	r7,-12(fp)
 4000ad4:	e1bffe17 	ldw	r6,-8(fp)
 4000ad8:	01400044 	movi	r5,1
 4000adc:	0009883a 	mov	r4,zero
 4000ae0:	401093c0 	call	401093c <alt_ic_isr_register>
}
 4000ae4:	0001883a 	nop
 4000ae8:	e037883a 	mov	sp,fp
 4000aec:	dfc00117 	ldw	ra,4(sp)
 4000af0:	df000017 	ldw	fp,0(sp)
 4000af4:	dec00204 	addi	sp,sp,8
 4000af8:	f800283a 	ret

04000afc <main>:
static ths_t th0, th1, th2;
static unsigned int history_address = 0x0;
static unsigned int retrieve_history_address = 0x0;
static unsigned int lost_acks = 0;

int main() {
 4000afc:	defff204 	addi	sp,sp,-56
 4000b00:	dfc00d15 	stw	ra,52(sp)
 4000b04:	df000c15 	stw	fp,48(sp)
 4000b08:	dc000b15 	stw	r16,44(sp)
 4000b0c:	df000c04 	addi	fp,sp,48
	int *gpio_base_ptr = GPIO_0_BASE;
 4000b10:	00840034 	movhi	r2,4096
 4000b14:	10801004 	addi	r2,r2,64
 4000b18:	e0bffc15 	stw	r2,-16(fp)
	alt_u8 avg_cnt = 0, data[16];
 4000b1c:	e03ffec5 	stb	zero,-5(fp)
	alt_timestamp_type wait_for;
	int start, avg_sum = 0;
 4000b20:	e03ffd15 	stw	zero,-12(fp)
	float avg_temp;
	adc_t adc0;

	th0.value = 32;		//10 C
 4000b24:	00c00804 	movi	r3,32
 4000b28:	00810074 	movhi	r2,1025
 4000b2c:	10cfb005 	stb	r3,16064(r2)
	th0.duty0 = 0;
 4000b30:	00810074 	movhi	r2,1025
 4000b34:	100fb115 	stw	zero,16068(r2)
	th0.duty1 = 0;
 4000b38:	00810074 	movhi	r2,1025
 4000b3c:	100fb215 	stw	zero,16072(r2)

	th1.value = 64;		//20 C
 4000b40:	00c01004 	movi	r3,64
 4000b44:	00810074 	movhi	r2,1025
 4000b48:	10cfb305 	stb	r3,16076(r2)
	th1.duty0 = 512;
 4000b4c:	00c08004 	movi	r3,512
 4000b50:	00810074 	movhi	r2,1025
 4000b54:	10cfb415 	stw	r3,16080(r2)
	th1.duty1 = 0;
 4000b58:	00810074 	movhi	r2,1025
 4000b5c:	100fb515 	stw	zero,16084(r2)

	th2.value = 96;		//30 C
 4000b60:	00c01804 	movi	r3,96
 4000b64:	00810074 	movhi	r2,1025
 4000b68:	10cfb605 	stb	r3,16088(r2)
	th2.duty0 = 1023;
 4000b6c:	00c0ffc4 	movi	r3,1023
 4000b70:	00810074 	movhi	r2,1025
 4000b74:	10cfb715 	stw	r3,16092(r2)
	th2.duty1 = 512;
 4000b78:	00c08004 	movi	r3,512
 4000b7c:	00810074 	movhi	r2,1025
 4000b80:	10cfb815 	stw	r3,16096(r2)

	pwm0 = pwm_init(GPIO_2_PWM0_MAIN_BASE, GPIO_2_PWM0_PRESCALER_BASE);
 4000b84:	01440034 	movhi	r5,4096
 4000b88:	29402804 	addi	r5,r5,160
 4000b8c:	01040034 	movhi	r4,4096
 4000b90:	21002004 	addi	r4,r4,128
 4000b94:	400066c0 	call	400066c <pwm_init>
 4000b98:	1009883a 	mov	r4,r2
 4000b9c:	180b883a 	mov	r5,r3
 4000ba0:	d122ee15 	stw	r4,-29768(gp)
 4000ba4:	d162ef15 	stw	r5,-29764(gp)
	pwm_set_dutycycle(pwm0, th1.duty0);
 4000ba8:	00810074 	movhi	r2,1025
 4000bac:	108fb417 	ldw	r2,16080(r2)
 4000bb0:	100d883a 	mov	r6,r2
 4000bb4:	d122ee17 	ldw	r4,-29768(gp)
 4000bb8:	d162ef17 	ldw	r5,-29764(gp)
 4000bbc:	40007480 	call	4000748 <pwm_set_dutycycle>

	pwm1 = pwm_init(GPIO_2_PWM1_MAIN_BASE, GPIO_2_PWM1_PRESCALER_BASE);
 4000bc0:	01440034 	movhi	r5,4096
 4000bc4:	29403804 	addi	r5,r5,224
 4000bc8:	01040034 	movhi	r4,4096
 4000bcc:	21003004 	addi	r4,r4,192
 4000bd0:	400066c0 	call	400066c <pwm_init>
 4000bd4:	1009883a 	mov	r4,r2
 4000bd8:	180b883a 	mov	r5,r3
 4000bdc:	d122f015 	stw	r4,-29760(gp)
 4000be0:	d162f115 	stw	r5,-29756(gp)
	pwm_set_dutycycle(pwm1, th1.duty1);
 4000be4:	00810074 	movhi	r2,1025
 4000be8:	108fb517 	ldw	r2,16084(r2)
 4000bec:	100d883a 	mov	r6,r2
 4000bf0:	d122f017 	ldw	r4,-29760(gp)
 4000bf4:	d162f117 	ldw	r5,-29756(gp)
 4000bf8:	40007480 	call	4000748 <pwm_set_dutycycle>

	uart0 = uart_begin(UART_0_BASE, BR_CALC(UART_0_FREQ, 19200));
 4000bfc:	01428ac4 	movi	r5,2603
 4000c00:	01040034 	movhi	r4,4096
 4000c04:	21000804 	addi	r4,r4,32
 4000c08:	40007b40 	call	40007b4 <uart_begin>
 4000c0c:	d0a2ed15 	stw	r2,-29772(gp)
	uprintf(uart0, "Hello World!\r\n");
 4000c10:	d0a2ed17 	ldw	r2,-29772(gp)
 4000c14:	01410074 	movhi	r5,1025
 4000c18:	29481d04 	addi	r5,r5,8308
 4000c1c:	1009883a 	mov	r4,r2
 4000c20:	40007f40 	call	40007f4 <uprintf>
	uprintf(uart0, "If you can read this, means that your baud rate is set correctly! :> %d\r\n", uart0->divisor);
 4000c24:	d0e2ed17 	ldw	r3,-29772(gp)
 4000c28:	d0a2ed17 	ldw	r2,-29772(gp)
 4000c2c:	10800417 	ldw	r2,16(r2)
 4000c30:	100d883a 	mov	r6,r2
 4000c34:	01410074 	movhi	r5,1025
 4000c38:	29482104 	addi	r5,r5,8324
 4000c3c:	1809883a 	mov	r4,r3
 4000c40:	40007f40 	call	40007f4 <uprintf>

	uart_register_irq(uart0, _ISR_uart0, NULL);
 4000c44:	d0a2ed17 	ldw	r2,-29772(gp)
 4000c48:	000d883a 	mov	r6,zero
 4000c4c:	01410034 	movhi	r5,1024
 4000c50:	29440604 	addi	r5,r5,4120
 4000c54:	1009883a 	mov	r4,r2
 4000c58:	4000ab00 	call	4000ab0 <uart_register_irq>
	uart0->control.fields.irrdy = 1;
 4000c5c:	d0a2ed17 	ldw	r2,-29772(gp)
 4000c60:	10c00317 	ldw	r3,12(r2)
 4000c64:	18c02014 	ori	r3,r3,128
 4000c68:	10c00315 	stw	r3,12(r2)

	adc0 = adc_init(GPIO_1_ADC_BASE);
 4000c6c:	01040034 	movhi	r4,4096
 4000c70:	21001804 	addi	r4,r4,96
 4000c74:	40004f80 	call	40004f8 <adc_init>
 4000c78:	e0bffb15 	stw	r2,-20(fp)
	history0 = historymem_init(GPIO_3_MEM_WRITEPORT_BASE, GPIO_3_MEM_READPORT_BASE);
 4000c7c:	01440034 	movhi	r5,4096
 4000c80:	29404804 	addi	r5,r5,288
 4000c84:	01040034 	movhi	r4,4096
 4000c88:	21004004 	addi	r4,r4,256
 4000c8c:	40002600 	call	4000260 <historymem_init>
 4000c90:	1009883a 	mov	r4,r2
 4000c94:	180b883a 	mov	r5,r3
 4000c98:	d122f215 	stw	r4,-29752(gp)
 4000c9c:	d162f315 	stw	r5,-29748(gp)

	*(gpio_base_ptr + 1) |= 0xf;
 4000ca0:	e0bffc17 	ldw	r2,-16(fp)
 4000ca4:	10800104 	addi	r2,r2,4
 4000ca8:	10c00017 	ldw	r3,0(r2)
 4000cac:	e0bffc17 	ldw	r2,-16(fp)
 4000cb0:	10800104 	addi	r2,r2,4
 4000cb4:	18c003d4 	ori	r3,r3,15
 4000cb8:	10c00015 	stw	r3,0(r2)

	do {
		//uprintf(uart0, "Temp: %.1f C\r\n", (adc_start_get(adc0) * 400.0) / 128.0 / 10);
		*(gpio_base_ptr + 0) |= (1 << 0);	// Activating on-board led 3
 4000cbc:	e0bffc17 	ldw	r2,-16(fp)
 4000cc0:	10800017 	ldw	r2,0(r2)
 4000cc4:	10c00054 	ori	r3,r2,1
 4000cc8:	e0bffc17 	ldw	r2,-16(fp)
 4000ccc:	10c00015 	stw	r3,0(r2)
		data[0] = (adc_start_get(adc0) & 0xff);
 4000cd0:	e13ffb17 	ldw	r4,-20(fp)
 4000cd4:	40006040 	call	4000604 <adc_start_get>
 4000cd8:	e0bff405 	stb	r2,-48(fp)

		if (lost_acks <= 50) {
 4000cdc:	d0a2f617 	ldw	r2,-29736(gp)
 4000ce0:	10800ce8 	cmpgeui	r2,r2,51
 4000ce4:	1000091e 	bne	r2,zero,4000d0c <main+0x210>
			gabriuart_send("CURR", 1, data);
 4000ce8:	e0bff404 	addi	r2,fp,-48
 4000cec:	100d883a 	mov	r6,r2
 4000cf0:	01400044 	movi	r5,1
 4000cf4:	01010074 	movhi	r4,1025
 4000cf8:	21083404 	addi	r4,r4,8400
 4000cfc:	40019e80 	call	40019e8 <gabriuart_send>
			lost_acks++;
 4000d00:	d0a2f617 	ldw	r2,-29736(gp)
 4000d04:	10800044 	addi	r2,r2,1
 4000d08:	d0a2f615 	stw	r2,-29736(gp)
		}

		historymem_write(history0, history0_addr_get_update(), HISTORY_WR_TEMP(data[0]));
 4000d0c:	4001c080 	call	4001c08 <history0_addr_get_update>
 4000d10:	10ffffcc 	andi	r3,r2,65535
 4000d14:	e0bff403 	ldbu	r2,-48(fp)
 4000d18:	10803fcc 	andi	r2,r2,255
 4000d1c:	10801fcc 	andi	r2,r2,127
 4000d20:	100f883a 	mov	r7,r2
 4000d24:	180d883a 	mov	r6,r3
 4000d28:	d122f217 	ldw	r4,-29752(gp)
 4000d2c:	d162f317 	ldw	r5,-29748(gp)
 4000d30:	40002d80 	call	40002d8 <historymem_write>

		avg_sum += data[0];
 4000d34:	e0bff403 	ldbu	r2,-48(fp)
 4000d38:	10803fcc 	andi	r2,r2,255
 4000d3c:	e0fffd17 	ldw	r3,-12(fp)
 4000d40:	1885883a 	add	r2,r3,r2
 4000d44:	e0bffd15 	stw	r2,-12(fp)
		avg_cnt++;
 4000d48:	e0bffec3 	ldbu	r2,-5(fp)
 4000d4c:	10800044 	addi	r2,r2,1
 4000d50:	e0bffec5 	stb	r2,-5(fp)

		if (avg_cnt >= avg_each_count) {
 4000d54:	e0fffec3 	ldbu	r3,-5(fp)
 4000d58:	d0a00117 	ldw	r2,-32764(gp)
 4000d5c:	18809436 	bltu	r3,r2,4000fb0 <main+0x4b4>

			if (lost_acks <= 50) {
 4000d60:	d0a2f617 	ldw	r2,-29736(gp)
 4000d64:	10800ce8 	cmpgeui	r2,r2,51
 4000d68:	1000291e 	bne	r2,zero,4000e10 <main+0x314>
				start = 0;
 4000d6c:	e03ffa15 	stw	zero,-24(fp)
				data[start++] = ((avg_sum >> 0x00) & 0xff);
 4000d70:	e0bffa17 	ldw	r2,-24(fp)
 4000d74:	10c00044 	addi	r3,r2,1
 4000d78:	e0fffa15 	stw	r3,-24(fp)
 4000d7c:	e0fffd17 	ldw	r3,-12(fp)
 4000d80:	e13fff04 	addi	r4,fp,-4
 4000d84:	2085883a 	add	r2,r4,r2
 4000d88:	10fff505 	stb	r3,-44(r2)
				data[start++] = ((avg_sum >> 0x08) & 0xff);
 4000d8c:	e0bffd17 	ldw	r2,-12(fp)
 4000d90:	1009d23a 	srai	r4,r2,8
 4000d94:	e0bffa17 	ldw	r2,-24(fp)
 4000d98:	10c00044 	addi	r3,r2,1
 4000d9c:	e0fffa15 	stw	r3,-24(fp)
 4000da0:	2007883a 	mov	r3,r4
 4000da4:	e13fff04 	addi	r4,fp,-4
 4000da8:	2085883a 	add	r2,r4,r2
 4000dac:	10fff505 	stb	r3,-44(r2)
				data[start++] = ((avg_sum >> 0x16) & 0xff);
 4000db0:	e0bffd17 	ldw	r2,-12(fp)
 4000db4:	1009d5ba 	srai	r4,r2,22
 4000db8:	e0bffa17 	ldw	r2,-24(fp)
 4000dbc:	10c00044 	addi	r3,r2,1
 4000dc0:	e0fffa15 	stw	r3,-24(fp)
 4000dc4:	2007883a 	mov	r3,r4
 4000dc8:	e13fff04 	addi	r4,fp,-4
 4000dcc:	2085883a 	add	r2,r4,r2
 4000dd0:	10fff505 	stb	r3,-44(r2)
				data[start++] = ((avg_sum >> 0x18) & 0xff);
 4000dd4:	e0bffd17 	ldw	r2,-12(fp)
 4000dd8:	1008d63a 	srli	r4,r2,24
 4000ddc:	e0bffa17 	ldw	r2,-24(fp)
 4000de0:	10c00044 	addi	r3,r2,1
 4000de4:	e0fffa15 	stw	r3,-24(fp)
 4000de8:	2007883a 	mov	r3,r4
 4000dec:	e13fff04 	addi	r4,fp,-4
 4000df0:	2085883a 	add	r2,r4,r2
 4000df4:	10fff505 	stb	r3,-44(r2)
				gabriuart_send("CAVG", 4, data);
 4000df8:	e0bff404 	addi	r2,fp,-48
 4000dfc:	100d883a 	mov	r6,r2
 4000e00:	01400104 	movi	r5,4
 4000e04:	01010074 	movhi	r4,1025
 4000e08:	21083604 	addi	r4,r4,8408
 4000e0c:	40019e80 	call	40019e8 <gabriuart_send>
			}

			avg_temp = avg_sum / (float)avg_cnt;
 4000e10:	e13ffd17 	ldw	r4,-12(fp)
 4000e14:	40023680 	call	4002368 <__floatsisf>
 4000e18:	1021883a 	mov	r16,r2
 4000e1c:	e0bffec3 	ldbu	r2,-5(fp)
 4000e20:	1009883a 	mov	r4,r2
 4000e24:	400248c0 	call	400248c <__floatunsisf>
 4000e28:	1007883a 	mov	r3,r2
 4000e2c:	180b883a 	mov	r5,r3
 4000e30:	8009883a 	mov	r4,r16
 4000e34:	4001e4c0 	call	4001e4c <__divsf3>
 4000e38:	1007883a 	mov	r3,r2
 4000e3c:	e0fff915 	stw	r3,-28(fp)
			if (avg_temp > th2.value) {
 4000e40:	00810074 	movhi	r2,1025
 4000e44:	108fb603 	ldbu	r2,16088(r2)
 4000e48:	10803fcc 	andi	r2,r2,255
 4000e4c:	1009883a 	mov	r4,r2
 4000e50:	40023680 	call	4002368 <__floatsisf>
 4000e54:	1007883a 	mov	r3,r2
 4000e58:	180b883a 	mov	r5,r3
 4000e5c:	e13ff917 	ldw	r4,-28(fp)
 4000e60:	40022400 	call	4002240 <__gesf2>
 4000e64:	0080100e 	bge	zero,r2,4000ea8 <main+0x3ac>
				pwm_set_dutycycle(pwm0, th2.duty0);
 4000e68:	00810074 	movhi	r2,1025
 4000e6c:	108fb717 	ldw	r2,16092(r2)
 4000e70:	100d883a 	mov	r6,r2
 4000e74:	d122ee17 	ldw	r4,-29768(gp)
 4000e78:	d162ef17 	ldw	r5,-29764(gp)
 4000e7c:	40007480 	call	4000748 <pwm_set_dutycycle>
				pwm_set_dutycycle(pwm1, th2.duty1);
 4000e80:	00810074 	movhi	r2,1025
 4000e84:	108fb817 	ldw	r2,16096(r2)
 4000e88:	100d883a 	mov	r6,r2
 4000e8c:	d122f017 	ldw	r4,-29760(gp)
 4000e90:	d162f117 	ldw	r5,-29756(gp)
 4000e94:	40007480 	call	4000748 <pwm_set_dutycycle>
				*(gpio_base_ptr + 0) = (1 << 1);	// Activating on-board led 0
 4000e98:	e0bffc17 	ldw	r2,-16(fp)
 4000e9c:	00c00084 	movi	r3,2
 4000ea0:	10c00015 	stw	r3,0(r2)
 4000ea4:	00003306 	br	4000f74 <main+0x478>
			} else if (avg_temp > th1.value) {
 4000ea8:	00810074 	movhi	r2,1025
 4000eac:	108fb303 	ldbu	r2,16076(r2)
 4000eb0:	10803fcc 	andi	r2,r2,255
 4000eb4:	1009883a 	mov	r4,r2
 4000eb8:	40023680 	call	4002368 <__floatsisf>
 4000ebc:	1007883a 	mov	r3,r2
 4000ec0:	180b883a 	mov	r5,r3
 4000ec4:	e13ff917 	ldw	r4,-28(fp)
 4000ec8:	40022400 	call	4002240 <__gesf2>
 4000ecc:	0080100e 	bge	zero,r2,4000f10 <main+0x414>
				pwm_set_dutycycle(pwm0, th1.duty0);
 4000ed0:	00810074 	movhi	r2,1025
 4000ed4:	108fb417 	ldw	r2,16080(r2)
 4000ed8:	100d883a 	mov	r6,r2
 4000edc:	d122ee17 	ldw	r4,-29768(gp)
 4000ee0:	d162ef17 	ldw	r5,-29764(gp)
 4000ee4:	40007480 	call	4000748 <pwm_set_dutycycle>
				pwm_set_dutycycle(pwm1, th1.duty1);
 4000ee8:	00810074 	movhi	r2,1025
 4000eec:	108fb517 	ldw	r2,16084(r2)
 4000ef0:	100d883a 	mov	r6,r2
 4000ef4:	d122f017 	ldw	r4,-29760(gp)
 4000ef8:	d162f117 	ldw	r5,-29756(gp)
 4000efc:	40007480 	call	4000748 <pwm_set_dutycycle>
				*(gpio_base_ptr + 0) = (1 << 2);	// Activating on-board led 1
 4000f00:	e0bffc17 	ldw	r2,-16(fp)
 4000f04:	00c00104 	movi	r3,4
 4000f08:	10c00015 	stw	r3,0(r2)
 4000f0c:	00001906 	br	4000f74 <main+0x478>
			} else if (avg_temp > th0.value) {
 4000f10:	00810074 	movhi	r2,1025
 4000f14:	108fb003 	ldbu	r2,16064(r2)
 4000f18:	10803fcc 	andi	r2,r2,255
 4000f1c:	1009883a 	mov	r4,r2
 4000f20:	40023680 	call	4002368 <__floatsisf>
 4000f24:	1007883a 	mov	r3,r2
 4000f28:	180b883a 	mov	r5,r3
 4000f2c:	e13ff917 	ldw	r4,-28(fp)
 4000f30:	40022400 	call	4002240 <__gesf2>
 4000f34:	00800f0e 	bge	zero,r2,4000f74 <main+0x478>
				pwm_set_dutycycle(pwm0, th0.duty0);
 4000f38:	00810074 	movhi	r2,1025
 4000f3c:	108fb117 	ldw	r2,16068(r2)
 4000f40:	100d883a 	mov	r6,r2
 4000f44:	d122ee17 	ldw	r4,-29768(gp)
 4000f48:	d162ef17 	ldw	r5,-29764(gp)
 4000f4c:	40007480 	call	4000748 <pwm_set_dutycycle>
				pwm_set_dutycycle(pwm1, th0.duty1);
 4000f50:	00810074 	movhi	r2,1025
 4000f54:	108fb217 	ldw	r2,16072(r2)
 4000f58:	100d883a 	mov	r6,r2
 4000f5c:	d122f017 	ldw	r4,-29760(gp)
 4000f60:	d162f117 	ldw	r5,-29756(gp)
 4000f64:	40007480 	call	4000748 <pwm_set_dutycycle>
				*(gpio_base_ptr + 0) = (1 << 3);	// Activating on-board led 2
 4000f68:	e0bffc17 	ldw	r2,-16(fp)
 4000f6c:	00c00204 	movi	r3,8
 4000f70:	10c00015 	stw	r3,0(r2)
			}

			historymem_write(history0, history0_addr_get_update(), HISTORY_WR_AVG((int)(avg_temp)));
 4000f74:	4001c080 	call	4001c08 <history0_addr_get_update>
 4000f78:	143fffcc 	andi	r16,r2,65535
 4000f7c:	e13ff917 	ldw	r4,-28(fp)
 4000f80:	40022f80 	call	40022f8 <__fixsfsi>
 4000f84:	1007883a 	mov	r3,r2
 4000f88:	00bfe004 	movi	r2,-128
 4000f8c:	1884b03a 	or	r2,r3,r2
 4000f90:	10803fcc 	andi	r2,r2,255
 4000f94:	100f883a 	mov	r7,r2
 4000f98:	800d883a 	mov	r6,r16
 4000f9c:	d122f217 	ldw	r4,-29752(gp)
 4000fa0:	d162f317 	ldw	r5,-29748(gp)
 4000fa4:	40002d80 	call	40002d8 <historymem_write>

			avg_cnt = 0;
 4000fa8:	e03ffec5 	stb	zero,-5(fp)
			avg_sum = 0;
 4000fac:	e03ffd15 	stw	zero,-12(fp)
		}

		wait_for = TIMER_INTERVAL(sampling_period_ms, alt_timestamp_freq());
 4000fb0:	40116080 	call	4011608 <alt_timestamp_freq>
 4000fb4:	0140fa04 	movi	r5,1000
 4000fb8:	1009883a 	mov	r4,r2
 4000fbc:	4001d640 	call	4001d64 <__udivsi3>
 4000fc0:	1007883a 	mov	r3,r2
 4000fc4:	d0a00017 	ldw	r2,-32768(gp)
 4000fc8:	100b883a 	mov	r5,r2
 4000fcc:	1809883a 	mov	r4,r3
 4000fd0:	4001e240 	call	4001e24 <__mulsi3>
 4000fd4:	e0bff815 	stw	r2,-32(fp)
		start = alt_timestamp_start();
 4000fd8:	40115100 	call	4011510 <alt_timestamp_start>
 4000fdc:	e0bffa15 	stw	r2,-24(fp)
		while(alt_timestamp() - start < wait_for);
 4000fe0:	0001883a 	nop
 4000fe4:	40115880 	call	4011588 <alt_timestamp>
 4000fe8:	1007883a 	mov	r3,r2
 4000fec:	e0bffa17 	ldw	r2,-24(fp)
 4000ff0:	1887c83a 	sub	r3,r3,r2
 4000ff4:	e0bff817 	ldw	r2,-32(fp)
 4000ff8:	18bffa36 	bltu	r3,r2,4000fe4 <main+0x4e8>

		*(gpio_base_ptr + 0) &= ~(1 << 0);	// Deactivating on-board led 3
 4000ffc:	e0bffc17 	ldw	r2,-16(fp)
 4001000:	10c00017 	ldw	r3,0(r2)
 4001004:	00bfff84 	movi	r2,-2
 4001008:	1886703a 	and	r3,r3,r2
 400100c:	e0bffc17 	ldw	r2,-16(fp)
 4001010:	10c00015 	stw	r3,0(r2)
		*(gpio_base_ptr + 0) |= (1 << 0);	// Activating on-board led 3
 4001014:	003f2906 	br	4000cbc <main+0x1c0>

04001018 <_ISR_uart0>:
 *	- LENGTH: max 1 byte
 *	- DATA: data contains "length" bytes
 *	- CHECKSUM: computed on CMD + Data
 *
 */
void _ISR_uart0(void *context, alt_u32 id) {
 4001018:	defff604 	addi	sp,sp,-40
 400101c:	dfc00915 	stw	ra,36(sp)
 4001020:	df000815 	stw	fp,32(sp)
 4001024:	df000804 	addi	fp,sp,32
 4001028:	e13ff915 	stw	r4,-28(fp)
 400102c:	e17ff815 	stw	r5,-32(fp)
	static alt_u8 buffer_post = 0;
	static bool is_stx = false;
	static int i;
	int checksum_val, addr, j;
	char ch, *ptr;
	bool is_check_ok = false;
 4001030:	e03ffb15 	stw	zero,-20(fp)

	ch = ugetc(uart0);
 4001034:	d0a2ed17 	ldw	r2,-29772(gp)
 4001038:	1009883a 	mov	r4,r2
 400103c:	4000a0c0 	call	4000a0c <ugetc>
 4001040:	e0bffac5 	stb	r2,-21(fp)
	buffer[buffer_post++] = ch;
 4001044:	d0a2f703 	ldbu	r2,-29732(gp)
 4001048:	10c00044 	addi	r3,r2,1
 400104c:	d0e2f705 	stb	r3,-29732(gp)
 4001050:	11003fcc 	andi	r4,r2,255
 4001054:	e0fffac3 	ldbu	r3,-21(fp)
 4001058:	00810074 	movhi	r2,1025
 400105c:	2085883a 	add	r2,r4,r2
 4001060:	10cfb905 	stb	r3,16100(r2)
	buffer_post %= 1024;
 4001064:	d0a2f703 	ldbu	r2,-29732(gp)
 4001068:	d0a2f705 	stb	r2,-29732(gp)

	if (buffer_post == 6) {
 400106c:	d0a2f703 	ldbu	r2,-29732(gp)
 4001070:	10803fcc 	andi	r2,r2,255
 4001074:	10800198 	cmpnei	r2,r2,6
 4001078:	10000b1e 	bne	r2,zero,40010a8 <_ISR_uart0+0x90>
		i = buffer[buffer_post - 1]; // this is the expected length
 400107c:	d0a2f703 	ldbu	r2,-29732(gp)
 4001080:	10803fcc 	andi	r2,r2,255
 4001084:	10ffffc4 	addi	r3,r2,-1
 4001088:	00810074 	movhi	r2,1025
 400108c:	1885883a 	add	r2,r3,r2
 4001090:	108fb903 	ldbu	r2,16100(r2)
 4001094:	10803fcc 	andi	r2,r2,255
 4001098:	1080201c 	xori	r2,r2,128
 400109c:	10bfe004 	addi	r2,r2,-128
 40010a0:	d0a2f815 	stw	r2,-29728(gp)
 40010a4:	00000706 	br	40010c4 <_ISR_uart0+0xac>
	} else if (buffer_post > 6) {
 40010a8:	d0a2f703 	ldbu	r2,-29732(gp)
 40010ac:	10803fcc 	andi	r2,r2,255
 40010b0:	108001f0 	cmpltui	r2,r2,7
 40010b4:	1000031e 	bne	r2,zero,40010c4 <_ISR_uart0+0xac>
		i--; //counting remaining expected data
 40010b8:	d0a2f817 	ldw	r2,-29728(gp)
 40010bc:	10bfffc4 	addi	r2,r2,-1
 40010c0:	d0a2f815 	stw	r2,-29728(gp)
	}

	is_stx = is_stx || (ch == '\x2');
 40010c4:	d0a2f917 	ldw	r2,-29724(gp)
 40010c8:	1000031e 	bne	r2,zero,40010d8 <_ISR_uart0+0xc0>
 40010cc:	e0bffac7 	ldb	r2,-21(fp)
 40010d0:	10800098 	cmpnei	r2,r2,2
 40010d4:	1000021e 	bne	r2,zero,40010e0 <_ISR_uart0+0xc8>
 40010d8:	00800044 	movi	r2,1
 40010dc:	00000106 	br	40010e4 <_ISR_uart0+0xcc>
 40010e0:	0005883a 	mov	r2,zero
 40010e4:	d0a2f915 	stw	r2,-29724(gp)
	if (is_stx && (ch == '\x3' && i == -2)) { // The check on expected data count is done in order to exploit a "\x3" that is a data and not ETX
 40010e8:	d0a2f917 	ldw	r2,-29724(gp)
 40010ec:	10022a26 	beq	r2,zero,4001998 <_ISR_uart0+0x980>
 40010f0:	e0bffac7 	ldb	r2,-21(fp)
 40010f4:	108000d8 	cmpnei	r2,r2,3
 40010f8:	1002271e 	bne	r2,zero,4001998 <_ISR_uart0+0x980>
 40010fc:	d0a2f817 	ldw	r2,-29728(gp)
 4001100:	10bfff98 	cmpnei	r2,r2,-2
 4001104:	1002241e 	bne	r2,zero,4001998 <_ISR_uart0+0x980>
											  // -2 because after data I expect checksum + ETX
		checksum_val = gabriuart_checksum(gabriuart_cmd2_u32(buffer + 1));
 4001108:	00810074 	movhi	r2,1025
 400110c:	108fb944 	addi	r2,r2,16101
 4001110:	1009883a 	mov	r4,r2
 4001114:	4001b740 	call	4001b74 <gabriuart_cmd2_u32>
 4001118:	1009883a 	mov	r4,r2
 400111c:	4001b280 	call	4001b28 <gabriuart_checksum>
 4001120:	10803fcc 	andi	r2,r2,255
 4001124:	e0bfff15 	stw	r2,-4(fp)
		for (i = 0; i < buffer[5]; i++) {
 4001128:	d022f815 	stw	zero,-29728(gp)
 400112c:	00001206 	br	4001178 <_ISR_uart0+0x160>
			checksum_val += gabriuart_checksum((alt_u32)buffer[i + 6] & 0xff);
 4001130:	d0a2f817 	ldw	r2,-29728(gp)
 4001134:	10c00184 	addi	r3,r2,6
 4001138:	00810074 	movhi	r2,1025
 400113c:	1885883a 	add	r2,r3,r2
 4001140:	108fb903 	ldbu	r2,16100(r2)
 4001144:	10803fcc 	andi	r2,r2,255
 4001148:	1080201c 	xori	r2,r2,128
 400114c:	10bfe004 	addi	r2,r2,-128
 4001150:	10803fcc 	andi	r2,r2,255
 4001154:	1009883a 	mov	r4,r2
 4001158:	4001b280 	call	4001b28 <gabriuart_checksum>
 400115c:	10803fcc 	andi	r2,r2,255
 4001160:	e0ffff17 	ldw	r3,-4(fp)
 4001164:	1885883a 	add	r2,r3,r2
 4001168:	e0bfff15 	stw	r2,-4(fp)
		for (i = 0; i < buffer[5]; i++) {
 400116c:	d0a2f817 	ldw	r2,-29728(gp)
 4001170:	10800044 	addi	r2,r2,1
 4001174:	d0a2f815 	stw	r2,-29728(gp)
 4001178:	00810074 	movhi	r2,1025
 400117c:	108fba43 	ldbu	r2,16105(r2)
 4001180:	10803fcc 	andi	r2,r2,255
 4001184:	1080201c 	xori	r2,r2,128
 4001188:	10bfe004 	addi	r2,r2,-128
 400118c:	d0e2f817 	ldw	r3,-29728(gp)
 4001190:	18bfe716 	blt	r3,r2,4001130 <_ISR_uart0+0x118>
		}
		checksum_val &= 0x7f;
 4001194:	e0bfff17 	ldw	r2,-4(fp)
 4001198:	10801fcc 	andi	r2,r2,127
 400119c:	e0bfff15 	stw	r2,-4(fp)

		//sending ack or nack based on checksum check
		is_check_ok = (checksum_val == (alt_u8)buffer[buffer_post - 2]);
 40011a0:	d0a2f703 	ldbu	r2,-29732(gp)
 40011a4:	10803fcc 	andi	r2,r2,255
 40011a8:	10ffff84 	addi	r3,r2,-2
 40011ac:	00810074 	movhi	r2,1025
 40011b0:	1885883a 	add	r2,r3,r2
 40011b4:	108fb903 	ldbu	r2,16100(r2)
 40011b8:	10803fcc 	andi	r2,r2,255
 40011bc:	e0ffff17 	ldw	r3,-4(fp)
 40011c0:	1885003a 	cmpeq	r2,r3,r2
 40011c4:	10803fcc 	andi	r2,r2,255
 40011c8:	e0bffb15 	stw	r2,-20(fp)
		uprintf(uart0, "\x2%c\x1\x1\x1\x3\r\n", (is_check_ok) ? '\x06' : '\x0f');
 40011cc:	d0e2ed17 	ldw	r3,-29772(gp)
 40011d0:	e0bffb17 	ldw	r2,-20(fp)
 40011d4:	10000226 	beq	r2,zero,40011e0 <_ISR_uart0+0x1c8>
 40011d8:	00800184 	movi	r2,6
 40011dc:	00000106 	br	40011e4 <_ISR_uart0+0x1cc>
 40011e0:	008003c4 	movi	r2,15
 40011e4:	100d883a 	mov	r6,r2
 40011e8:	01410074 	movhi	r5,1025
 40011ec:	29483804 	addi	r5,r5,8416
 40011f0:	1809883a 	mov	r4,r3
 40011f4:	40007f40 	call	40007f4 <uprintf>

		if (is_check_ok) {
 40011f8:	e0bffb17 	ldw	r2,-20(fp)
 40011fc:	1001e226 	beq	r2,zero,4001988 <_ISR_uart0+0x970>
			i = gabriuart_cmd2_u32(buffer + 1);
 4001200:	00810074 	movhi	r2,1025
 4001204:	108fb944 	addi	r2,r2,16101
 4001208:	1009883a 	mov	r4,r2
 400120c:	4001b740 	call	4001b74 <gabriuart_cmd2_u32>
 4001210:	d0a2f815 	stw	r2,-29728(gp)
			switch(i) {
 4001214:	d0a2f817 	ldw	r2,-29728(gp)
 4001218:	00d51174 	movhi	r3,21573
 400121c:	18d4d0c4 	addi	r3,r3,21315
 4001220:	10c02d26 	beq	r2,r3,40012d8 <_ISR_uart0+0x2c0>
 4001224:	00d51174 	movhi	r3,21573
 4001228:	18d4d0c4 	addi	r3,r3,21315
 400122c:	1881d716 	blt	r3,r2,400198c <_ISR_uart0+0x974>
 4001230:	00d51174 	movhi	r3,21573
 4001234:	18d1d204 	addi	r3,r3,18248
 4001238:	10c18c26 	beq	r2,r3,400186c <_ISR_uart0+0x854>
 400123c:	00d51174 	movhi	r3,21573
 4001240:	18d1d204 	addi	r3,r3,18248
 4001244:	1881d116 	blt	r3,r2,400198c <_ISR_uart0+0x974>
 4001248:	00d51174 	movhi	r3,21573
 400124c:	18d1d0c4 	addi	r3,r3,18243
 4001250:	10c0cf26 	beq	r2,r3,4001590 <_ISR_uart0+0x578>
 4001254:	00d51174 	movhi	r3,21573
 4001258:	18d1d0c4 	addi	r3,r3,18243
 400125c:	1881cb16 	blt	r3,r2,400198c <_ISR_uart0+0x974>
 4001260:	00d155b4 	movhi	r3,17750
 4001264:	18d25304 	addi	r3,r3,18764
 4001268:	10c1c526 	beq	r2,r3,4001980 <_ISR_uart0+0x968>
 400126c:	00d1d3b4 	movhi	r3,18254
 4001270:	18d25404 	addi	r3,r3,18768
 4001274:	10c1c51e 	bne	r2,r3,400198c <_ISR_uart0+0x974>
			case PING:
				buffer[buffer_post] = ~buffer[i+6];
 4001278:	d0a2f817 	ldw	r2,-29728(gp)
 400127c:	10c00184 	addi	r3,r2,6
 4001280:	00810074 	movhi	r2,1025
 4001284:	1885883a 	add	r2,r3,r2
 4001288:	108fb903 	ldbu	r2,16100(r2)
 400128c:	d0e2f703 	ldbu	r3,-29732(gp)
 4001290:	18c03fcc 	andi	r3,r3,255
 4001294:	0084303a 	nor	r2,zero,r2
 4001298:	1009883a 	mov	r4,r2
 400129c:	00810074 	movhi	r2,1025
 40012a0:	1885883a 	add	r2,r3,r2
 40012a4:	110fb905 	stb	r4,16100(r2)
				gabriuart_send("PONG", 0x1, (alt_u8 *)(buffer + buffer_post));
 40012a8:	d0a2f703 	ldbu	r2,-29732(gp)
 40012ac:	10c03fcc 	andi	r3,r2,255
 40012b0:	00810074 	movhi	r2,1025
 40012b4:	108fb904 	addi	r2,r2,16100
 40012b8:	1885883a 	add	r2,r3,r2
 40012bc:	100d883a 	mov	r6,r2
 40012c0:	01400044 	movi	r5,1
 40012c4:	01010074 	movhi	r4,1025
 40012c8:	21083b04 	addi	r4,r4,8428
 40012cc:	40019e80 	call	40019e8 <gabriuart_send>

				lost_acks = 0; // A PING means that a client is connected, so I start again to sent data
 40012d0:	d022f615 	stw	zero,-29736(gp)
				break;
 40012d4:	0001ad06 	br	400198c <_ISR_uart0+0x974>

			case CSET:
				ptr = buffer + buffer_post - 22;
 40012d8:	d0a2f703 	ldbu	r2,-29732(gp)
 40012dc:	10803fcc 	andi	r2,r2,255
 40012e0:	10fffa84 	addi	r3,r2,-22
 40012e4:	00810074 	movhi	r2,1025
 40012e8:	108fb904 	addi	r2,r2,16100
 40012ec:	1885883a 	add	r2,r3,r2
 40012f0:	e0bffc15 	stw	r2,-16(fp)
				sampling_period_ms = (((alt_u32)ptr[0] << 0x00) & 0xff) 	  |
 40012f4:	e0bffc17 	ldw	r2,-16(fp)
 40012f8:	10800003 	ldbu	r2,0(r2)
 40012fc:	10803fcc 	andi	r2,r2,255
 4001300:	1080201c 	xori	r2,r2,128
 4001304:	10bfe004 	addi	r2,r2,-128
 4001308:	10c03fcc 	andi	r3,r2,255
									 (((alt_u32)ptr[1] << 0x08) & 0xff00) 	  |
 400130c:	e0bffc17 	ldw	r2,-16(fp)
 4001310:	10800044 	addi	r2,r2,1
 4001314:	10800003 	ldbu	r2,0(r2)
 4001318:	10803fcc 	andi	r2,r2,255
 400131c:	1080201c 	xori	r2,r2,128
 4001320:	10bfe004 	addi	r2,r2,-128
 4001324:	1004923a 	slli	r2,r2,8
 4001328:	10bfffcc 	andi	r2,r2,65535
				sampling_period_ms = (((alt_u32)ptr[0] << 0x00) & 0xff) 	  |
 400132c:	1886b03a 	or	r3,r3,r2
									 (((alt_u32)ptr[2] << 0x10) & 0xff0000)   |
 4001330:	e0bffc17 	ldw	r2,-16(fp)
 4001334:	10800084 	addi	r2,r2,2
 4001338:	10800003 	ldbu	r2,0(r2)
 400133c:	10803fcc 	andi	r2,r2,255
 4001340:	1080201c 	xori	r2,r2,128
 4001344:	10bfe004 	addi	r2,r2,-128
 4001348:	1004943a 	slli	r2,r2,16
 400134c:	10803fec 	andhi	r2,r2,255
									 (((alt_u32)ptr[1] << 0x08) & 0xff00) 	  |
 4001350:	1886b03a 	or	r3,r3,r2
									 (((alt_u32)ptr[3] << 0x18) & 0xff000000);
 4001354:	e0bffc17 	ldw	r2,-16(fp)
 4001358:	108000c4 	addi	r2,r2,3
 400135c:	10800003 	ldbu	r2,0(r2)
 4001360:	10803fcc 	andi	r2,r2,255
 4001364:	1080201c 	xori	r2,r2,128
 4001368:	10bfe004 	addi	r2,r2,-128
 400136c:	1004963a 	slli	r2,r2,24
									 (((alt_u32)ptr[2] << 0x10) & 0xff0000)   |
 4001370:	1884b03a 	or	r2,r3,r2
				sampling_period_ms = (((alt_u32)ptr[0] << 0x00) & 0xff) 	  |
 4001374:	d0a00015 	stw	r2,-32768(gp)

				avg_each_count = ptr[4];
 4001378:	e0bffc17 	ldw	r2,-16(fp)
 400137c:	10800104 	addi	r2,r2,4
 4001380:	10800003 	ldbu	r2,0(r2)
 4001384:	10803fcc 	andi	r2,r2,255
 4001388:	1080201c 	xori	r2,r2,128
 400138c:	10bfe004 	addi	r2,r2,-128
 4001390:	d0a00115 	stw	r2,-32764(gp)

				th0.value = ptr[05];
 4001394:	e0bffc17 	ldw	r2,-16(fp)
 4001398:	10800144 	addi	r2,r2,5
 400139c:	10800003 	ldbu	r2,0(r2)
 40013a0:	1007883a 	mov	r3,r2
 40013a4:	00810074 	movhi	r2,1025
 40013a8:	10cfb005 	stb	r3,16064(r2)
				th1.value = ptr[10];
 40013ac:	e0bffc17 	ldw	r2,-16(fp)
 40013b0:	10800284 	addi	r2,r2,10
 40013b4:	10800003 	ldbu	r2,0(r2)
 40013b8:	1007883a 	mov	r3,r2
 40013bc:	00810074 	movhi	r2,1025
 40013c0:	10cfb305 	stb	r3,16076(r2)
				th2.value = ptr[15];
 40013c4:	e0bffc17 	ldw	r2,-16(fp)
 40013c8:	108003c4 	addi	r2,r2,15
 40013cc:	10800003 	ldbu	r2,0(r2)
 40013d0:	1007883a 	mov	r3,r2
 40013d4:	00810074 	movhi	r2,1025
 40013d8:	10cfb605 	stb	r3,16088(r2)

				th0.duty0 = (((alt_u32)ptr[6] << 0x00) & 0xff) 	  |
 40013dc:	e0bffc17 	ldw	r2,-16(fp)
 40013e0:	10800184 	addi	r2,r2,6
 40013e4:	10800003 	ldbu	r2,0(r2)
 40013e8:	10803fcc 	andi	r2,r2,255
 40013ec:	1080201c 	xori	r2,r2,128
 40013f0:	10bfe004 	addi	r2,r2,-128
 40013f4:	10c03fcc 	andi	r3,r2,255
						 	(((alt_u32)ptr[7] << 0x08) & 0xff00);
 40013f8:	e0bffc17 	ldw	r2,-16(fp)
 40013fc:	108001c4 	addi	r2,r2,7
 4001400:	10800003 	ldbu	r2,0(r2)
 4001404:	10803fcc 	andi	r2,r2,255
 4001408:	1080201c 	xori	r2,r2,128
 400140c:	10bfe004 	addi	r2,r2,-128
 4001410:	1004923a 	slli	r2,r2,8
 4001414:	10bfffcc 	andi	r2,r2,65535
				th0.duty0 = (((alt_u32)ptr[6] << 0x00) & 0xff) 	  |
 4001418:	1886b03a 	or	r3,r3,r2
 400141c:	00810074 	movhi	r2,1025
 4001420:	10cfb115 	stw	r3,16068(r2)

				th0.duty1 = (((alt_u32)ptr[8] << 0x00) & 0xff) 	  |
 4001424:	e0bffc17 	ldw	r2,-16(fp)
 4001428:	10800204 	addi	r2,r2,8
 400142c:	10800003 	ldbu	r2,0(r2)
 4001430:	10803fcc 	andi	r2,r2,255
 4001434:	1080201c 	xori	r2,r2,128
 4001438:	10bfe004 	addi	r2,r2,-128
 400143c:	10c03fcc 	andi	r3,r2,255
						 	(((alt_u32)ptr[9] << 0x08) & 0xff00);
 4001440:	e0bffc17 	ldw	r2,-16(fp)
 4001444:	10800244 	addi	r2,r2,9
 4001448:	10800003 	ldbu	r2,0(r2)
 400144c:	10803fcc 	andi	r2,r2,255
 4001450:	1080201c 	xori	r2,r2,128
 4001454:	10bfe004 	addi	r2,r2,-128
 4001458:	1004923a 	slli	r2,r2,8
 400145c:	10bfffcc 	andi	r2,r2,65535
				th0.duty1 = (((alt_u32)ptr[8] << 0x00) & 0xff) 	  |
 4001460:	1886b03a 	or	r3,r3,r2
 4001464:	00810074 	movhi	r2,1025
 4001468:	10cfb215 	stw	r3,16072(r2)

				th1.duty0 = (((alt_u32)ptr[11] << 0x00) & 0xff) 	  |
 400146c:	e0bffc17 	ldw	r2,-16(fp)
 4001470:	108002c4 	addi	r2,r2,11
 4001474:	10800003 	ldbu	r2,0(r2)
 4001478:	10803fcc 	andi	r2,r2,255
 400147c:	1080201c 	xori	r2,r2,128
 4001480:	10bfe004 	addi	r2,r2,-128
 4001484:	10c03fcc 	andi	r3,r2,255
						 	(((alt_u32)ptr[12] << 0x08) & 0xff00);
 4001488:	e0bffc17 	ldw	r2,-16(fp)
 400148c:	10800304 	addi	r2,r2,12
 4001490:	10800003 	ldbu	r2,0(r2)
 4001494:	10803fcc 	andi	r2,r2,255
 4001498:	1080201c 	xori	r2,r2,128
 400149c:	10bfe004 	addi	r2,r2,-128
 40014a0:	1004923a 	slli	r2,r2,8
 40014a4:	10bfffcc 	andi	r2,r2,65535
				th1.duty0 = (((alt_u32)ptr[11] << 0x00) & 0xff) 	  |
 40014a8:	1886b03a 	or	r3,r3,r2
 40014ac:	00810074 	movhi	r2,1025
 40014b0:	10cfb415 	stw	r3,16080(r2)

				th1.duty1 = (((alt_u32)ptr[13] << 0x00) & 0xff) 	  |
 40014b4:	e0bffc17 	ldw	r2,-16(fp)
 40014b8:	10800344 	addi	r2,r2,13
 40014bc:	10800003 	ldbu	r2,0(r2)
 40014c0:	10803fcc 	andi	r2,r2,255
 40014c4:	1080201c 	xori	r2,r2,128
 40014c8:	10bfe004 	addi	r2,r2,-128
 40014cc:	10c03fcc 	andi	r3,r2,255
						 	(((alt_u32)ptr[14] << 0x08) & 0xff00);
 40014d0:	e0bffc17 	ldw	r2,-16(fp)
 40014d4:	10800384 	addi	r2,r2,14
 40014d8:	10800003 	ldbu	r2,0(r2)
 40014dc:	10803fcc 	andi	r2,r2,255
 40014e0:	1080201c 	xori	r2,r2,128
 40014e4:	10bfe004 	addi	r2,r2,-128
 40014e8:	1004923a 	slli	r2,r2,8
 40014ec:	10bfffcc 	andi	r2,r2,65535
				th1.duty1 = (((alt_u32)ptr[13] << 0x00) & 0xff) 	  |
 40014f0:	1886b03a 	or	r3,r3,r2
 40014f4:	00810074 	movhi	r2,1025
 40014f8:	10cfb515 	stw	r3,16084(r2)

				th2.duty0 = (((alt_u32)ptr[16] << 0x00) & 0xff) 	  |
 40014fc:	e0bffc17 	ldw	r2,-16(fp)
 4001500:	10800404 	addi	r2,r2,16
 4001504:	10800003 	ldbu	r2,0(r2)
 4001508:	10803fcc 	andi	r2,r2,255
 400150c:	1080201c 	xori	r2,r2,128
 4001510:	10bfe004 	addi	r2,r2,-128
 4001514:	10c03fcc 	andi	r3,r2,255
						 	(((alt_u32)ptr[17] << 0x08) & 0xff00);
 4001518:	e0bffc17 	ldw	r2,-16(fp)
 400151c:	10800444 	addi	r2,r2,17
 4001520:	10800003 	ldbu	r2,0(r2)
 4001524:	10803fcc 	andi	r2,r2,255
 4001528:	1080201c 	xori	r2,r2,128
 400152c:	10bfe004 	addi	r2,r2,-128
 4001530:	1004923a 	slli	r2,r2,8
 4001534:	10bfffcc 	andi	r2,r2,65535
				th2.duty0 = (((alt_u32)ptr[16] << 0x00) & 0xff) 	  |
 4001538:	1886b03a 	or	r3,r3,r2
 400153c:	00810074 	movhi	r2,1025
 4001540:	10cfb715 	stw	r3,16092(r2)

				th2.duty1 = (((alt_u32)ptr[18] << 0x00) & 0xff) 	  |
 4001544:	e0bffc17 	ldw	r2,-16(fp)
 4001548:	10800484 	addi	r2,r2,18
 400154c:	10800003 	ldbu	r2,0(r2)
 4001550:	10803fcc 	andi	r2,r2,255
 4001554:	1080201c 	xori	r2,r2,128
 4001558:	10bfe004 	addi	r2,r2,-128
 400155c:	10c03fcc 	andi	r3,r2,255
						 	(((alt_u32)ptr[19] << 0x08) & 0xff00);
 4001560:	e0bffc17 	ldw	r2,-16(fp)
 4001564:	108004c4 	addi	r2,r2,19
 4001568:	10800003 	ldbu	r2,0(r2)
 400156c:	10803fcc 	andi	r2,r2,255
 4001570:	1080201c 	xori	r2,r2,128
 4001574:	10bfe004 	addi	r2,r2,-128
 4001578:	1004923a 	slli	r2,r2,8
 400157c:	10bfffcc 	andi	r2,r2,65535
				th2.duty1 = (((alt_u32)ptr[18] << 0x00) & 0xff) 	  |
 4001580:	1886b03a 	or	r3,r3,r2
 4001584:	00810074 	movhi	r2,1025
 4001588:	10cfb815 	stw	r3,16096(r2)

				break;
 400158c:	0000ff06 	br	400198c <_ISR_uart0+0x974>

			case CGET:
				i = buffer_post;
 4001590:	d0a2f703 	ldbu	r2,-29732(gp)
 4001594:	10803fcc 	andi	r2,r2,255
 4001598:	d0a2f815 	stw	r2,-29728(gp)

				buffer[i++] = ((sampling_period_ms >> 0x00) & 0xff);
 400159c:	d1200017 	ldw	r4,-32768(gp)
 40015a0:	d0e2f817 	ldw	r3,-29728(gp)
 40015a4:	18800044 	addi	r2,r3,1
 40015a8:	d0a2f815 	stw	r2,-29728(gp)
 40015ac:	00810074 	movhi	r2,1025
 40015b0:	1885883a 	add	r2,r3,r2
 40015b4:	110fb905 	stb	r4,16100(r2)
				buffer[i++] = ((sampling_period_ms >> 0x08) & 0xff);
 40015b8:	d0a00017 	ldw	r2,-32768(gp)
 40015bc:	1008d23a 	srli	r4,r2,8
 40015c0:	d0e2f817 	ldw	r3,-29728(gp)
 40015c4:	18800044 	addi	r2,r3,1
 40015c8:	d0a2f815 	stw	r2,-29728(gp)
 40015cc:	00810074 	movhi	r2,1025
 40015d0:	1885883a 	add	r2,r3,r2
 40015d4:	110fb905 	stb	r4,16100(r2)
				buffer[i++] = ((sampling_period_ms >> 0x16) & 0xff);
 40015d8:	d0a00017 	ldw	r2,-32768(gp)
 40015dc:	1008d5ba 	srli	r4,r2,22
 40015e0:	d0e2f817 	ldw	r3,-29728(gp)
 40015e4:	18800044 	addi	r2,r3,1
 40015e8:	d0a2f815 	stw	r2,-29728(gp)
 40015ec:	00810074 	movhi	r2,1025
 40015f0:	1885883a 	add	r2,r3,r2
 40015f4:	110fb905 	stb	r4,16100(r2)
				buffer[i++] = ((sampling_period_ms >> 0x18) & 0xff);
 40015f8:	d0a00017 	ldw	r2,-32768(gp)
 40015fc:	1008d63a 	srli	r4,r2,24
 4001600:	d0e2f817 	ldw	r3,-29728(gp)
 4001604:	18800044 	addi	r2,r3,1
 4001608:	d0a2f815 	stw	r2,-29728(gp)
 400160c:	00810074 	movhi	r2,1025
 4001610:	1885883a 	add	r2,r3,r2
 4001614:	110fb905 	stb	r4,16100(r2)

				buffer[i++] = (avg_each_count & 0xff);
 4001618:	d1200117 	ldw	r4,-32764(gp)
 400161c:	d0e2f817 	ldw	r3,-29728(gp)
 4001620:	18800044 	addi	r2,r3,1
 4001624:	d0a2f815 	stw	r2,-29728(gp)
 4001628:	00810074 	movhi	r2,1025
 400162c:	1885883a 	add	r2,r3,r2
 4001630:	110fb905 	stb	r4,16100(r2)

				buffer[i++] = (th0.value & 0xff);
 4001634:	00810074 	movhi	r2,1025
 4001638:	110fb003 	ldbu	r4,16064(r2)
 400163c:	d0e2f817 	ldw	r3,-29728(gp)
 4001640:	18800044 	addi	r2,r3,1
 4001644:	d0a2f815 	stw	r2,-29728(gp)
 4001648:	00810074 	movhi	r2,1025
 400164c:	1885883a 	add	r2,r3,r2
 4001650:	110fb905 	stb	r4,16100(r2)
				buffer[i++] = ((th0.duty0 >> 0x00) & 0xff);
 4001654:	00810074 	movhi	r2,1025
 4001658:	110fb117 	ldw	r4,16068(r2)
 400165c:	d0e2f817 	ldw	r3,-29728(gp)
 4001660:	18800044 	addi	r2,r3,1
 4001664:	d0a2f815 	stw	r2,-29728(gp)
 4001668:	00810074 	movhi	r2,1025
 400166c:	1885883a 	add	r2,r3,r2
 4001670:	110fb905 	stb	r4,16100(r2)
				buffer[i++] = ((th0.duty0 >> 0x08) & 0xff);
 4001674:	00810074 	movhi	r2,1025
 4001678:	108fb117 	ldw	r2,16068(r2)
 400167c:	1008d23a 	srli	r4,r2,8
 4001680:	d0e2f817 	ldw	r3,-29728(gp)
 4001684:	18800044 	addi	r2,r3,1
 4001688:	d0a2f815 	stw	r2,-29728(gp)
 400168c:	00810074 	movhi	r2,1025
 4001690:	1885883a 	add	r2,r3,r2
 4001694:	110fb905 	stb	r4,16100(r2)
				buffer[i++] = ((th0.duty1 >> 0x00) & 0xff);
 4001698:	00810074 	movhi	r2,1025
 400169c:	110fb217 	ldw	r4,16072(r2)
 40016a0:	d0e2f817 	ldw	r3,-29728(gp)
 40016a4:	18800044 	addi	r2,r3,1
 40016a8:	d0a2f815 	stw	r2,-29728(gp)
 40016ac:	00810074 	movhi	r2,1025
 40016b0:	1885883a 	add	r2,r3,r2
 40016b4:	110fb905 	stb	r4,16100(r2)
				buffer[i++] = ((th0.duty1 >> 0x08) & 0xff);
 40016b8:	00810074 	movhi	r2,1025
 40016bc:	108fb217 	ldw	r2,16072(r2)
 40016c0:	1008d23a 	srli	r4,r2,8
 40016c4:	d0e2f817 	ldw	r3,-29728(gp)
 40016c8:	18800044 	addi	r2,r3,1
 40016cc:	d0a2f815 	stw	r2,-29728(gp)
 40016d0:	00810074 	movhi	r2,1025
 40016d4:	1885883a 	add	r2,r3,r2
 40016d8:	110fb905 	stb	r4,16100(r2)

				buffer[i++] = (th1.value & 0xff);
 40016dc:	00810074 	movhi	r2,1025
 40016e0:	110fb303 	ldbu	r4,16076(r2)
 40016e4:	d0e2f817 	ldw	r3,-29728(gp)
 40016e8:	18800044 	addi	r2,r3,1
 40016ec:	d0a2f815 	stw	r2,-29728(gp)
 40016f0:	00810074 	movhi	r2,1025
 40016f4:	1885883a 	add	r2,r3,r2
 40016f8:	110fb905 	stb	r4,16100(r2)
				buffer[i++] = ((th1.duty0 >> 0x00) & 0xff);
 40016fc:	00810074 	movhi	r2,1025
 4001700:	110fb417 	ldw	r4,16080(r2)
 4001704:	d0e2f817 	ldw	r3,-29728(gp)
 4001708:	18800044 	addi	r2,r3,1
 400170c:	d0a2f815 	stw	r2,-29728(gp)
 4001710:	00810074 	movhi	r2,1025
 4001714:	1885883a 	add	r2,r3,r2
 4001718:	110fb905 	stb	r4,16100(r2)
				buffer[i++] = ((th1.duty0 >> 0x08) & 0xff);
 400171c:	00810074 	movhi	r2,1025
 4001720:	108fb417 	ldw	r2,16080(r2)
 4001724:	1008d23a 	srli	r4,r2,8
 4001728:	d0e2f817 	ldw	r3,-29728(gp)
 400172c:	18800044 	addi	r2,r3,1
 4001730:	d0a2f815 	stw	r2,-29728(gp)
 4001734:	00810074 	movhi	r2,1025
 4001738:	1885883a 	add	r2,r3,r2
 400173c:	110fb905 	stb	r4,16100(r2)
				buffer[i++] = ((th1.duty1 >> 0x00) & 0xff);
 4001740:	00810074 	movhi	r2,1025
 4001744:	110fb517 	ldw	r4,16084(r2)
 4001748:	d0e2f817 	ldw	r3,-29728(gp)
 400174c:	18800044 	addi	r2,r3,1
 4001750:	d0a2f815 	stw	r2,-29728(gp)
 4001754:	00810074 	movhi	r2,1025
 4001758:	1885883a 	add	r2,r3,r2
 400175c:	110fb905 	stb	r4,16100(r2)
				buffer[i++] = ((th1.duty1 >> 0x08) & 0xff);
 4001760:	00810074 	movhi	r2,1025
 4001764:	108fb517 	ldw	r2,16084(r2)
 4001768:	1008d23a 	srli	r4,r2,8
 400176c:	d0e2f817 	ldw	r3,-29728(gp)
 4001770:	18800044 	addi	r2,r3,1
 4001774:	d0a2f815 	stw	r2,-29728(gp)
 4001778:	00810074 	movhi	r2,1025
 400177c:	1885883a 	add	r2,r3,r2
 4001780:	110fb905 	stb	r4,16100(r2)

				buffer[i++] = (th2.value & 0xff);
 4001784:	00810074 	movhi	r2,1025
 4001788:	110fb603 	ldbu	r4,16088(r2)
 400178c:	d0e2f817 	ldw	r3,-29728(gp)
 4001790:	18800044 	addi	r2,r3,1
 4001794:	d0a2f815 	stw	r2,-29728(gp)
 4001798:	00810074 	movhi	r2,1025
 400179c:	1885883a 	add	r2,r3,r2
 40017a0:	110fb905 	stb	r4,16100(r2)
				buffer[i++] = ((th2.duty0 >> 0x00) & 0xff);
 40017a4:	00810074 	movhi	r2,1025
 40017a8:	110fb717 	ldw	r4,16092(r2)
 40017ac:	d0e2f817 	ldw	r3,-29728(gp)
 40017b0:	18800044 	addi	r2,r3,1
 40017b4:	d0a2f815 	stw	r2,-29728(gp)
 40017b8:	00810074 	movhi	r2,1025
 40017bc:	1885883a 	add	r2,r3,r2
 40017c0:	110fb905 	stb	r4,16100(r2)
				buffer[i++] = ((th2.duty0 >> 0x08) & 0xff);
 40017c4:	00810074 	movhi	r2,1025
 40017c8:	108fb717 	ldw	r2,16092(r2)
 40017cc:	1008d23a 	srli	r4,r2,8
 40017d0:	d0e2f817 	ldw	r3,-29728(gp)
 40017d4:	18800044 	addi	r2,r3,1
 40017d8:	d0a2f815 	stw	r2,-29728(gp)
 40017dc:	00810074 	movhi	r2,1025
 40017e0:	1885883a 	add	r2,r3,r2
 40017e4:	110fb905 	stb	r4,16100(r2)
				buffer[i++] = ((th2.duty1 >> 0x00) & 0xff);
 40017e8:	00810074 	movhi	r2,1025
 40017ec:	110fb817 	ldw	r4,16096(r2)
 40017f0:	d0e2f817 	ldw	r3,-29728(gp)
 40017f4:	18800044 	addi	r2,r3,1
 40017f8:	d0a2f815 	stw	r2,-29728(gp)
 40017fc:	00810074 	movhi	r2,1025
 4001800:	1885883a 	add	r2,r3,r2
 4001804:	110fb905 	stb	r4,16100(r2)
				buffer[i++] = ((th2.duty1 >> 0x08) & 0xff);
 4001808:	00810074 	movhi	r2,1025
 400180c:	108fb817 	ldw	r2,16096(r2)
 4001810:	1008d23a 	srli	r4,r2,8
 4001814:	d0e2f817 	ldw	r3,-29728(gp)
 4001818:	18800044 	addi	r2,r3,1
 400181c:	d0a2f815 	stw	r2,-29728(gp)
 4001820:	00810074 	movhi	r2,1025
 4001824:	1885883a 	add	r2,r3,r2
 4001828:	110fb905 	stb	r4,16100(r2)

				gabriuart_send("CSEN", (i - buffer_post), (alt_u8 *)(buffer + buffer_post));
 400182c:	d0a2f817 	ldw	r2,-29728(gp)
 4001830:	1007883a 	mov	r3,r2
 4001834:	d0a2f703 	ldbu	r2,-29732(gp)
 4001838:	1885c83a 	sub	r2,r3,r2
 400183c:	11003fcc 	andi	r4,r2,255
 4001840:	d0a2f703 	ldbu	r2,-29732(gp)
 4001844:	10c03fcc 	andi	r3,r2,255
 4001848:	00810074 	movhi	r2,1025
 400184c:	108fb904 	addi	r2,r2,16100
 4001850:	1885883a 	add	r2,r3,r2
 4001854:	100d883a 	mov	r6,r2
 4001858:	200b883a 	mov	r5,r4
 400185c:	01010074 	movhi	r4,1025
 4001860:	21083d04 	addi	r4,r4,8436
 4001864:	40019e80 	call	40019e8 <gabriuart_send>
				break;
 4001868:	00004806 	br	400198c <_ISR_uart0+0x974>

			case HGET:

				// Sending chunks of 128 bytes each for a total of 2048 bytes
				addr = retrieve_history_address;
 400186c:	d0a2f517 	ldw	r2,-29740(gp)
 4001870:	e0bffe15 	stw	r2,-8(fp)
				for (i = 0; i < 16; i++) {
 4001874:	d022f815 	stw	zero,-29728(gp)
 4001878:	00003d06 	br	4001970 <_ISR_uart0+0x958>
					ptr = buffer + buffer_post;
 400187c:	d0a2f703 	ldbu	r2,-29732(gp)
 4001880:	10c03fcc 	andi	r3,r2,255
 4001884:	00810074 	movhi	r2,1025
 4001888:	108fb904 	addi	r2,r2,16100
 400188c:	1885883a 	add	r2,r3,r2
 4001890:	e0bffc15 	stw	r2,-16(fp)

					for (j = 0; j < 128 && addr != (history_address - 1); j++, ptr++) {
 4001894:	e03ffd15 	stw	zero,-12(fp)
 4001898:	00001506 	br	40018f0 <_ISR_uart0+0x8d8>
						*ptr = historymem_read(history0, addr++);
 400189c:	e0bffe17 	ldw	r2,-8(fp)
 40018a0:	10c00044 	addi	r3,r2,1
 40018a4:	e0fffe15 	stw	r3,-8(fp)
 40018a8:	10bfffcc 	andi	r2,r2,65535
 40018ac:	100d883a 	mov	r6,r2
 40018b0:	d122f217 	ldw	r4,-29752(gp)
 40018b4:	d162f317 	ldw	r5,-29748(gp)
 40018b8:	40004580 	call	4000458 <historymem_read>
 40018bc:	1007883a 	mov	r3,r2
 40018c0:	e0bffc17 	ldw	r2,-16(fp)
 40018c4:	10c00005 	stb	r3,0(r2)

						if (addr >= MAX_HISTORY_ADDRESS) {
 40018c8:	e0bffe17 	ldw	r2,-8(fp)
 40018cc:	1081ffd0 	cmplti	r2,r2,2047
 40018d0:	1000011e 	bne	r2,zero,40018d8 <_ISR_uart0+0x8c0>
							addr = 0;
 40018d4:	e03ffe15 	stw	zero,-8(fp)
					for (j = 0; j < 128 && addr != (history_address - 1); j++, ptr++) {
 40018d8:	e0bffd17 	ldw	r2,-12(fp)
 40018dc:	10800044 	addi	r2,r2,1
 40018e0:	e0bffd15 	stw	r2,-12(fp)
 40018e4:	e0bffc17 	ldw	r2,-16(fp)
 40018e8:	10800044 	addi	r2,r2,1
 40018ec:	e0bffc15 	stw	r2,-16(fp)
 40018f0:	e0bffd17 	ldw	r2,-12(fp)
 40018f4:	10802008 	cmpgei	r2,r2,128
 40018f8:	1000041e 	bne	r2,zero,400190c <_ISR_uart0+0x8f4>
 40018fc:	d0a2f417 	ldw	r2,-29744(gp)
 4001900:	10ffffc4 	addi	r3,r2,-1
 4001904:	e0bffe17 	ldw	r2,-8(fp)
 4001908:	18bfe41e 	bne	r3,r2,400189c <_ISR_uart0+0x884>
						}
					}

					gabriuart_send("HSEN", j, (alt_u8 *)(buffer + buffer_post));
 400190c:	e0bffd17 	ldw	r2,-12(fp)
 4001910:	11003fcc 	andi	r4,r2,255
 4001914:	d0a2f703 	ldbu	r2,-29732(gp)
 4001918:	10c03fcc 	andi	r3,r2,255
 400191c:	00810074 	movhi	r2,1025
 4001920:	108fb904 	addi	r2,r2,16100
 4001924:	1885883a 	add	r2,r3,r2
 4001928:	100d883a 	mov	r6,r2
 400192c:	200b883a 	mov	r5,r4
 4001930:	01010074 	movhi	r4,1025
 4001934:	21083f04 	addi	r4,r4,8444
 4001938:	40019e80 	call	40019e8 <gabriuart_send>
					j = alt_timestamp_start();
 400193c:	40115100 	call	4011510 <alt_timestamp_start>
 4001940:	e0bffd15 	stw	r2,-12(fp)
					while(alt_timestamp() - j < INTERHISTORY_SEND_PAUSE); // A little pause to not flood the serial, maybe the client is too slow to read
 4001944:	0001883a 	nop
 4001948:	40115880 	call	4011588 <alt_timestamp>
 400194c:	1007883a 	mov	r3,r2
 4001950:	e0bffd17 	ldw	r2,-12(fp)
 4001954:	1887c83a 	sub	r3,r3,r2
 4001958:	008003f4 	movhi	r2,15
 400195c:	10908fc4 	addi	r2,r2,16959
 4001960:	10fff92e 	bgeu	r2,r3,4001948 <_ISR_uart0+0x930>
				for (i = 0; i < 16; i++) {
 4001964:	d0a2f817 	ldw	r2,-29728(gp)
 4001968:	10800044 	addi	r2,r2,1
 400196c:	d0a2f815 	stw	r2,-29728(gp)
 4001970:	d0a2f817 	ldw	r2,-29728(gp)
 4001974:	10800410 	cmplti	r2,r2,16
 4001978:	103fc01e 	bne	r2,zero,400187c <_ISR_uart0+0x864>
				}

				break;
 400197c:	00000306 	br	400198c <_ISR_uart0+0x974>

			case LIVE:
				// If a client sends this, it means that it's still alive. It has to send it periodically
				lost_acks = 0;
 4001980:	d022f615 	stw	zero,-29736(gp)
				break;
 4001984:	00000106 	br	400198c <_ISR_uart0+0x974>
			}
		}
 4001988:	0001883a 	nop

		buffer_post = 0;
 400198c:	d022f705 	stb	zero,-29732(gp)
		is_stx = false;
 4001990:	d022f915 	stw	zero,-29724(gp)
		while ((((*((int *)UART_0_BASE + 2)) >> 6) & 0x1) != 1);
		*((int *)UART_0_BASE + 1) = (ch & 0xff);

		buffer_post = 0;
	}
}
 4001994:	00000e06 	br	40019d0 <_ISR_uart0+0x9b8>
	} else if (!is_stx) {
 4001998:	d0a2f917 	ldw	r2,-29724(gp)
 400199c:	10000c1e 	bne	r2,zero,40019d0 <_ISR_uart0+0x9b8>
		while ((((*((int *)UART_0_BASE + 2)) >> 6) & 0x1) != 1);
 40019a0:	0001883a 	nop
 40019a4:	00840034 	movhi	r2,4096
 40019a8:	10800a04 	addi	r2,r2,40
 40019ac:	10800017 	ldw	r2,0(r2)
 40019b0:	1080100c 	andi	r2,r2,64
 40019b4:	103ffb26 	beq	r2,zero,40019a4 <_ISR_uart0+0x98c>
		*((int *)UART_0_BASE + 1) = (ch & 0xff);
 40019b8:	e0fffac7 	ldb	r3,-21(fp)
 40019bc:	00840034 	movhi	r2,4096
 40019c0:	10800904 	addi	r2,r2,36
 40019c4:	18c03fcc 	andi	r3,r3,255
 40019c8:	10c00015 	stw	r3,0(r2)
		buffer_post = 0;
 40019cc:	d022f705 	stb	zero,-29732(gp)
}
 40019d0:	0001883a 	nop
 40019d4:	e037883a 	mov	sp,fp
 40019d8:	dfc00117 	ldw	ra,4(sp)
 40019dc:	df000017 	ldw	fp,0(sp)
 40019e0:	dec00204 	addi	sp,sp,8
 40019e4:	f800283a 	ret

040019e8 <gabriuart_send>:

void gabriuart_send(char *cmd, alt_u8 length, alt_u8 *data) {
 40019e8:	defff904 	addi	sp,sp,-28
 40019ec:	dfc00615 	stw	ra,24(sp)
 40019f0:	df000515 	stw	fp,20(sp)
 40019f4:	df000504 	addi	fp,sp,20
 40019f8:	e13ffd15 	stw	r4,-12(fp)
 40019fc:	2805883a 	mov	r2,r5
 4001a00:	e1bffb15 	stw	r6,-20(fp)
 4001a04:	e0bffc05 	stb	r2,-16(fp)
	int checksum, i;

	checksum = gabriuart_checksum(gabriuart_cmd2_u32(cmd));
 4001a08:	e13ffd17 	ldw	r4,-12(fp)
 4001a0c:	4001b740 	call	4001b74 <gabriuart_cmd2_u32>
 4001a10:	1009883a 	mov	r4,r2
 4001a14:	4001b280 	call	4001b28 <gabriuart_checksum>
 4001a18:	10803fcc 	andi	r2,r2,255
 4001a1c:	e0bfff15 	stw	r2,-4(fp)
	for (i = 0; i < length; i++) {
 4001a20:	e03ffe15 	stw	zero,-8(fp)
 4001a24:	00000e06 	br	4001a60 <gabriuart_send+0x78>
		checksum += gabriuart_checksum((alt_u32)data[i] & 0xff);
 4001a28:	e0bffe17 	ldw	r2,-8(fp)
 4001a2c:	e0fffb17 	ldw	r3,-20(fp)
 4001a30:	1885883a 	add	r2,r3,r2
 4001a34:	10800003 	ldbu	r2,0(r2)
 4001a38:	10803fcc 	andi	r2,r2,255
 4001a3c:	1009883a 	mov	r4,r2
 4001a40:	4001b280 	call	4001b28 <gabriuart_checksum>
 4001a44:	10803fcc 	andi	r2,r2,255
 4001a48:	e0ffff17 	ldw	r3,-4(fp)
 4001a4c:	1885883a 	add	r2,r3,r2
 4001a50:	e0bfff15 	stw	r2,-4(fp)
	for (i = 0; i < length; i++) {
 4001a54:	e0bffe17 	ldw	r2,-8(fp)
 4001a58:	10800044 	addi	r2,r2,1
 4001a5c:	e0bffe15 	stw	r2,-8(fp)
 4001a60:	e0bffc03 	ldbu	r2,-16(fp)
 4001a64:	e0fffe17 	ldw	r3,-8(fp)
 4001a68:	18bfef16 	blt	r3,r2,4001a28 <gabriuart_send+0x40>
	}
	checksum &= 0x7f;
 4001a6c:	e0bfff17 	ldw	r2,-4(fp)
 4001a70:	10801fcc 	andi	r2,r2,127
 4001a74:	e0bfff15 	stw	r2,-4(fp)

	uprintf(uart0, "\x2\%s", cmd);
 4001a78:	d0a2ed17 	ldw	r2,-29772(gp)
 4001a7c:	e1bffd17 	ldw	r6,-12(fp)
 4001a80:	01410074 	movhi	r5,1025
 4001a84:	29484104 	addi	r5,r5,8452
 4001a88:	1009883a 	mov	r4,r2
 4001a8c:	40007f40 	call	40007f4 <uprintf>
	uputc(uart0, length); // length could be 0 so I need to sent it separately (uprintf doesn't handle \0 chars')
 4001a90:	d0a2ed17 	ldw	r2,-29772(gp)
 4001a94:	e0fffc03 	ldbu	r3,-16(fp)
 4001a98:	18c03fcc 	andi	r3,r3,255
 4001a9c:	18c0201c 	xori	r3,r3,128
 4001aa0:	18ffe004 	addi	r3,r3,-128
 4001aa4:	180b883a 	mov	r5,r3
 4001aa8:	1009883a 	mov	r4,r2
 4001aac:	40008ac0 	call	40008ac <uputc>
	for (i = 0; i < length; i++) {
 4001ab0:	e03ffe15 	stw	zero,-8(fp)
 4001ab4:	00000d06 	br	4001aec <gabriuart_send+0x104>
		uputc(uart0, data[i]);
 4001ab8:	d122ed17 	ldw	r4,-29772(gp)
 4001abc:	e0bffe17 	ldw	r2,-8(fp)
 4001ac0:	e0fffb17 	ldw	r3,-20(fp)
 4001ac4:	1885883a 	add	r2,r3,r2
 4001ac8:	10800003 	ldbu	r2,0(r2)
 4001acc:	10803fcc 	andi	r2,r2,255
 4001ad0:	1080201c 	xori	r2,r2,128
 4001ad4:	10bfe004 	addi	r2,r2,-128
 4001ad8:	100b883a 	mov	r5,r2
 4001adc:	40008ac0 	call	40008ac <uputc>
	for (i = 0; i < length; i++) {
 4001ae0:	e0bffe17 	ldw	r2,-8(fp)
 4001ae4:	10800044 	addi	r2,r2,1
 4001ae8:	e0bffe15 	stw	r2,-8(fp)
 4001aec:	e0bffc03 	ldbu	r2,-16(fp)
 4001af0:	e0fffe17 	ldw	r3,-8(fp)
 4001af4:	18bff016 	blt	r3,r2,4001ab8 <gabriuart_send+0xd0>
	}

	uprintf(uart0, "%c\x3\r\n", checksum);
 4001af8:	d0a2ed17 	ldw	r2,-29772(gp)
 4001afc:	e1bfff17 	ldw	r6,-4(fp)
 4001b00:	01410074 	movhi	r5,1025
 4001b04:	29484204 	addi	r5,r5,8456
 4001b08:	1009883a 	mov	r4,r2
 4001b0c:	40007f40 	call	40007f4 <uprintf>
}
 4001b10:	0001883a 	nop
 4001b14:	e037883a 	mov	sp,fp
 4001b18:	dfc00117 	ldw	ra,4(sp)
 4001b1c:	df000017 	ldw	fp,0(sp)
 4001b20:	dec00204 	addi	sp,sp,8
 4001b24:	f800283a 	ret

04001b28 <gabriuart_checksum>:

alt_u8 gabriuart_checksum(alt_u32 crc) {
 4001b28:	defffe04 	addi	sp,sp,-8
 4001b2c:	df000115 	stw	fp,4(sp)
 4001b30:	df000104 	addi	fp,sp,4
 4001b34:	e13fff15 	stw	r4,-4(fp)
	crc ^= crc >> 16;
 4001b38:	e0bfff17 	ldw	r2,-4(fp)
 4001b3c:	1004d43a 	srli	r2,r2,16
 4001b40:	e0ffff17 	ldw	r3,-4(fp)
 4001b44:	1884f03a 	xor	r2,r3,r2
 4001b48:	e0bfff15 	stw	r2,-4(fp)
	crc ^= crc >> 8;
 4001b4c:	e0bfff17 	ldw	r2,-4(fp)
 4001b50:	1004d23a 	srli	r2,r2,8
 4001b54:	e0ffff17 	ldw	r3,-4(fp)
 4001b58:	1884f03a 	xor	r2,r3,r2
 4001b5c:	e0bfff15 	stw	r2,-4(fp)

	return (alt_u8)crc;
 4001b60:	e0bfff17 	ldw	r2,-4(fp)
}
 4001b64:	e037883a 	mov	sp,fp
 4001b68:	df000017 	ldw	fp,0(sp)
 4001b6c:	dec00104 	addi	sp,sp,4
 4001b70:	f800283a 	ret

04001b74 <gabriuart_cmd2_u32>:

alt_u32 gabriuart_cmd2_u32(char *v) {
 4001b74:	defffe04 	addi	sp,sp,-8
 4001b78:	df000115 	stw	fp,4(sp)
 4001b7c:	df000104 	addi	fp,sp,4
 4001b80:	e13fff15 	stw	r4,-4(fp)
	return (alt_u32)v[3] << 24 |
 4001b84:	e0bfff17 	ldw	r2,-4(fp)
 4001b88:	108000c4 	addi	r2,r2,3
 4001b8c:	10800003 	ldbu	r2,0(r2)
 4001b90:	10803fcc 	andi	r2,r2,255
 4001b94:	1080201c 	xori	r2,r2,128
 4001b98:	10bfe004 	addi	r2,r2,-128
 4001b9c:	1006963a 	slli	r3,r2,24
		   (alt_u32)v[2] << 16 |
 4001ba0:	e0bfff17 	ldw	r2,-4(fp)
 4001ba4:	10800084 	addi	r2,r2,2
 4001ba8:	10800003 	ldbu	r2,0(r2)
 4001bac:	10803fcc 	andi	r2,r2,255
 4001bb0:	1080201c 	xori	r2,r2,128
 4001bb4:	10bfe004 	addi	r2,r2,-128
 4001bb8:	1004943a 	slli	r2,r2,16
	return (alt_u32)v[3] << 24 |
 4001bbc:	1886b03a 	or	r3,r3,r2
		   (alt_u32)v[1] << 8  |
 4001bc0:	e0bfff17 	ldw	r2,-4(fp)
 4001bc4:	10800044 	addi	r2,r2,1
 4001bc8:	10800003 	ldbu	r2,0(r2)
 4001bcc:	10803fcc 	andi	r2,r2,255
 4001bd0:	1080201c 	xori	r2,r2,128
 4001bd4:	10bfe004 	addi	r2,r2,-128
 4001bd8:	1004923a 	slli	r2,r2,8
		   (alt_u32)v[2] << 16 |
 4001bdc:	1886b03a 	or	r3,r3,r2
		   (alt_u32)v[0] << 0;
 4001be0:	e0bfff17 	ldw	r2,-4(fp)
 4001be4:	10800003 	ldbu	r2,0(r2)
 4001be8:	10803fcc 	andi	r2,r2,255
 4001bec:	1080201c 	xori	r2,r2,128
 4001bf0:	10bfe004 	addi	r2,r2,-128
		   (alt_u32)v[1] << 8  |
 4001bf4:	1884b03a 	or	r2,r3,r2
}
 4001bf8:	e037883a 	mov	sp,fp
 4001bfc:	df000017 	ldw	fp,0(sp)
 4001c00:	dec00104 	addi	sp,sp,4
 4001c04:	f800283a 	ret

04001c08 <history0_addr_get_update>:

alt_u16 history0_addr_get_update() {
 4001c08:	defffe04 	addi	sp,sp,-8
 4001c0c:	df000115 	stw	fp,4(sp)
 4001c10:	df000104 	addi	fp,sp,4
	alt_u16 ret_val;

	ret_val = history_address++;
 4001c14:	d0a2f417 	ldw	r2,-29744(gp)
 4001c18:	10c00044 	addi	r3,r2,1
 4001c1c:	d0e2f415 	stw	r3,-29744(gp)
 4001c20:	e0bfff8d 	sth	r2,-2(fp)
	if (history_address >= MAX_HISTORY_ADDRESS) {
 4001c24:	d0a2f417 	ldw	r2,-29744(gp)
 4001c28:	1081fff0 	cmpltui	r2,r2,2047
 4001c2c:	1000011e 	bne	r2,zero,4001c34 <history0_addr_get_update+0x2c>
		history_address = 0;
 4001c30:	d022f415 	stw	zero,-29744(gp)
	}

	if (history_address == retrieve_history_address) {
 4001c34:	d0e2f417 	ldw	r3,-29744(gp)
 4001c38:	d0a2f517 	ldw	r2,-29740(gp)
 4001c3c:	1880071e 	bne	r3,r2,4001c5c <history0_addr_get_update+0x54>
		retrieve_history_address++;
 4001c40:	d0a2f517 	ldw	r2,-29740(gp)
 4001c44:	10800044 	addi	r2,r2,1
 4001c48:	d0a2f515 	stw	r2,-29740(gp)
		if (retrieve_history_address >= MAX_HISTORY_ADDRESS) {
 4001c4c:	d0a2f517 	ldw	r2,-29740(gp)
 4001c50:	1081fff0 	cmpltui	r2,r2,2047
 4001c54:	1000011e 	bne	r2,zero,4001c5c <history0_addr_get_update+0x54>
			retrieve_history_address = 0;
 4001c58:	d022f515 	stw	zero,-29740(gp)
		}
	}

	return ret_val;
 4001c5c:	e0bfff8b 	ldhu	r2,-2(fp)
}
 4001c60:	e037883a 	mov	sp,fp
 4001c64:	df000017 	ldw	fp,0(sp)
 4001c68:	dec00104 	addi	sp,sp,4
 4001c6c:	f800283a 	ret

04001c70 <__divsi3>:
 4001c70:	20001a16 	blt	r4,zero,4001cdc <__divsi3+0x6c>
 4001c74:	000f883a 	mov	r7,zero
 4001c78:	2800020e 	bge	r5,zero,4001c84 <__divsi3+0x14>
 4001c7c:	014bc83a 	sub	r5,zero,r5
 4001c80:	39c0005c 	xori	r7,r7,1
 4001c84:	200d883a 	mov	r6,r4
 4001c88:	00c00044 	movi	r3,1
 4001c8c:	2900092e 	bgeu	r5,r4,4001cb4 <__divsi3+0x44>
 4001c90:	00800804 	movi	r2,32
 4001c94:	00c00044 	movi	r3,1
 4001c98:	00000106 	br	4001ca0 <__divsi3+0x30>
 4001c9c:	10001226 	beq	r2,zero,4001ce8 <__divsi3+0x78>
 4001ca0:	294b883a 	add	r5,r5,r5
 4001ca4:	10bfffc4 	addi	r2,r2,-1
 4001ca8:	18c7883a 	add	r3,r3,r3
 4001cac:	293ffb36 	bltu	r5,r4,4001c9c <__divsi3+0x2c>
 4001cb0:	18000d26 	beq	r3,zero,4001ce8 <__divsi3+0x78>
 4001cb4:	0005883a 	mov	r2,zero
 4001cb8:	31400236 	bltu	r6,r5,4001cc4 <__divsi3+0x54>
 4001cbc:	314dc83a 	sub	r6,r6,r5
 4001cc0:	10c4b03a 	or	r2,r2,r3
 4001cc4:	1806d07a 	srli	r3,r3,1
 4001cc8:	280ad07a 	srli	r5,r5,1
 4001ccc:	183ffa1e 	bne	r3,zero,4001cb8 <__divsi3+0x48>
 4001cd0:	38000126 	beq	r7,zero,4001cd8 <__divsi3+0x68>
 4001cd4:	0085c83a 	sub	r2,zero,r2
 4001cd8:	f800283a 	ret
 4001cdc:	0109c83a 	sub	r4,zero,r4
 4001ce0:	01c00044 	movi	r7,1
 4001ce4:	003fe406 	br	4001c78 <__divsi3+0x8>
 4001ce8:	0005883a 	mov	r2,zero
 4001cec:	003ff806 	br	4001cd0 <__divsi3+0x60>

04001cf0 <__modsi3>:
 4001cf0:	20001916 	blt	r4,zero,4001d58 <__modsi3+0x68>
 4001cf4:	000f883a 	mov	r7,zero
 4001cf8:	2005883a 	mov	r2,r4
 4001cfc:	2800010e 	bge	r5,zero,4001d04 <__modsi3+0x14>
 4001d00:	014bc83a 	sub	r5,zero,r5
 4001d04:	00c00044 	movi	r3,1
 4001d08:	2900092e 	bgeu	r5,r4,4001d30 <__modsi3+0x40>
 4001d0c:	01800804 	movi	r6,32
 4001d10:	00c00044 	movi	r3,1
 4001d14:	00000106 	br	4001d1c <__modsi3+0x2c>
 4001d18:	30000d26 	beq	r6,zero,4001d50 <__modsi3+0x60>
 4001d1c:	294b883a 	add	r5,r5,r5
 4001d20:	31bfffc4 	addi	r6,r6,-1
 4001d24:	18c7883a 	add	r3,r3,r3
 4001d28:	293ffb36 	bltu	r5,r4,4001d18 <__modsi3+0x28>
 4001d2c:	18000826 	beq	r3,zero,4001d50 <__modsi3+0x60>
 4001d30:	1806d07a 	srli	r3,r3,1
 4001d34:	11400136 	bltu	r2,r5,4001d3c <__modsi3+0x4c>
 4001d38:	1145c83a 	sub	r2,r2,r5
 4001d3c:	280ad07a 	srli	r5,r5,1
 4001d40:	183ffb1e 	bne	r3,zero,4001d30 <__modsi3+0x40>
 4001d44:	38000126 	beq	r7,zero,4001d4c <__modsi3+0x5c>
 4001d48:	0085c83a 	sub	r2,zero,r2
 4001d4c:	f800283a 	ret
 4001d50:	2005883a 	mov	r2,r4
 4001d54:	003ffb06 	br	4001d44 <__modsi3+0x54>
 4001d58:	0109c83a 	sub	r4,zero,r4
 4001d5c:	01c00044 	movi	r7,1
 4001d60:	003fe506 	br	4001cf8 <__modsi3+0x8>

04001d64 <__udivsi3>:
 4001d64:	200d883a 	mov	r6,r4
 4001d68:	2900152e 	bgeu	r5,r4,4001dc0 <__udivsi3+0x5c>
 4001d6c:	28001416 	blt	r5,zero,4001dc0 <__udivsi3+0x5c>
 4001d70:	00800804 	movi	r2,32
 4001d74:	00c00044 	movi	r3,1
 4001d78:	00000206 	br	4001d84 <__udivsi3+0x20>
 4001d7c:	10000e26 	beq	r2,zero,4001db8 <__udivsi3+0x54>
 4001d80:	28000516 	blt	r5,zero,4001d98 <__udivsi3+0x34>
 4001d84:	294b883a 	add	r5,r5,r5
 4001d88:	10bfffc4 	addi	r2,r2,-1
 4001d8c:	18c7883a 	add	r3,r3,r3
 4001d90:	293ffa36 	bltu	r5,r4,4001d7c <__udivsi3+0x18>
 4001d94:	18000826 	beq	r3,zero,4001db8 <__udivsi3+0x54>
 4001d98:	0005883a 	mov	r2,zero
 4001d9c:	31400236 	bltu	r6,r5,4001da8 <__udivsi3+0x44>
 4001da0:	314dc83a 	sub	r6,r6,r5
 4001da4:	10c4b03a 	or	r2,r2,r3
 4001da8:	1806d07a 	srli	r3,r3,1
 4001dac:	280ad07a 	srli	r5,r5,1
 4001db0:	183ffa1e 	bne	r3,zero,4001d9c <__udivsi3+0x38>
 4001db4:	f800283a 	ret
 4001db8:	0005883a 	mov	r2,zero
 4001dbc:	f800283a 	ret
 4001dc0:	00c00044 	movi	r3,1
 4001dc4:	003ff406 	br	4001d98 <__udivsi3+0x34>

04001dc8 <__umodsi3>:
 4001dc8:	2005883a 	mov	r2,r4
 4001dcc:	2900132e 	bgeu	r5,r4,4001e1c <__umodsi3+0x54>
 4001dd0:	28001216 	blt	r5,zero,4001e1c <__umodsi3+0x54>
 4001dd4:	01800804 	movi	r6,32
 4001dd8:	00c00044 	movi	r3,1
 4001ddc:	00000206 	br	4001de8 <__umodsi3+0x20>
 4001de0:	30000c26 	beq	r6,zero,4001e14 <__umodsi3+0x4c>
 4001de4:	28000516 	blt	r5,zero,4001dfc <__umodsi3+0x34>
 4001de8:	294b883a 	add	r5,r5,r5
 4001dec:	31bfffc4 	addi	r6,r6,-1
 4001df0:	18c7883a 	add	r3,r3,r3
 4001df4:	293ffa36 	bltu	r5,r4,4001de0 <__umodsi3+0x18>
 4001df8:	18000626 	beq	r3,zero,4001e14 <__umodsi3+0x4c>
 4001dfc:	1806d07a 	srli	r3,r3,1
 4001e00:	11400136 	bltu	r2,r5,4001e08 <__umodsi3+0x40>
 4001e04:	1145c83a 	sub	r2,r2,r5
 4001e08:	280ad07a 	srli	r5,r5,1
 4001e0c:	183ffb1e 	bne	r3,zero,4001dfc <__umodsi3+0x34>
 4001e10:	f800283a 	ret
 4001e14:	2005883a 	mov	r2,r4
 4001e18:	f800283a 	ret
 4001e1c:	00c00044 	movi	r3,1
 4001e20:	003ff606 	br	4001dfc <__umodsi3+0x34>

04001e24 <__mulsi3>:
 4001e24:	0005883a 	mov	r2,zero
 4001e28:	20000726 	beq	r4,zero,4001e48 <__mulsi3+0x24>
 4001e2c:	20c0004c 	andi	r3,r4,1
 4001e30:	2008d07a 	srli	r4,r4,1
 4001e34:	18000126 	beq	r3,zero,4001e3c <__mulsi3+0x18>
 4001e38:	1145883a 	add	r2,r2,r5
 4001e3c:	294b883a 	add	r5,r5,r5
 4001e40:	203ffa1e 	bne	r4,zero,4001e2c <__mulsi3+0x8>
 4001e44:	f800283a 	ret
 4001e48:	f800283a 	ret

04001e4c <__divsf3>:
 4001e4c:	defff604 	addi	sp,sp,-40
 4001e50:	2006d5fa 	srli	r3,r4,23
 4001e54:	dd400615 	stw	r21,24(sp)
 4001e58:	202ad7fa 	srli	r21,r4,31
 4001e5c:	00802034 	movhi	r2,128
 4001e60:	dc800315 	stw	r18,12(sp)
 4001e64:	dc000115 	stw	r16,4(sp)
 4001e68:	10bfffc4 	addi	r2,r2,-1
 4001e6c:	dfc00915 	stw	ra,36(sp)
 4001e70:	ddc00815 	stw	r23,32(sp)
 4001e74:	dd800715 	stw	r22,28(sp)
 4001e78:	dd000515 	stw	r20,20(sp)
 4001e7c:	dcc00415 	stw	r19,16(sp)
 4001e80:	dc400215 	stw	r17,8(sp)
 4001e84:	18c03fcc 	andi	r3,r3,255
 4001e88:	1120703a 	and	r16,r2,r4
 4001e8c:	a825883a 	mov	r18,r21
 4001e90:	18007b26 	beq	r3,zero,4002080 <__divsf3+0x234>
 4001e94:	18803fe0 	cmpeqi	r2,r3,255
 4001e98:	10007e1e 	bne	r2,zero,4002094 <__divsf3+0x248>
 4001e9c:	800490fa 	slli	r2,r16,3
 4001ea0:	1d3fe044 	addi	r20,r3,-127
 4001ea4:	0023883a 	mov	r17,zero
 4001ea8:	14010034 	orhi	r16,r2,1024
 4001eac:	002d883a 	mov	r22,zero
 4001eb0:	2806d5fa 	srli	r3,r5,23
 4001eb4:	01002034 	movhi	r4,128
 4001eb8:	213fffc4 	addi	r4,r4,-1
 4001ebc:	18c03fcc 	andi	r3,r3,255
 4001ec0:	282ed7fa 	srli	r23,r5,31
 4001ec4:	2166703a 	and	r19,r4,r5
 4001ec8:	18005326 	beq	r3,zero,4002018 <__divsf3+0x1cc>
 4001ecc:	18803fe0 	cmpeqi	r2,r3,255
 4001ed0:	10004d1e 	bne	r2,zero,4002008 <__divsf3+0x1bc>
 4001ed4:	980a90fa 	slli	r5,r19,3
 4001ed8:	18ffe044 	addi	r3,r3,-127
 4001edc:	a0e9c83a 	sub	r20,r20,r3
 4001ee0:	2cc10034 	orhi	r19,r5,1024
 4001ee4:	0007883a 	mov	r3,zero
 4001ee8:	1c62b03a 	or	r17,r3,r17
 4001eec:	882290ba 	slli	r17,r17,2
 4001ef0:	00810034 	movhi	r2,1024
 4001ef4:	bd6af03a 	xor	r21,r23,r21
 4001ef8:	8885883a 	add	r2,r17,r2
 4001efc:	1087c217 	ldw	r2,7944(r2)
 4001f00:	a809883a 	mov	r4,r21
 4001f04:	1000683a 	jmp	r2
 4001f08:	040021cc 	andi	r16,zero,135
 4001f0c:	0400210c 	andi	r16,zero,132
 4001f10:	04001fbc 	xorhi	r16,zero,126
 4001f14:	04001f4c 	andi	r16,zero,125
 4001f18:	04001fbc 	xorhi	r16,zero,126
 4001f1c:	04002178 	rdprs	r16,zero,133
 4001f20:	04001fbc 	xorhi	r16,zero,126
 4001f24:	04001f4c 	andi	r16,zero,125
 4001f28:	0400210c 	andi	r16,zero,132
 4001f2c:	0400210c 	andi	r16,zero,132
 4001f30:	04002178 	rdprs	r16,zero,133
 4001f34:	04001f4c 	andi	r16,zero,125
 4001f38:	04001f58 	cmpnei	r16,zero,125
 4001f3c:	04001f58 	cmpnei	r16,zero,125
 4001f40:	04001f58 	cmpnei	r16,zero,125
 4001f44:	04002190 	cmplti	r16,zero,134
 4001f48:	0027883a 	mov	r19,zero
 4001f4c:	b825883a 	mov	r18,r23
 4001f50:	9821883a 	mov	r16,r19
 4001f54:	182d883a 	mov	r22,r3
 4001f58:	b08000a0 	cmpeqi	r2,r22,2
 4001f5c:	1000831e 	bne	r2,zero,400216c <__divsf3+0x320>
 4001f60:	b08000e0 	cmpeqi	r2,r22,3
 4001f64:	1000941e 	bne	r2,zero,40021b8 <__divsf3+0x36c>
 4001f68:	b5800060 	cmpeqi	r22,r22,1
 4001f6c:	b000141e 	bne	r22,zero,4001fc0 <__divsf3+0x174>
 4001f70:	a0801fc4 	addi	r2,r20,127
 4001f74:	0080690e 	bge	zero,r2,400211c <__divsf3+0x2d0>
 4001f78:	80c001cc 	andi	r3,r16,7
 4001f7c:	18000426 	beq	r3,zero,4001f90 <__divsf3+0x144>
 4001f80:	80c003cc 	andi	r3,r16,15
 4001f84:	18c00120 	cmpeqi	r3,r3,4
 4001f88:	1800011e 	bne	r3,zero,4001f90 <__divsf3+0x144>
 4001f8c:	84000104 	addi	r16,r16,4
 4001f90:	80c2002c 	andhi	r3,r16,2048
 4001f94:	18000426 	beq	r3,zero,4001fa8 <__divsf3+0x15c>
 4001f98:	00be0034 	movhi	r2,63488
 4001f9c:	10bfffc4 	addi	r2,r2,-1
 4001fa0:	80a0703a 	and	r16,r16,r2
 4001fa4:	a0802004 	addi	r2,r20,128
 4001fa8:	10c03fc8 	cmpgei	r3,r2,255
 4001fac:	18006f1e 	bne	r3,zero,400216c <__divsf3+0x320>
 4001fb0:	802091ba 	slli	r16,r16,6
 4001fb4:	8020d27a 	srli	r16,r16,9
 4001fb8:	00000306 	br	4001fc8 <__divsf3+0x17c>
 4001fbc:	a825883a 	mov	r18,r21
 4001fc0:	0005883a 	mov	r2,zero
 4001fc4:	0021883a 	mov	r16,zero
 4001fc8:	10803fcc 	andi	r2,r2,255
 4001fcc:	100495fa 	slli	r2,r2,23
 4001fd0:	902497fa 	slli	r18,r18,31
 4001fd4:	1404b03a 	or	r2,r2,r16
 4001fd8:	1484b03a 	or	r2,r2,r18
 4001fdc:	dfc00917 	ldw	ra,36(sp)
 4001fe0:	ddc00817 	ldw	r23,32(sp)
 4001fe4:	dd800717 	ldw	r22,28(sp)
 4001fe8:	dd400617 	ldw	r21,24(sp)
 4001fec:	dd000517 	ldw	r20,20(sp)
 4001ff0:	dcc00417 	ldw	r19,16(sp)
 4001ff4:	dc800317 	ldw	r18,12(sp)
 4001ff8:	dc400217 	ldw	r17,8(sp)
 4001ffc:	dc000117 	ldw	r16,4(sp)
 4002000:	dec00a04 	addi	sp,sp,40
 4002004:	f800283a 	ret
 4002008:	a53fc044 	addi	r20,r20,-255
 400200c:	98003d1e 	bne	r19,zero,4002104 <__divsf3+0x2b8>
 4002010:	00c00084 	movi	r3,2
 4002014:	00000206 	br	4002020 <__divsf3+0x1d4>
 4002018:	9800321e 	bne	r19,zero,40020e4 <__divsf3+0x298>
 400201c:	00c00044 	movi	r3,1
 4002020:	1c62b03a 	or	r17,r3,r17
 4002024:	882290ba 	slli	r17,r17,2
 4002028:	00810034 	movhi	r2,1024
 400202c:	bd6af03a 	xor	r21,r23,r21
 4002030:	8885883a 	add	r2,r17,r2
 4002034:	10881017 	ldw	r2,8256(r2)
 4002038:	a809883a 	mov	r4,r21
 400203c:	1000683a 	jmp	r2
 4002040:	0400210c 	andi	r16,zero,132
 4002044:	0400210c 	andi	r16,zero,132
 4002048:	04001fbc 	xorhi	r16,zero,126
 400204c:	04001f48 	cmpgei	r16,zero,125
 4002050:	04001fbc 	xorhi	r16,zero,126
 4002054:	04002178 	rdprs	r16,zero,133
 4002058:	04001fbc 	xorhi	r16,zero,126
 400205c:	04001f48 	cmpgei	r16,zero,125
 4002060:	0400210c 	andi	r16,zero,132
 4002064:	0400210c 	andi	r16,zero,132
 4002068:	04002178 	rdprs	r16,zero,133
 400206c:	04001f48 	cmpgei	r16,zero,125
 4002070:	04001f58 	cmpnei	r16,zero,125
 4002074:	04001f58 	cmpnei	r16,zero,125
 4002078:	04001f58 	cmpnei	r16,zero,125
 400207c:	0400218c 	andi	r16,zero,134
 4002080:	80000d1e 	bne	r16,zero,40020b8 <__divsf3+0x26c>
 4002084:	04400104 	movi	r17,4
 4002088:	0029883a 	mov	r20,zero
 400208c:	05800044 	movi	r22,1
 4002090:	003f8706 	br	4001eb0 <__divsf3+0x64>
 4002094:	8000041e 	bne	r16,zero,40020a8 <__divsf3+0x25c>
 4002098:	04400204 	movi	r17,8
 400209c:	05003fc4 	movi	r20,255
 40020a0:	05800084 	movi	r22,2
 40020a4:	003f8206 	br	4001eb0 <__divsf3+0x64>
 40020a8:	04400304 	movi	r17,12
 40020ac:	05003fc4 	movi	r20,255
 40020b0:	058000c4 	movi	r22,3
 40020b4:	003f7e06 	br	4001eb0 <__divsf3+0x64>
 40020b8:	8009883a 	mov	r4,r16
 40020bc:	d9400015 	stw	r5,0(sp)
 40020c0:	40025880 	call	4002588 <__clzsi2>
 40020c4:	10fffec4 	addi	r3,r2,-5
 40020c8:	80e0983a 	sll	r16,r16,r3
 40020cc:	00ffe284 	movi	r3,-118
 40020d0:	d9400017 	ldw	r5,0(sp)
 40020d4:	18a9c83a 	sub	r20,r3,r2
 40020d8:	0023883a 	mov	r17,zero
 40020dc:	002d883a 	mov	r22,zero
 40020e0:	003f7306 	br	4001eb0 <__divsf3+0x64>
 40020e4:	9809883a 	mov	r4,r19
 40020e8:	40025880 	call	4002588 <__clzsi2>
 40020ec:	a087883a 	add	r3,r20,r2
 40020f0:	113ffec4 	addi	r4,r2,-5
 40020f4:	1d001d84 	addi	r20,r3,118
 40020f8:	9926983a 	sll	r19,r19,r4
 40020fc:	0007883a 	mov	r3,zero
 4002100:	003f7906 	br	4001ee8 <__divsf3+0x9c>
 4002104:	00c000c4 	movi	r3,3
 4002108:	003f7706 	br	4001ee8 <__divsf3+0x9c>
 400210c:	2025883a 	mov	r18,r4
 4002110:	00bfffc4 	movi	r2,-1
 4002114:	0021883a 	mov	r16,zero
 4002118:	003fab06 	br	4001fc8 <__divsf3+0x17c>
 400211c:	00c00044 	movi	r3,1
 4002120:	1885c83a 	sub	r2,r3,r2
 4002124:	10c00708 	cmpgei	r3,r2,28
 4002128:	183fa51e 	bne	r3,zero,4001fc0 <__divsf3+0x174>
 400212c:	a0c02784 	addi	r3,r20,158
 4002130:	80c6983a 	sll	r3,r16,r3
 4002134:	8084d83a 	srl	r2,r16,r2
 4002138:	1820c03a 	cmpne	r16,r3,zero
 400213c:	1404b03a 	or	r2,r2,r16
 4002140:	10c001cc 	andi	r3,r2,7
 4002144:	18000426 	beq	r3,zero,4002158 <__divsf3+0x30c>
 4002148:	10c003cc 	andi	r3,r2,15
 400214c:	18c00120 	cmpeqi	r3,r3,4
 4002150:	1800011e 	bne	r3,zero,4002158 <__divsf3+0x30c>
 4002154:	10800104 	addi	r2,r2,4
 4002158:	10c1002c 	andhi	r3,r2,1024
 400215c:	18003426 	beq	r3,zero,4002230 <__divsf3+0x3e4>
 4002160:	00800044 	movi	r2,1
 4002164:	0021883a 	mov	r16,zero
 4002168:	003f9706 	br	4001fc8 <__divsf3+0x17c>
 400216c:	00bfffc4 	movi	r2,-1
 4002170:	0021883a 	mov	r16,zero
 4002174:	003f9406 	br	4001fc8 <__divsf3+0x17c>
 4002178:	04002034 	movhi	r16,128
 400217c:	0025883a 	mov	r18,zero
 4002180:	843fffc4 	addi	r16,r16,-1
 4002184:	00bfffc4 	movi	r2,-1
 4002188:	003f8f06 	br	4001fc8 <__divsf3+0x17c>
 400218c:	0027883a 	mov	r19,zero
 4002190:	8080102c 	andhi	r2,r16,64
 4002194:	10000826 	beq	r2,zero,40021b8 <__divsf3+0x36c>
 4002198:	9880102c 	andhi	r2,r19,64
 400219c:	1000061e 	bne	r2,zero,40021b8 <__divsf3+0x36c>
 40021a0:	00802034 	movhi	r2,128
 40021a4:	9c001034 	orhi	r16,r19,64
 40021a8:	10bfffc4 	addi	r2,r2,-1
 40021ac:	80a0703a 	and	r16,r16,r2
 40021b0:	b825883a 	mov	r18,r23
 40021b4:	003ff306 	br	4002184 <__divsf3+0x338>
 40021b8:	00802034 	movhi	r2,128
 40021bc:	84001034 	orhi	r16,r16,64
 40021c0:	10bfffc4 	addi	r2,r2,-1
 40021c4:	80a0703a 	and	r16,r16,r2
 40021c8:	003fee06 	br	4002184 <__divsf3+0x338>
 40021cc:	8004917a 	slli	r2,r16,5
 40021d0:	980a917a 	slli	r5,r19,5
 40021d4:	1140122e 	bgeu	r2,r5,4002220 <__divsf3+0x3d4>
 40021d8:	a53fffc4 	addi	r20,r20,-1
 40021dc:	010006c4 	movi	r4,27
 40021e0:	0021883a 	mov	r16,zero
 40021e4:	1007883a 	mov	r3,r2
 40021e8:	213fffc4 	addi	r4,r4,-1
 40021ec:	1085883a 	add	r2,r2,r2
 40021f0:	8421883a 	add	r16,r16,r16
 40021f4:	18000116 	blt	r3,zero,40021fc <__divsf3+0x3b0>
 40021f8:	11400236 	bltu	r2,r5,4002204 <__divsf3+0x3b8>
 40021fc:	1145c83a 	sub	r2,r2,r5
 4002200:	84000054 	ori	r16,r16,1
 4002204:	203ff71e 	bne	r4,zero,40021e4 <__divsf3+0x398>
 4002208:	1004c03a 	cmpne	r2,r2,zero
 400220c:	1420b03a 	or	r16,r2,r16
 4002210:	a0801fc4 	addi	r2,r20,127
 4002214:	a825883a 	mov	r18,r21
 4002218:	00bf5716 	blt	zero,r2,4001f78 <__divsf3+0x12c>
 400221c:	003fbf06 	br	400211c <__divsf3+0x2d0>
 4002220:	1145c83a 	sub	r2,r2,r5
 4002224:	01000684 	movi	r4,26
 4002228:	04000044 	movi	r16,1
 400222c:	003fed06 	br	40021e4 <__divsf3+0x398>
 4002230:	102091ba 	slli	r16,r2,6
 4002234:	0005883a 	mov	r2,zero
 4002238:	8020d27a 	srli	r16,r16,9
 400223c:	003f6206 	br	4001fc8 <__divsf3+0x17c>

04002240 <__gesf2>:
 4002240:	200cd5fa 	srli	r6,r4,23
 4002244:	280ed5fa 	srli	r7,r5,23
 4002248:	00c02034 	movhi	r3,128
 400224c:	31803fcc 	andi	r6,r6,255
 4002250:	18ffffc4 	addi	r3,r3,-1
 4002254:	32003fd8 	cmpnei	r8,r6,255
 4002258:	2012d7fa 	srli	r9,r4,31
 400225c:	2804d7fa 	srli	r2,r5,31
 4002260:	1908703a 	and	r4,r3,r4
 4002264:	1946703a 	and	r3,r3,r5
 4002268:	39403fcc 	andi	r5,r7,255
 400226c:	40000826 	beq	r8,zero,4002290 <__gesf2+0x50>
 4002270:	29c03fd8 	cmpnei	r7,r5,255
 4002274:	38000926 	beq	r7,zero,400229c <__gesf2+0x5c>
 4002278:	3000121e 	bne	r6,zero,40022c4 <__gesf2+0x84>
 400227c:	28000e1e 	bne	r5,zero,40022b8 <__gesf2+0x78>
 4002280:	18000d1e 	bne	r3,zero,40022b8 <__gesf2+0x78>
 4002284:	2000081e 	bne	r4,zero,40022a8 <__gesf2+0x68>
 4002288:	0005883a 	mov	r2,zero
 400228c:	f800283a 	ret
 4002290:	2000171e 	bne	r4,zero,40022f0 <__gesf2+0xb0>
 4002294:	29c03fe0 	cmpeqi	r7,r5,255
 4002298:	38000a26 	beq	r7,zero,40022c4 <__gesf2+0x84>
 400229c:	1800141e 	bne	r3,zero,40022f0 <__gesf2+0xb0>
 40022a0:	30000526 	beq	r6,zero,40022b8 <__gesf2+0x78>
 40022a4:	48800a26 	beq	r9,r2,40022d0 <__gesf2+0x90>
 40022a8:	00800044 	movi	r2,1
 40022ac:	48000426 	beq	r9,zero,40022c0 <__gesf2+0x80>
 40022b0:	00bfffc4 	movi	r2,-1
 40022b4:	f800283a 	ret
 40022b8:	203ffa1e 	bne	r4,zero,40022a4 <__gesf2+0x64>
 40022bc:	103ffc26 	beq	r2,zero,40022b0 <__gesf2+0x70>
 40022c0:	f800283a 	ret
 40022c4:	283ff71e 	bne	r5,zero,40022a4 <__gesf2+0x64>
 40022c8:	183ff61e 	bne	r3,zero,40022a4 <__gesf2+0x64>
 40022cc:	003ff606 	br	40022a8 <__gesf2+0x68>
 40022d0:	29800416 	blt	r5,r6,40022e4 <__gesf2+0xa4>
 40022d4:	317ff916 	blt	r6,r5,40022bc <__gesf2+0x7c>
 40022d8:	19000236 	bltu	r3,r4,40022e4 <__gesf2+0xa4>
 40022dc:	20ffea2e 	bgeu	r4,r3,4002288 <__gesf2+0x48>
 40022e0:	003ff606 	br	40022bc <__gesf2+0x7c>
 40022e4:	103ff21e 	bne	r2,zero,40022b0 <__gesf2+0x70>
 40022e8:	00800044 	movi	r2,1
 40022ec:	f800283a 	ret
 40022f0:	00bfff84 	movi	r2,-2
 40022f4:	f800283a 	ret

040022f8 <__fixsfsi>:
 40022f8:	200ad5fa 	srli	r5,r4,23
 40022fc:	00c02034 	movhi	r3,128
 4002300:	18ffffc4 	addi	r3,r3,-1
 4002304:	29403fcc 	andi	r5,r5,255
 4002308:	29801fd0 	cmplti	r6,r5,127
 400230c:	200ed7fa 	srli	r7,r4,31
 4002310:	1906703a 	and	r3,r3,r4
 4002314:	3000061e 	bne	r6,zero,4002330 <__fixsfsi+0x38>
 4002318:	28802790 	cmplti	r2,r5,158
 400231c:	1000061e 	bne	r2,zero,4002338 <__fixsfsi+0x40>
 4002320:	00a00034 	movhi	r2,32768
 4002324:	10bfffc4 	addi	r2,r2,-1
 4002328:	3885883a 	add	r2,r7,r2
 400232c:	f800283a 	ret
 4002330:	0005883a 	mov	r2,zero
 4002334:	f800283a 	ret
 4002338:	28802590 	cmplti	r2,r5,150
 400233c:	18c02034 	orhi	r3,r3,128
 4002340:	1000051e 	bne	r2,zero,4002358 <__fixsfsi+0x60>
 4002344:	28bfda84 	addi	r2,r5,-150
 4002348:	1884983a 	sll	r2,r3,r2
 400234c:	383ff926 	beq	r7,zero,4002334 <__fixsfsi+0x3c>
 4002350:	0085c83a 	sub	r2,zero,r2
 4002354:	f800283a 	ret
 4002358:	00802584 	movi	r2,150
 400235c:	1145c83a 	sub	r2,r2,r5
 4002360:	1884d83a 	srl	r2,r3,r2
 4002364:	003ff906 	br	400234c <__fixsfsi+0x54>

04002368 <__floatsisf>:
 4002368:	defffd04 	addi	sp,sp,-12
 400236c:	dfc00215 	stw	ra,8(sp)
 4002370:	dc400115 	stw	r17,4(sp)
 4002374:	dc000015 	stw	r16,0(sp)
 4002378:	20001226 	beq	r4,zero,40023c4 <__floatsisf+0x5c>
 400237c:	2022d7fa 	srli	r17,r4,31
 4002380:	2021883a 	mov	r16,r4
 4002384:	20003816 	blt	r4,zero,4002468 <__floatsisf+0x100>
 4002388:	8009883a 	mov	r4,r16
 400238c:	40025880 	call	4002588 <__clzsi2>
 4002390:	1009883a 	mov	r4,r2
 4002394:	00802784 	movi	r2,158
 4002398:	1105c83a 	sub	r2,r2,r4
 400239c:	10c025c8 	cmpgei	r3,r2,151
 40023a0:	1800151e 	bne	r3,zero,40023f8 <__floatsisf+0x90>
 40023a4:	20c00248 	cmpgei	r3,r4,9
 40023a8:	18003126 	beq	r3,zero,4002470 <__floatsisf+0x108>
 40023ac:	213ffe04 	addi	r4,r4,-8
 40023b0:	8120983a 	sll	r16,r16,r4
 40023b4:	00c02034 	movhi	r3,128
 40023b8:	18ffffc4 	addi	r3,r3,-1
 40023bc:	80e0703a 	and	r16,r16,r3
 40023c0:	00000306 	br	40023d0 <__floatsisf+0x68>
 40023c4:	0023883a 	mov	r17,zero
 40023c8:	0005883a 	mov	r2,zero
 40023cc:	0021883a 	mov	r16,zero
 40023d0:	10803fcc 	andi	r2,r2,255
 40023d4:	100495fa 	slli	r2,r2,23
 40023d8:	882297fa 	slli	r17,r17,31
 40023dc:	1404b03a 	or	r2,r2,r16
 40023e0:	1444b03a 	or	r2,r2,r17
 40023e4:	dfc00217 	ldw	ra,8(sp)
 40023e8:	dc400117 	ldw	r17,4(sp)
 40023ec:	dc000017 	ldw	r16,0(sp)
 40023f0:	dec00304 	addi	sp,sp,12
 40023f4:	f800283a 	ret
 40023f8:	10c02690 	cmplti	r3,r2,154
 40023fc:	1800071e 	bne	r3,zero,400241c <__floatsisf+0xb4>
 4002400:	20c006c4 	addi	r3,r4,27
 4002404:	01400144 	movi	r5,5
 4002408:	80c6983a 	sll	r3,r16,r3
 400240c:	290bc83a 	sub	r5,r5,r4
 4002410:	814ad83a 	srl	r5,r16,r5
 4002414:	1806c03a 	cmpne	r3,r3,zero
 4002418:	28e0b03a 	or	r16,r5,r3
 400241c:	20c00188 	cmpgei	r3,r4,6
 4002420:	1800171e 	bne	r3,zero,4002480 <__floatsisf+0x118>
 4002424:	00ff0034 	movhi	r3,64512
 4002428:	18ffffc4 	addi	r3,r3,-1
 400242c:	818001cc 	andi	r6,r16,7
 4002430:	80ca703a 	and	r5,r16,r3
 4002434:	30000926 	beq	r6,zero,400245c <__floatsisf+0xf4>
 4002438:	818003cc 	andi	r6,r16,15
 400243c:	31800120 	cmpeqi	r6,r6,4
 4002440:	3000061e 	bne	r6,zero,400245c <__floatsisf+0xf4>
 4002444:	29400104 	addi	r5,r5,4
 4002448:	2981002c 	andhi	r6,r5,1024
 400244c:	30000326 	beq	r6,zero,400245c <__floatsisf+0xf4>
 4002450:	28ca703a 	and	r5,r5,r3
 4002454:	00c027c4 	movi	r3,159
 4002458:	1905c83a 	sub	r2,r3,r4
 400245c:	282091ba 	slli	r16,r5,6
 4002460:	8020d27a 	srli	r16,r16,9
 4002464:	003fda06 	br	40023d0 <__floatsisf+0x68>
 4002468:	0121c83a 	sub	r16,zero,r4
 400246c:	003fc606 	br	4002388 <__floatsisf+0x20>
 4002470:	01002034 	movhi	r4,128
 4002474:	213fffc4 	addi	r4,r4,-1
 4002478:	8120703a 	and	r16,r16,r4
 400247c:	003fd406 	br	40023d0 <__floatsisf+0x68>
 4002480:	20fffec4 	addi	r3,r4,-5
 4002484:	80e0983a 	sll	r16,r16,r3
 4002488:	003fe606 	br	4002424 <__floatsisf+0xbc>

0400248c <__floatunsisf>:
 400248c:	defffe04 	addi	sp,sp,-8
 4002490:	dfc00115 	stw	ra,4(sp)
 4002494:	dc000015 	stw	r16,0(sp)
 4002498:	20000f26 	beq	r4,zero,40024d8 <__floatunsisf+0x4c>
 400249c:	2021883a 	mov	r16,r4
 40024a0:	40025880 	call	4002588 <__clzsi2>
 40024a4:	1009883a 	mov	r4,r2
 40024a8:	00802784 	movi	r2,158
 40024ac:	1105c83a 	sub	r2,r2,r4
 40024b0:	10c025c8 	cmpgei	r3,r2,151
 40024b4:	1800111e 	bne	r3,zero,40024fc <__floatunsisf+0x70>
 40024b8:	20c00248 	cmpgei	r3,r4,9
 40024bc:	18002b26 	beq	r3,zero,400256c <__floatunsisf+0xe0>
 40024c0:	213ffe04 	addi	r4,r4,-8
 40024c4:	8120983a 	sll	r16,r16,r4
 40024c8:	00c02034 	movhi	r3,128
 40024cc:	18ffffc4 	addi	r3,r3,-1
 40024d0:	80e0703a 	and	r16,r16,r3
 40024d4:	00000206 	br	40024e0 <__floatunsisf+0x54>
 40024d8:	0005883a 	mov	r2,zero
 40024dc:	0021883a 	mov	r16,zero
 40024e0:	10803fcc 	andi	r2,r2,255
 40024e4:	100495fa 	slli	r2,r2,23
 40024e8:	1404b03a 	or	r2,r2,r16
 40024ec:	dfc00117 	ldw	ra,4(sp)
 40024f0:	dc000017 	ldw	r16,0(sp)
 40024f4:	dec00204 	addi	sp,sp,8
 40024f8:	f800283a 	ret
 40024fc:	10c02690 	cmplti	r3,r2,154
 4002500:	1800071e 	bne	r3,zero,4002520 <__floatunsisf+0x94>
 4002504:	20c006c4 	addi	r3,r4,27
 4002508:	80ca983a 	sll	r5,r16,r3
 400250c:	00c00144 	movi	r3,5
 4002510:	1907c83a 	sub	r3,r3,r4
 4002514:	80e0d83a 	srl	r16,r16,r3
 4002518:	2806c03a 	cmpne	r3,r5,zero
 400251c:	1c20b03a 	or	r16,r3,r16
 4002520:	20c00188 	cmpgei	r3,r4,6
 4002524:	1800151e 	bne	r3,zero,400257c <__floatunsisf+0xf0>
 4002528:	00ff0034 	movhi	r3,64512
 400252c:	18ffffc4 	addi	r3,r3,-1
 4002530:	818001cc 	andi	r6,r16,7
 4002534:	80ca703a 	and	r5,r16,r3
 4002538:	30000926 	beq	r6,zero,4002560 <__floatunsisf+0xd4>
 400253c:	840003cc 	andi	r16,r16,15
 4002540:	84000120 	cmpeqi	r16,r16,4
 4002544:	8000061e 	bne	r16,zero,4002560 <__floatunsisf+0xd4>
 4002548:	29400104 	addi	r5,r5,4
 400254c:	2981002c 	andhi	r6,r5,1024
 4002550:	30000326 	beq	r6,zero,4002560 <__floatunsisf+0xd4>
 4002554:	28ca703a 	and	r5,r5,r3
 4002558:	00c027c4 	movi	r3,159
 400255c:	1905c83a 	sub	r2,r3,r4
 4002560:	282091ba 	slli	r16,r5,6
 4002564:	8020d27a 	srli	r16,r16,9
 4002568:	003fdd06 	br	40024e0 <__floatunsisf+0x54>
 400256c:	01002034 	movhi	r4,128
 4002570:	213fffc4 	addi	r4,r4,-1
 4002574:	8120703a 	and	r16,r16,r4
 4002578:	003fd906 	br	40024e0 <__floatunsisf+0x54>
 400257c:	20fffec4 	addi	r3,r4,-5
 4002580:	80e0983a 	sll	r16,r16,r3
 4002584:	003fe806 	br	4002528 <__floatunsisf+0x9c>

04002588 <__clzsi2>:
 4002588:	00bfffd4 	movui	r2,65535
 400258c:	11000436 	bltu	r2,r4,40025a0 <__clzsi2+0x18>
 4002590:	20804030 	cmpltui	r2,r4,256
 4002594:	10000e26 	beq	r2,zero,40025d0 <__clzsi2+0x48>
 4002598:	01400804 	movi	r5,32
 400259c:	00000406 	br	40025b0 <__clzsi2+0x28>
 40025a0:	00804034 	movhi	r2,256
 40025a4:	20800736 	bltu	r4,r2,40025c4 <__clzsi2+0x3c>
 40025a8:	2008d63a 	srli	r4,r4,24
 40025ac:	01400204 	movi	r5,8
 40025b0:	00c10074 	movhi	r3,1025
 40025b4:	20c7883a 	add	r3,r4,r3
 40025b8:	18884403 	ldbu	r2,8464(r3)
 40025bc:	2885c83a 	sub	r2,r5,r2
 40025c0:	f800283a 	ret
 40025c4:	2008d43a 	srli	r4,r4,16
 40025c8:	01400404 	movi	r5,16
 40025cc:	003ff806 	br	40025b0 <__clzsi2+0x28>
 40025d0:	2008d23a 	srli	r4,r4,8
 40025d4:	01400604 	movi	r5,24
 40025d8:	003ff506 	br	40025b0 <__clzsi2+0x28>

040025dc <_sprintf_r>:
 40025dc:	deffe404 	addi	sp,sp,-112
 40025e0:	2807883a 	mov	r3,r5
 40025e4:	dfc01a15 	stw	ra,104(sp)
 40025e8:	d9c01b15 	stw	r7,108(sp)
 40025ec:	00a00034 	movhi	r2,32768
 40025f0:	023ffff4 	movhi	r8,65535
 40025f4:	10bfffc4 	addi	r2,r2,-1
 40025f8:	42008204 	addi	r8,r8,520
 40025fc:	d9c01b04 	addi	r7,sp,108
 4002600:	d80b883a 	mov	r5,sp
 4002604:	d8c00015 	stw	r3,0(sp)
 4002608:	d8c00415 	stw	r3,16(sp)
 400260c:	d8800515 	stw	r2,20(sp)
 4002610:	d8800215 	stw	r2,8(sp)
 4002614:	da000315 	stw	r8,12(sp)
 4002618:	40026940 	call	4002694 <___svfprintf_internal_r>
 400261c:	d8c00017 	ldw	r3,0(sp)
 4002620:	18000005 	stb	zero,0(r3)
 4002624:	dfc01a17 	ldw	ra,104(sp)
 4002628:	dec01c04 	addi	sp,sp,112
 400262c:	f800283a 	ret

04002630 <sprintf>:
 4002630:	deffe304 	addi	sp,sp,-116
 4002634:	2007883a 	mov	r3,r4
 4002638:	dfc01a15 	stw	ra,104(sp)
 400263c:	d9801b15 	stw	r6,108(sp)
 4002640:	d9c01c15 	stw	r7,112(sp)
 4002644:	00810074 	movhi	r2,1025
 4002648:	110cad17 	ldw	r4,12980(r2)
 400264c:	023ffff4 	movhi	r8,65535
 4002650:	00a00034 	movhi	r2,32768
 4002654:	10bfffc4 	addi	r2,r2,-1
 4002658:	42008204 	addi	r8,r8,520
 400265c:	280d883a 	mov	r6,r5
 4002660:	d9c01b04 	addi	r7,sp,108
 4002664:	d80b883a 	mov	r5,sp
 4002668:	d8c00015 	stw	r3,0(sp)
 400266c:	d8c00415 	stw	r3,16(sp)
 4002670:	d8800515 	stw	r2,20(sp)
 4002674:	d8800215 	stw	r2,8(sp)
 4002678:	da000315 	stw	r8,12(sp)
 400267c:	40026940 	call	4002694 <___svfprintf_internal_r>
 4002680:	d8c00017 	ldw	r3,0(sp)
 4002684:	18000005 	stb	zero,0(r3)
 4002688:	dfc01a17 	ldw	ra,104(sp)
 400268c:	dec01d04 	addi	sp,sp,116
 4002690:	f800283a 	ret

04002694 <___svfprintf_internal_r>:
 4002694:	deffbf04 	addi	sp,sp,-260
 4002698:	dfc04015 	stw	ra,256(sp)
 400269c:	dd803d15 	stw	r22,244(sp)
 40026a0:	dcc03a15 	stw	r19,232(sp)
 40026a4:	dc803915 	stw	r18,228(sp)
 40026a8:	2027883a 	mov	r19,r4
 40026ac:	2825883a 	mov	r18,r5
 40026b0:	302d883a 	mov	r22,r6
 40026b4:	d9c00615 	stw	r7,24(sp)
 40026b8:	df003f15 	stw	fp,252(sp)
 40026bc:	ddc03e15 	stw	r23,248(sp)
 40026c0:	dd403c15 	stw	r21,240(sp)
 40026c4:	dd003b15 	stw	r20,236(sp)
 40026c8:	dc403815 	stw	r17,224(sp)
 40026cc:	dc003715 	stw	r16,220(sp)
 40026d0:	40060940 	call	4006094 <_localeconv_r>
 40026d4:	10800017 	ldw	r2,0(r2)
 40026d8:	1009883a 	mov	r4,r2
 40026dc:	d8800d15 	stw	r2,52(sp)
 40026e0:	4007ca40 	call	4007ca4 <strlen>
 40026e4:	90c0030b 	ldhu	r3,12(r18)
 40026e8:	d8800c15 	stw	r2,48(sp)
 40026ec:	18c0200c 	andi	r3,r3,128
 40026f0:	18000226 	beq	r3,zero,40026fc <___svfprintf_internal_r+0x68>
 40026f4:	90800417 	ldw	r2,16(r18)
 40026f8:	10051426 	beq	r2,zero,4003b4c <___svfprintf_internal_r+0x14b8>
 40026fc:	d8802704 	addi	r2,sp,156
 4002700:	b02f883a 	mov	r23,r22
 4002704:	d8801a15 	stw	r2,104(sp)
 4002708:	d8001c15 	stw	zero,112(sp)
 400270c:	d8001b15 	stw	zero,108(sp)
 4002710:	d8000815 	stw	zero,32(sp)
 4002714:	d8000915 	stw	zero,36(sp)
 4002718:	d8000a15 	stw	zero,40(sp)
 400271c:	d8000b15 	stw	zero,44(sp)
 4002720:	d8001015 	stw	zero,64(sp)
 4002724:	d8000515 	stw	zero,20(sp)
 4002728:	102d883a 	mov	r22,r2
 400272c:	b8800007 	ldb	r2,0(r23)
 4002730:	1000d726 	beq	r2,zero,4002a90 <___svfprintf_internal_r+0x3fc>
 4002734:	b821883a 	mov	r16,r23
 4002738:	00000306 	br	4002748 <___svfprintf_internal_r+0xb4>
 400273c:	80800047 	ldb	r2,1(r16)
 4002740:	84000044 	addi	r16,r16,1
 4002744:	10010826 	beq	r2,zero,4002b68 <___svfprintf_internal_r+0x4d4>
 4002748:	10800958 	cmpnei	r2,r2,37
 400274c:	103ffb1e 	bne	r2,zero,400273c <___svfprintf_internal_r+0xa8>
 4002750:	85e3c83a 	sub	r17,r16,r23
 4002754:	85c1061e 	bne	r16,r23,4002b70 <___svfprintf_internal_r+0x4dc>
 4002758:	80800003 	ldbu	r2,0(r16)
 400275c:	10803fcc 	andi	r2,r2,255
 4002760:	1080201c 	xori	r2,r2,128
 4002764:	10bfe004 	addi	r2,r2,-128
 4002768:	1000c926 	beq	r2,zero,4002a90 <___svfprintf_internal_r+0x3fc>
 400276c:	82c00047 	ldb	r11,1(r16)
 4002770:	85c00044 	addi	r23,r16,1
 4002774:	d8001345 	stb	zero,77(sp)
 4002778:	0009883a 	mov	r4,zero
 400277c:	000b883a 	mov	r5,zero
 4002780:	023fffc4 	movi	r8,-1
 4002784:	0021883a 	mov	r16,zero
 4002788:	0019883a 	mov	r12,zero
 400278c:	bdc00044 	addi	r23,r23,1
 4002790:	5839883a 	mov	fp,r11
 4002794:	e0bff804 	addi	r2,fp,-32
 4002798:	10c01668 	cmpgeui	r3,r2,89
 400279c:	18006c1e 	bne	r3,zero,4002950 <___svfprintf_internal_r+0x2bc>
 40027a0:	100490ba 	slli	r2,r2,2
 40027a4:	00c10034 	movhi	r3,1024
 40027a8:	10c7883a 	add	r3,r2,r3
 40027ac:	1889ed17 	ldw	r2,10164(r3)
 40027b0:	1000683a 	jmp	r2
 40027b4:	040030bc 	xorhi	r16,zero,194
 40027b8:	04002950 	cmplti	r16,zero,165
 40027bc:	04002950 	cmplti	r16,zero,165
 40027c0:	040030b0 	cmpltui	r16,zero,194
 40027c4:	04002950 	cmplti	r16,zero,165
 40027c8:	04002950 	cmplti	r16,zero,165
 40027cc:	04002950 	cmplti	r16,zero,165
 40027d0:	04002950 	cmplti	r16,zero,165
 40027d4:	04002950 	cmplti	r16,zero,165
 40027d8:	04002950 	cmplti	r16,zero,165
 40027dc:	04003088 	cmpgei	r16,zero,194
 40027e0:	04003078 	rdprs	r16,zero,193
 40027e4:	04002950 	cmplti	r16,zero,165
 40027e8:	04003060 	cmpeqi	r16,zero,193
 40027ec:	04003014 	movui	r16,192
 40027f0:	04002950 	cmplti	r16,zero,165
 40027f4:	04003008 	cmpgei	r16,zero,192
 40027f8:	04002918 	cmpnei	r16,zero,164
 40027fc:	04002918 	cmpnei	r16,zero,164
 4002800:	04002918 	cmpnei	r16,zero,164
 4002804:	04002918 	cmpnei	r16,zero,164
 4002808:	04002918 	cmpnei	r16,zero,164
 400280c:	04002918 	cmpnei	r16,zero,164
 4002810:	04002918 	cmpnei	r16,zero,164
 4002814:	04002918 	cmpnei	r16,zero,164
 4002818:	04002918 	cmpnei	r16,zero,164
 400281c:	04002950 	cmplti	r16,zero,165
 4002820:	04002950 	cmplti	r16,zero,165
 4002824:	04002950 	cmplti	r16,zero,165
 4002828:	04002950 	cmplti	r16,zero,165
 400282c:	04002950 	cmplti	r16,zero,165
 4002830:	04002950 	cmplti	r16,zero,165
 4002834:	04002950 	cmplti	r16,zero,165
 4002838:	04002950 	cmplti	r16,zero,165
 400283c:	04002950 	cmplti	r16,zero,165
 4002840:	04002950 	cmplti	r16,zero,165
 4002844:	04002efc 	xorhi	r16,zero,187
 4002848:	04002bcc 	andi	r16,zero,175
 400284c:	04002950 	cmplti	r16,zero,165
 4002850:	04002bcc 	andi	r16,zero,175
 4002854:	04002950 	cmplti	r16,zero,165
 4002858:	04002950 	cmplti	r16,zero,165
 400285c:	04002950 	cmplti	r16,zero,165
 4002860:	04002950 	cmplti	r16,zero,165
 4002864:	04002ef0 	cmpltui	r16,zero,187
 4002868:	04002950 	cmplti	r16,zero,165
 400286c:	04002950 	cmplti	r16,zero,165
 4002870:	04002b00 	call	4002b0 <__alt_mem_sdram_controller_0-0x3bffd50>
 4002874:	04002950 	cmplti	r16,zero,165
 4002878:	04002950 	cmplti	r16,zero,165
 400287c:	04002950 	cmplti	r16,zero,165
 4002880:	04002950 	cmplti	r16,zero,165
 4002884:	04002950 	cmplti	r16,zero,165
 4002888:	04002ad8 	cmpnei	r16,zero,171
 400288c:	04002950 	cmplti	r16,zero,165
 4002890:	04002950 	cmplti	r16,zero,165
 4002894:	040031b0 	cmpltui	r16,zero,198
 4002898:	04002950 	cmplti	r16,zero,165
 400289c:	04002950 	cmplti	r16,zero,165
 40028a0:	04002950 	cmplti	r16,zero,165
 40028a4:	04002950 	cmplti	r16,zero,165
 40028a8:	04002950 	cmplti	r16,zero,165
 40028ac:	04002950 	cmplti	r16,zero,165
 40028b0:	04002950 	cmplti	r16,zero,165
 40028b4:	04002950 	cmplti	r16,zero,165
 40028b8:	04002950 	cmplti	r16,zero,165
 40028bc:	04002950 	cmplti	r16,zero,165
 40028c0:	04003188 	cmpgei	r16,zero,198
 40028c4:	04002dd4 	movui	r16,183
 40028c8:	04002bcc 	andi	r16,zero,175
 40028cc:	04002bcc 	andi	r16,zero,175
 40028d0:	04002bcc 	andi	r16,zero,175
 40028d4:	04002e48 	cmpgei	r16,zero,185
 40028d8:	04002dd4 	movui	r16,183
 40028dc:	04002950 	cmplti	r16,zero,165
 40028e0:	04002950 	cmplti	r16,zero,165
 40028e4:	04002edc 	xori	r16,zero,187
 40028e8:	04002950 	cmplti	r16,zero,165
 40028ec:	04002ea0 	cmpeqi	r16,zero,186
 40028f0:	04002b04 	movi	r16,172
 40028f4:	04002e60 	cmpeqi	r16,zero,185
 40028f8:	04002e54 	movui	r16,185
 40028fc:	04002950 	cmplti	r16,zero,165
 4002900:	04003130 	cmpltui	r16,zero,196
 4002904:	04002950 	cmplti	r16,zero,165
 4002908:	04002adc 	xori	r16,zero,171
 400290c:	04002950 	cmplti	r16,zero,165
 4002910:	04002950 	cmplti	r16,zero,165
 4002914:	040030e8 	cmpgeui	r16,zero,195
 4002918:	0021883a 	mov	r16,zero
 400291c:	e0fff404 	addi	r3,fp,-48
 4002920:	800490ba 	slli	r2,r16,2
 4002924:	bf000007 	ldb	fp,0(r23)
 4002928:	bdc00044 	addi	r23,r23,1
 400292c:	1421883a 	add	r16,r2,r16
 4002930:	8421883a 	add	r16,r16,r16
 4002934:	1c21883a 	add	r16,r3,r16
 4002938:	e0fff404 	addi	r3,fp,-48
 400293c:	188002b0 	cmpltui	r2,r3,10
 4002940:	103ff71e 	bne	r2,zero,4002920 <___svfprintf_internal_r+0x28c>
 4002944:	e0bff804 	addi	r2,fp,-32
 4002948:	10c01668 	cmpgeui	r3,r2,89
 400294c:	183f9426 	beq	r3,zero,40027a0 <___svfprintf_internal_r+0x10c>
 4002950:	21003fcc 	andi	r4,r4,255
 4002954:	2006931e 	bne	r4,zero,40043a4 <___svfprintf_internal_r+0x1d10>
 4002958:	e0004d26 	beq	fp,zero,4002a90 <___svfprintf_internal_r+0x3fc>
 400295c:	df001d05 	stb	fp,116(sp)
 4002960:	d8001345 	stb	zero,77(sp)
 4002964:	05000044 	movi	r20,1
 4002968:	05400044 	movi	r21,1
 400296c:	dc401d04 	addi	r17,sp,116
 4002970:	db000415 	stw	r12,16(sp)
 4002974:	0011883a 	mov	r8,zero
 4002978:	d8000715 	stw	zero,28(sp)
 400297c:	d8800417 	ldw	r2,16(sp)
 4002980:	1380008c 	andi	r14,r2,2
 4002984:	70000126 	beq	r14,zero,400298c <___svfprintf_internal_r+0x2f8>
 4002988:	a5000084 	addi	r20,r20,2
 400298c:	d8800417 	ldw	r2,16(sp)
 4002990:	d8c01c17 	ldw	r3,112(sp)
 4002994:	1340210c 	andi	r13,r2,132
 4002998:	6800021e 	bne	r13,zero,40029a4 <___svfprintf_internal_r+0x310>
 400299c:	850fc83a 	sub	r7,r16,r20
 40029a0:	01c32b16 	blt	zero,r7,4003650 <___svfprintf_internal_r+0xfbc>
 40029a4:	d8801347 	ldb	r2,77(sp)
 40029a8:	10000c26 	beq	r2,zero,40029dc <___svfprintf_internal_r+0x348>
 40029ac:	d8801b17 	ldw	r2,108(sp)
 40029b0:	d9001344 	addi	r4,sp,77
 40029b4:	18c00044 	addi	r3,r3,1
 40029b8:	10800044 	addi	r2,r2,1
 40029bc:	b1000015 	stw	r4,0(r22)
 40029c0:	01000044 	movi	r4,1
 40029c4:	d8801b15 	stw	r2,108(sp)
 40029c8:	b1000115 	stw	r4,4(r22)
 40029cc:	d8c01c15 	stw	r3,112(sp)
 40029d0:	10800208 	cmpgei	r2,r2,8
 40029d4:	10035f1e 	bne	r2,zero,4003754 <___svfprintf_internal_r+0x10c0>
 40029d8:	b5800204 	addi	r22,r22,8
 40029dc:	70000c26 	beq	r14,zero,4002a10 <___svfprintf_internal_r+0x37c>
 40029e0:	d8801b17 	ldw	r2,108(sp)
 40029e4:	d9001384 	addi	r4,sp,78
 40029e8:	18c00084 	addi	r3,r3,2
 40029ec:	10800044 	addi	r2,r2,1
 40029f0:	b1000015 	stw	r4,0(r22)
 40029f4:	01000084 	movi	r4,2
 40029f8:	d8801b15 	stw	r2,108(sp)
 40029fc:	b1000115 	stw	r4,4(r22)
 4002a00:	d8c01c15 	stw	r3,112(sp)
 4002a04:	10800208 	cmpgei	r2,r2,8
 4002a08:	1003601e 	bne	r2,zero,400378c <___svfprintf_internal_r+0x10f8>
 4002a0c:	b5800204 	addi	r22,r22,8
 4002a10:	6b402018 	cmpnei	r13,r13,128
 4002a14:	68024126 	beq	r13,zero,400331c <___svfprintf_internal_r+0xc88>
 4002a18:	4551c83a 	sub	r8,r8,r21
 4002a1c:	02027916 	blt	zero,r8,4003404 <___svfprintf_internal_r+0xd70>
 4002a20:	d8800417 	ldw	r2,16(sp)
 4002a24:	1080400c 	andi	r2,r2,256
 4002a28:	1001f31e 	bne	r2,zero,40031f8 <___svfprintf_internal_r+0xb64>
 4002a2c:	d8801b17 	ldw	r2,108(sp)
 4002a30:	1d47883a 	add	r3,r3,r21
 4002a34:	b4400015 	stw	r17,0(r22)
 4002a38:	10800044 	addi	r2,r2,1
 4002a3c:	b5400115 	stw	r21,4(r22)
 4002a40:	d8801b15 	stw	r2,108(sp)
 4002a44:	d8c01c15 	stw	r3,112(sp)
 4002a48:	10800208 	cmpgei	r2,r2,8
 4002a4c:	1002f61e 	bne	r2,zero,4003628 <___svfprintf_internal_r+0xf94>
 4002a50:	b5800204 	addi	r22,r22,8
 4002a54:	d8800417 	ldw	r2,16(sp)
 4002a58:	1440010c 	andi	r17,r2,4
 4002a5c:	88000226 	beq	r17,zero,4002a68 <___svfprintf_internal_r+0x3d4>
 4002a60:	8523c83a 	sub	r17,r16,r20
 4002a64:	0440ac16 	blt	zero,r17,4002d18 <___svfprintf_internal_r+0x684>
 4002a68:	8500010e 	bge	r16,r20,4002a70 <___svfprintf_internal_r+0x3dc>
 4002a6c:	a021883a 	mov	r16,r20
 4002a70:	d8800517 	ldw	r2,20(sp)
 4002a74:	1405883a 	add	r2,r2,r16
 4002a78:	d8800515 	stw	r2,20(sp)
 4002a7c:	1802a81e 	bne	r3,zero,4003520 <___svfprintf_internal_r+0xe8c>
 4002a80:	b8800007 	ldb	r2,0(r23)
 4002a84:	d8001b15 	stw	zero,108(sp)
 4002a88:	dd802704 	addi	r22,sp,156
 4002a8c:	103f291e 	bne	r2,zero,4002734 <___svfprintf_internal_r+0xa0>
 4002a90:	d8801c17 	ldw	r2,112(sp)
 4002a94:	1006451e 	bne	r2,zero,40043ac <___svfprintf_internal_r+0x1d18>
 4002a98:	9080030b 	ldhu	r2,12(r18)
 4002a9c:	1080100c 	andi	r2,r2,64
 4002aa0:	1006e61e 	bne	r2,zero,400463c <___svfprintf_internal_r+0x1fa8>
 4002aa4:	d8800517 	ldw	r2,20(sp)
 4002aa8:	dfc04017 	ldw	ra,256(sp)
 4002aac:	df003f17 	ldw	fp,252(sp)
 4002ab0:	ddc03e17 	ldw	r23,248(sp)
 4002ab4:	dd803d17 	ldw	r22,244(sp)
 4002ab8:	dd403c17 	ldw	r21,240(sp)
 4002abc:	dd003b17 	ldw	r20,236(sp)
 4002ac0:	dcc03a17 	ldw	r19,232(sp)
 4002ac4:	dc803917 	ldw	r18,228(sp)
 4002ac8:	dc403817 	ldw	r17,224(sp)
 4002acc:	dc003717 	ldw	r16,220(sp)
 4002ad0:	dec04104 	addi	sp,sp,260
 4002ad4:	f800283a 	ret
 4002ad8:	63000414 	ori	r12,r12,16
 4002adc:	6080080c 	andi	r2,r12,32
 4002ae0:	10008126 	beq	r2,zero,4002ce8 <___svfprintf_internal_r+0x654>
 4002ae4:	d8c00617 	ldw	r3,24(sp)
 4002ae8:	00800044 	movi	r2,1
 4002aec:	1d000017 	ldw	r20,0(r3)
 4002af0:	1d400117 	ldw	r21,4(r3)
 4002af4:	18c00204 	addi	r3,r3,8
 4002af8:	d8c00615 	stw	r3,24(sp)
 4002afc:	00000906 	br	4002b24 <___svfprintf_internal_r+0x490>
 4002b00:	63000414 	ori	r12,r12,16
 4002b04:	6080080c 	andi	r2,r12,32
 4002b08:	10006b26 	beq	r2,zero,4002cb8 <___svfprintf_internal_r+0x624>
 4002b0c:	d8c00617 	ldw	r3,24(sp)
 4002b10:	0005883a 	mov	r2,zero
 4002b14:	1d000017 	ldw	r20,0(r3)
 4002b18:	1d400117 	ldw	r21,4(r3)
 4002b1c:	18c00204 	addi	r3,r3,8
 4002b20:	d8c00615 	stw	r3,24(sp)
 4002b24:	d8001345 	stb	zero,77(sp)
 4002b28:	40ffffe0 	cmpeqi	r3,r8,-1
 4002b2c:	001b883a 	mov	r13,zero
 4002b30:	18010d1e 	bne	r3,zero,4002f68 <___svfprintf_internal_r+0x8d4>
 4002b34:	047fdfc4 	movi	r17,-129
 4002b38:	6448703a 	and	r4,r12,r17
 4002b3c:	a546b03a 	or	r3,r20,r21
 4002b40:	d9000415 	stw	r4,16(sp)
 4002b44:	1802c01e 	bne	r3,zero,4003648 <___svfprintf_internal_r+0xfb4>
 4002b48:	40025f1e 	bne	r8,zero,40034c8 <___svfprintf_internal_r+0xe34>
 4002b4c:	1003821e 	bne	r2,zero,4003958 <___svfprintf_internal_r+0x12c4>
 4002b50:	6540004c 	andi	r21,r12,1
 4002b54:	a803be26 	beq	r21,zero,4003a50 <___svfprintf_internal_r+0x13bc>
 4002b58:	00800c04 	movi	r2,48
 4002b5c:	d88026c5 	stb	r2,155(sp)
 4002b60:	dc4026c4 	addi	r17,sp,155
 4002b64:	00011e06 	br	4002fe0 <___svfprintf_internal_r+0x94c>
 4002b68:	85e3c83a 	sub	r17,r16,r23
 4002b6c:	85ffc826 	beq	r16,r23,4002a90 <___svfprintf_internal_r+0x3fc>
 4002b70:	d8c01c17 	ldw	r3,112(sp)
 4002b74:	d8801b17 	ldw	r2,108(sp)
 4002b78:	b5c00015 	stw	r23,0(r22)
 4002b7c:	1c47883a 	add	r3,r3,r17
 4002b80:	10800044 	addi	r2,r2,1
 4002b84:	d8801b15 	stw	r2,108(sp)
 4002b88:	b4400115 	stw	r17,4(r22)
 4002b8c:	d8c01c15 	stw	r3,112(sp)
 4002b90:	10800208 	cmpgei	r2,r2,8
 4002b94:	1000061e 	bne	r2,zero,4002bb0 <___svfprintf_internal_r+0x51c>
 4002b98:	b5800204 	addi	r22,r22,8
 4002b9c:	d8c00517 	ldw	r3,20(sp)
 4002ba0:	80800003 	ldbu	r2,0(r16)
 4002ba4:	1c47883a 	add	r3,r3,r17
 4002ba8:	d8c00515 	stw	r3,20(sp)
 4002bac:	003eeb06 	br	400275c <___svfprintf_internal_r+0xc8>
 4002bb0:	d9801a04 	addi	r6,sp,104
 4002bb4:	900b883a 	mov	r5,r18
 4002bb8:	9809883a 	mov	r4,r19
 4002bbc:	4007d3c0 	call	4007d3c <__ssprint_r>
 4002bc0:	103fb51e 	bne	r2,zero,4002a98 <___svfprintf_internal_r+0x404>
 4002bc4:	dd802704 	addi	r22,sp,156
 4002bc8:	003ff406 	br	4002b9c <___svfprintf_internal_r+0x508>
 4002bcc:	21003fcc 	andi	r4,r4,255
 4002bd0:	2006641e 	bne	r4,zero,4004564 <___svfprintf_internal_r+0x1ed0>
 4002bd4:	d8c00617 	ldw	r3,24(sp)
 4002bd8:	6080020c 	andi	r2,r12,8
 4002bdc:	19000204 	addi	r4,r3,8
 4002be0:	d9000e15 	stw	r4,56(sp)
 4002be4:	1003b01e 	bne	r2,zero,4003aa8 <___svfprintf_internal_r+0x1414>
 4002be8:	d8800617 	ldw	r2,24(sp)
 4002bec:	10c00017 	ldw	r3,0(r2)
 4002bf0:	10800117 	ldw	r2,4(r2)
 4002bf4:	d8c00915 	stw	r3,36(sp)
 4002bf8:	d8800a15 	stw	r2,40(sp)
 4002bfc:	dd400a17 	ldw	r21,40(sp)
 4002c00:	dd000917 	ldw	r20,36(sp)
 4002c04:	00a00034 	movhi	r2,32768
 4002c08:	10bfffc4 	addi	r2,r2,-1
 4002c0c:	a8a2703a 	and	r17,r21,r2
 4002c10:	01dffc34 	movhi	r7,32752
 4002c14:	01bfffc4 	movi	r6,-1
 4002c18:	39ffffc4 	addi	r7,r7,-1
 4002c1c:	a009883a 	mov	r4,r20
 4002c20:	880b883a 	mov	r5,r17
 4002c24:	da000615 	stw	r8,24(sp)
 4002c28:	db000415 	stw	r12,16(sp)
 4002c2c:	401048c0 	call	401048c <__unorddf2>
 4002c30:	db000417 	ldw	r12,16(sp)
 4002c34:	da000617 	ldw	r8,24(sp)
 4002c38:	1004621e 	bne	r2,zero,4003dc4 <___svfprintf_internal_r+0x1730>
 4002c3c:	01dffc34 	movhi	r7,32752
 4002c40:	01bfffc4 	movi	r6,-1
 4002c44:	39ffffc4 	addi	r7,r7,-1
 4002c48:	a009883a 	mov	r4,r20
 4002c4c:	880b883a 	mov	r5,r17
 4002c50:	400f3440 	call	400f344 <__ledf2>
 4002c54:	db000417 	ldw	r12,16(sp)
 4002c58:	da000617 	ldw	r8,24(sp)
 4002c5c:	0084590e 	bge	zero,r2,4003dc4 <___svfprintf_internal_r+0x1730>
 4002c60:	000d883a 	mov	r6,zero
 4002c64:	000f883a 	mov	r7,zero
 4002c68:	a009883a 	mov	r4,r20
 4002c6c:	a80b883a 	mov	r5,r21
 4002c70:	400f3440 	call	400f344 <__ledf2>
 4002c74:	db000417 	ldw	r12,16(sp)
 4002c78:	1005ac16 	blt	r2,zero,400432c <___svfprintf_internal_r+0x1c98>
 4002c7c:	db401343 	ldbu	r13,77(sp)
 4002c80:	e0801210 	cmplti	r2,fp,72
 4002c84:	1005051e 	bne	r2,zero,400409c <___svfprintf_internal_r+0x1a08>
 4002c88:	04410074 	movhi	r17,1025
 4002c8c:	8c488504 	addi	r17,r17,8724
 4002c90:	00bfdfc4 	movi	r2,-129
 4002c94:	6084703a 	and	r2,r12,r2
 4002c98:	d8800415 	stw	r2,16(sp)
 4002c9c:	d8800e17 	ldw	r2,56(sp)
 4002ca0:	050000c4 	movi	r20,3
 4002ca4:	054000c4 	movi	r21,3
 4002ca8:	d8800615 	stw	r2,24(sp)
 4002cac:	0011883a 	mov	r8,zero
 4002cb0:	d8000715 	stw	zero,28(sp)
 4002cb4:	0000ce06 	br	4002ff0 <___svfprintf_internal_r+0x95c>
 4002cb8:	d9000617 	ldw	r4,24(sp)
 4002cbc:	6080040c 	andi	r2,r12,16
 4002cc0:	20c00104 	addi	r3,r4,4
 4002cc4:	1003641e 	bne	r2,zero,4003a58 <___svfprintf_internal_r+0x13c4>
 4002cc8:	6080100c 	andi	r2,r12,64
 4002ccc:	10053c26 	beq	r2,zero,40041c0 <___svfprintf_internal_r+0x1b2c>
 4002cd0:	d8800617 	ldw	r2,24(sp)
 4002cd4:	002b883a 	mov	r21,zero
 4002cd8:	d8c00615 	stw	r3,24(sp)
 4002cdc:	1500000b 	ldhu	r20,0(r2)
 4002ce0:	0005883a 	mov	r2,zero
 4002ce4:	003f8f06 	br	4002b24 <___svfprintf_internal_r+0x490>
 4002ce8:	d9000617 	ldw	r4,24(sp)
 4002cec:	6080040c 	andi	r2,r12,16
 4002cf0:	20c00104 	addi	r3,r4,4
 4002cf4:	1003621e 	bne	r2,zero,4003a80 <___svfprintf_internal_r+0x13ec>
 4002cf8:	6080100c 	andi	r2,r12,64
 4002cfc:	10052526 	beq	r2,zero,4004194 <___svfprintf_internal_r+0x1b00>
 4002d00:	d8800617 	ldw	r2,24(sp)
 4002d04:	002b883a 	mov	r21,zero
 4002d08:	d8c00615 	stw	r3,24(sp)
 4002d0c:	1500000b 	ldhu	r20,0(r2)
 4002d10:	00800044 	movi	r2,1
 4002d14:	003f8306 	br	4002b24 <___svfprintf_internal_r+0x490>
 4002d18:	03010074 	movhi	r12,1025
 4002d1c:	89000450 	cmplti	r4,r17,17
 4002d20:	d8801b17 	ldw	r2,108(sp)
 4002d24:	63089904 	addi	r12,r12,8804
 4002d28:	20001b1e 	bne	r4,zero,4002d98 <___svfprintf_internal_r+0x704>
 4002d2c:	05400404 	movi	r21,16
 4002d30:	6039883a 	mov	fp,r12
 4002d34:	00000406 	br	4002d48 <___svfprintf_internal_r+0x6b4>
 4002d38:	8c7ffc04 	addi	r17,r17,-16
 4002d3c:	89000448 	cmpgei	r4,r17,17
 4002d40:	b5800204 	addi	r22,r22,8
 4002d44:	20001326 	beq	r4,zero,4002d94 <___svfprintf_internal_r+0x700>
 4002d48:	10800044 	addi	r2,r2,1
 4002d4c:	18c00404 	addi	r3,r3,16
 4002d50:	b7000015 	stw	fp,0(r22)
 4002d54:	b5400115 	stw	r21,4(r22)
 4002d58:	d8c01c15 	stw	r3,112(sp)
 4002d5c:	d8801b15 	stw	r2,108(sp)
 4002d60:	11000208 	cmpgei	r4,r2,8
 4002d64:	203ff426 	beq	r4,zero,4002d38 <___svfprintf_internal_r+0x6a4>
 4002d68:	d9801a04 	addi	r6,sp,104
 4002d6c:	900b883a 	mov	r5,r18
 4002d70:	9809883a 	mov	r4,r19
 4002d74:	4007d3c0 	call	4007d3c <__ssprint_r>
 4002d78:	103f471e 	bne	r2,zero,4002a98 <___svfprintf_internal_r+0x404>
 4002d7c:	8c7ffc04 	addi	r17,r17,-16
 4002d80:	89000448 	cmpgei	r4,r17,17
 4002d84:	d8c01c17 	ldw	r3,112(sp)
 4002d88:	d8801b17 	ldw	r2,108(sp)
 4002d8c:	dd802704 	addi	r22,sp,156
 4002d90:	203fed1e 	bne	r4,zero,4002d48 <___svfprintf_internal_r+0x6b4>
 4002d94:	e019883a 	mov	r12,fp
 4002d98:	10800044 	addi	r2,r2,1
 4002d9c:	1c47883a 	add	r3,r3,r17
 4002da0:	d8801b15 	stw	r2,108(sp)
 4002da4:	b3000015 	stw	r12,0(r22)
 4002da8:	b4400115 	stw	r17,4(r22)
 4002dac:	d8c01c15 	stw	r3,112(sp)
 4002db0:	10800210 	cmplti	r2,r2,8
 4002db4:	103f2c1e 	bne	r2,zero,4002a68 <___svfprintf_internal_r+0x3d4>
 4002db8:	d9801a04 	addi	r6,sp,104
 4002dbc:	900b883a 	mov	r5,r18
 4002dc0:	9809883a 	mov	r4,r19
 4002dc4:	4007d3c0 	call	4007d3c <__ssprint_r>
 4002dc8:	103f331e 	bne	r2,zero,4002a98 <___svfprintf_internal_r+0x404>
 4002dcc:	d8c01c17 	ldw	r3,112(sp)
 4002dd0:	003f2506 	br	4002a68 <___svfprintf_internal_r+0x3d4>
 4002dd4:	21003fcc 	andi	r4,r4,255
 4002dd8:	2005e41e 	bne	r4,zero,400456c <___svfprintf_internal_r+0x1ed8>
 4002ddc:	6080080c 	andi	r2,r12,32
 4002de0:	10004b26 	beq	r2,zero,4002f10 <___svfprintf_internal_r+0x87c>
 4002de4:	d8c00617 	ldw	r3,24(sp)
 4002de8:	18800117 	ldw	r2,4(r3)
 4002dec:	1d000017 	ldw	r20,0(r3)
 4002df0:	18c00204 	addi	r3,r3,8
 4002df4:	d8c00615 	stw	r3,24(sp)
 4002df8:	102b883a 	mov	r21,r2
 4002dfc:	10005016 	blt	r2,zero,4002f40 <___svfprintf_internal_r+0x8ac>
 4002e00:	40bfffd8 	cmpnei	r2,r8,-1
 4002e04:	db401343 	ldbu	r13,77(sp)
 4002e08:	10000626 	beq	r2,zero,4002e24 <___svfprintf_internal_r+0x790>
 4002e0c:	047fdfc4 	movi	r17,-129
 4002e10:	6446703a 	and	r3,r12,r17
 4002e14:	a544b03a 	or	r2,r20,r21
 4002e18:	d8c00415 	stw	r3,16(sp)
 4002e1c:	1002cd26 	beq	r2,zero,4003954 <___svfprintf_internal_r+0x12c0>
 4002e20:	db000417 	ldw	r12,16(sp)
 4002e24:	a803781e 	bne	r21,zero,4003c08 <___svfprintf_internal_r+0x1574>
 4002e28:	a08002a8 	cmpgeui	r2,r20,10
 4002e2c:	1003761e 	bne	r2,zero,4003c08 <___svfprintf_internal_r+0x1574>
 4002e30:	a5000c04 	addi	r20,r20,48
 4002e34:	dd0026c5 	stb	r20,155(sp)
 4002e38:	db000415 	stw	r12,16(sp)
 4002e3c:	05400044 	movi	r21,1
 4002e40:	dc4026c4 	addi	r17,sp,155
 4002e44:	00006606 	br	4002fe0 <___svfprintf_internal_r+0x94c>
 4002e48:	bac00007 	ldb	r11,0(r23)
 4002e4c:	63001014 	ori	r12,r12,64
 4002e50:	003e4e06 	br	400278c <___svfprintf_internal_r+0xf8>
 4002e54:	bac00007 	ldb	r11,0(r23)
 4002e58:	63000814 	ori	r12,r12,32
 4002e5c:	003e4b06 	br	400278c <___svfprintf_internal_r+0xf8>
 4002e60:	d8c00617 	ldw	r3,24(sp)
 4002e64:	00800c04 	movi	r2,48
 4002e68:	d8801385 	stb	r2,78(sp)
 4002e6c:	00801e04 	movi	r2,120
 4002e70:	01010074 	movhi	r4,1025
 4002e74:	d88013c5 	stb	r2,79(sp)
 4002e78:	18800104 	addi	r2,r3,4
 4002e7c:	d8800615 	stw	r2,24(sp)
 4002e80:	20888804 	addi	r2,r4,8736
 4002e84:	d8800b15 	stw	r2,44(sp)
 4002e88:	1d000017 	ldw	r20,0(r3)
 4002e8c:	002b883a 	mov	r21,zero
 4002e90:	63000094 	ori	r12,r12,2
 4002e94:	00800084 	movi	r2,2
 4002e98:	07001e04 	movi	fp,120
 4002e9c:	003f2106 	br	4002b24 <___svfprintf_internal_r+0x490>
 4002ea0:	21003fcc 	andi	r4,r4,255
 4002ea4:	2005ab1e 	bne	r4,zero,4004554 <___svfprintf_internal_r+0x1ec0>
 4002ea8:	d9000617 	ldw	r4,24(sp)
 4002eac:	6080080c 	andi	r2,r12,32
 4002eb0:	20c00017 	ldw	r3,0(r4)
 4002eb4:	21000104 	addi	r4,r4,4
 4002eb8:	d9000615 	stw	r4,24(sp)
 4002ebc:	1002eb1e 	bne	r2,zero,4003a6c <___svfprintf_internal_r+0x13d8>
 4002ec0:	6080040c 	andi	r2,r12,16
 4002ec4:	1003781e 	bne	r2,zero,4003ca8 <___svfprintf_internal_r+0x1614>
 4002ec8:	6300100c 	andi	r12,r12,64
 4002ecc:	60037626 	beq	r12,zero,4003ca8 <___svfprintf_internal_r+0x1614>
 4002ed0:	d8800517 	ldw	r2,20(sp)
 4002ed4:	1880000d 	sth	r2,0(r3)
 4002ed8:	003e1406 	br	400272c <___svfprintf_internal_r+0x98>
 4002edc:	bac00007 	ldb	r11,0(r23)
 4002ee0:	58801b18 	cmpnei	r2,r11,108
 4002ee4:	10031026 	beq	r2,zero,4003b28 <___svfprintf_internal_r+0x1494>
 4002ee8:	63000414 	ori	r12,r12,16
 4002eec:	003e2706 	br	400278c <___svfprintf_internal_r+0xf8>
 4002ef0:	bac00007 	ldb	r11,0(r23)
 4002ef4:	63000214 	ori	r12,r12,8
 4002ef8:	003e2406 	br	400278c <___svfprintf_internal_r+0xf8>
 4002efc:	21003fcc 	andi	r4,r4,255
 4002f00:	2005921e 	bne	r4,zero,400454c <___svfprintf_internal_r+0x1eb8>
 4002f04:	63000414 	ori	r12,r12,16
 4002f08:	6080080c 	andi	r2,r12,32
 4002f0c:	103fb51e 	bne	r2,zero,4002de4 <___svfprintf_internal_r+0x750>
 4002f10:	d9000617 	ldw	r4,24(sp)
 4002f14:	6080040c 	andi	r2,r12,16
 4002f18:	20c00104 	addi	r3,r4,4
 4002f1c:	1002dd1e 	bne	r2,zero,4003a94 <___svfprintf_internal_r+0x1400>
 4002f20:	6080100c 	andi	r2,r12,64
 4002f24:	1004ac26 	beq	r2,zero,40041d8 <___svfprintf_internal_r+0x1b44>
 4002f28:	d8800617 	ldw	r2,24(sp)
 4002f2c:	d8c00615 	stw	r3,24(sp)
 4002f30:	1500000f 	ldh	r20,0(r2)
 4002f34:	a02bd7fa 	srai	r21,r20,31
 4002f38:	a805883a 	mov	r2,r21
 4002f3c:	103fb00e 	bge	r2,zero,4002e00 <___svfprintf_internal_r+0x76c>
 4002f40:	a004c03a 	cmpne	r2,r20,zero
 4002f44:	056bc83a 	sub	r21,zero,r21
 4002f48:	a8abc83a 	sub	r21,r21,r2
 4002f4c:	00800b44 	movi	r2,45
 4002f50:	d8801345 	stb	r2,77(sp)
 4002f54:	40ffffe0 	cmpeqi	r3,r8,-1
 4002f58:	0529c83a 	sub	r20,zero,r20
 4002f5c:	03400b44 	movi	r13,45
 4002f60:	00800044 	movi	r2,1
 4002f64:	183ef326 	beq	r3,zero,4002b34 <___svfprintf_internal_r+0x4a0>
 4002f68:	10c00060 	cmpeqi	r3,r2,1
 4002f6c:	183fad1e 	bne	r3,zero,4002e24 <___svfprintf_internal_r+0x790>
 4002f70:	108000a0 	cmpeqi	r2,r2,2
 4002f74:	1001591e 	bne	r2,zero,40034dc <___svfprintf_internal_r+0xe48>
 4002f78:	dc402704 	addi	r17,sp,156
 4002f7c:	a006d0fa 	srli	r3,r20,3
 4002f80:	a808977a 	slli	r4,r21,29
 4002f84:	a82ad0fa 	srli	r21,r21,3
 4002f88:	a50001cc 	andi	r20,r20,7
 4002f8c:	a0800c04 	addi	r2,r20,48
 4002f90:	20e8b03a 	or	r20,r4,r3
 4002f94:	88bfffc5 	stb	r2,-1(r17)
 4002f98:	a546b03a 	or	r3,r20,r21
 4002f9c:	880b883a 	mov	r5,r17
 4002fa0:	8c7fffc4 	addi	r17,r17,-1
 4002fa4:	183ff51e 	bne	r3,zero,4002f7c <___svfprintf_internal_r+0x8e8>
 4002fa8:	60c0004c 	andi	r3,r12,1
 4002fac:	18015826 	beq	r3,zero,4003510 <___svfprintf_internal_r+0xe7c>
 4002fb0:	10803fcc 	andi	r2,r2,255
 4002fb4:	1080201c 	xori	r2,r2,128
 4002fb8:	10bfe004 	addi	r2,r2,-128
 4002fbc:	10800c18 	cmpnei	r2,r2,48
 4002fc0:	10015326 	beq	r2,zero,4003510 <___svfprintf_internal_r+0xe7c>
 4002fc4:	00800c04 	movi	r2,48
 4002fc8:	297fff84 	addi	r5,r5,-2
 4002fcc:	88bfffc5 	stb	r2,-1(r17)
 4002fd0:	d8802704 	addi	r2,sp,156
 4002fd4:	116bc83a 	sub	r21,r2,r5
 4002fd8:	db000415 	stw	r12,16(sp)
 4002fdc:	2823883a 	mov	r17,r5
 4002fe0:	4029883a 	mov	r20,r8
 4002fe4:	4540010e 	bge	r8,r21,4002fec <___svfprintf_internal_r+0x958>
 4002fe8:	a829883a 	mov	r20,r21
 4002fec:	d8000715 	stw	zero,28(sp)
 4002ff0:	6b403fcc 	andi	r13,r13,255
 4002ff4:	6b40201c 	xori	r13,r13,128
 4002ff8:	6b7fe004 	addi	r13,r13,-128
 4002ffc:	683e5f26 	beq	r13,zero,400297c <___svfprintf_internal_r+0x2e8>
 4003000:	a5000044 	addi	r20,r20,1
 4003004:	003e5d06 	br	400297c <___svfprintf_internal_r+0x2e8>
 4003008:	bac00007 	ldb	r11,0(r23)
 400300c:	63002014 	ori	r12,r12,128
 4003010:	003dde06 	br	400278c <___svfprintf_internal_r+0xf8>
 4003014:	bf000007 	ldb	fp,0(r23)
 4003018:	b8800044 	addi	r2,r23,1
 400301c:	e0c00aa0 	cmpeqi	r3,fp,42
 4003020:	1805ac1e 	bne	r3,zero,40046d4 <___svfprintf_internal_r+0x2040>
 4003024:	e0fff404 	addi	r3,fp,-48
 4003028:	198002b0 	cmpltui	r6,r3,10
 400302c:	102f883a 	mov	r23,r2
 4003030:	0011883a 	mov	r8,zero
 4003034:	303dd726 	beq	r6,zero,4002794 <___svfprintf_internal_r+0x100>
 4003038:	400490ba 	slli	r2,r8,2
 400303c:	bf000007 	ldb	fp,0(r23)
 4003040:	bdc00044 	addi	r23,r23,1
 4003044:	1211883a 	add	r8,r2,r8
 4003048:	4211883a 	add	r8,r8,r8
 400304c:	40d1883a 	add	r8,r8,r3
 4003050:	e0fff404 	addi	r3,fp,-48
 4003054:	188002b0 	cmpltui	r2,r3,10
 4003058:	103ff71e 	bne	r2,zero,4003038 <___svfprintf_internal_r+0x9a4>
 400305c:	003dcd06 	br	4002794 <___svfprintf_internal_r+0x100>
 4003060:	bf000003 	ldbu	fp,0(r23)
 4003064:	e2c03fcc 	andi	r11,fp,255
 4003068:	5ac0201c 	xori	r11,r11,128
 400306c:	63000114 	ori	r12,r12,4
 4003070:	5affe004 	addi	r11,r11,-128
 4003074:	003dc506 	br	400278c <___svfprintf_internal_r+0xf8>
 4003078:	bac00007 	ldb	r11,0(r23)
 400307c:	01000044 	movi	r4,1
 4003080:	01400ac4 	movi	r5,43
 4003084:	003dc106 	br	400278c <___svfprintf_internal_r+0xf8>
 4003088:	d8800617 	ldw	r2,24(sp)
 400308c:	bf000003 	ldbu	fp,0(r23)
 4003090:	14000017 	ldw	r16,0(r2)
 4003094:	10800104 	addi	r2,r2,4
 4003098:	80029216 	blt	r16,zero,4003ae4 <___svfprintf_internal_r+0x1450>
 400309c:	d8800615 	stw	r2,24(sp)
 40030a0:	e2c03fcc 	andi	r11,fp,255
 40030a4:	5ac0201c 	xori	r11,r11,128
 40030a8:	5affe004 	addi	r11,r11,-128
 40030ac:	003db706 	br	400278c <___svfprintf_internal_r+0xf8>
 40030b0:	bac00007 	ldb	r11,0(r23)
 40030b4:	63000054 	ori	r12,r12,1
 40030b8:	003db406 	br	400278c <___svfprintf_internal_r+0xf8>
 40030bc:	28803fcc 	andi	r2,r5,255
 40030c0:	1080201c 	xori	r2,r2,128
 40030c4:	10bfe004 	addi	r2,r2,-128
 40030c8:	bf000003 	ldbu	fp,0(r23)
 40030cc:	103ff41e 	bne	r2,zero,40030a0 <___svfprintf_internal_r+0xa0c>
 40030d0:	e2c03fcc 	andi	r11,fp,255
 40030d4:	5ac0201c 	xori	r11,r11,128
 40030d8:	01000044 	movi	r4,1
 40030dc:	01400804 	movi	r5,32
 40030e0:	5affe004 	addi	r11,r11,-128
 40030e4:	003da906 	br	400278c <___svfprintf_internal_r+0xf8>
 40030e8:	21003fcc 	andi	r4,r4,255
 40030ec:	20051b1e 	bne	r4,zero,400455c <___svfprintf_internal_r+0x1ec8>
 40030f0:	00810074 	movhi	r2,1025
 40030f4:	10888804 	addi	r2,r2,8736
 40030f8:	d8800b15 	stw	r2,44(sp)
 40030fc:	6080080c 	andi	r2,r12,32
 4003100:	10003226 	beq	r2,zero,40031cc <___svfprintf_internal_r+0xb38>
 4003104:	d8800617 	ldw	r2,24(sp)
 4003108:	15000017 	ldw	r20,0(r2)
 400310c:	15400117 	ldw	r21,4(r2)
 4003110:	10800204 	addi	r2,r2,8
 4003114:	d8800615 	stw	r2,24(sp)
 4003118:	6080004c 	andi	r2,r12,1
 400311c:	10000226 	beq	r2,zero,4003128 <___svfprintf_internal_r+0xa94>
 4003120:	a544b03a 	or	r2,r20,r21
 4003124:	1002691e 	bne	r2,zero,4003acc <___svfprintf_internal_r+0x1438>
 4003128:	00800084 	movi	r2,2
 400312c:	003e7d06 	br	4002b24 <___svfprintf_internal_r+0x490>
 4003130:	d8800617 	ldw	r2,24(sp)
 4003134:	d8001345 	stb	zero,77(sp)
 4003138:	14400017 	ldw	r17,0(r2)
 400313c:	10c00104 	addi	r3,r2,4
 4003140:	88039226 	beq	r17,zero,4003f8c <___svfprintf_internal_r+0x18f8>
 4003144:	40bfffe0 	cmpeqi	r2,r8,-1
 4003148:	1002a71e 	bne	r2,zero,4003be8 <___svfprintf_internal_r+0x1554>
 400314c:	400d883a 	mov	r6,r8
 4003150:	000b883a 	mov	r5,zero
 4003154:	8809883a 	mov	r4,r17
 4003158:	d8c00715 	stw	r3,28(sp)
 400315c:	db000615 	stw	r12,24(sp)
 4003160:	da000415 	stw	r8,16(sp)
 4003164:	400688c0 	call	400688c <memchr>
 4003168:	da000417 	ldw	r8,16(sp)
 400316c:	db000617 	ldw	r12,24(sp)
 4003170:	d8c00717 	ldw	r3,28(sp)
 4003174:	1004e326 	beq	r2,zero,4004504 <___svfprintf_internal_r+0x1e70>
 4003178:	146bc83a 	sub	r21,r2,r17
 400317c:	a829883a 	mov	r20,r21
 4003180:	d8c00615 	stw	r3,24(sp)
 4003184:	003dfa06 	br	4002970 <___svfprintf_internal_r+0x2dc>
 4003188:	d8c00617 	ldw	r3,24(sp)
 400318c:	d8001345 	stb	zero,77(sp)
 4003190:	05000044 	movi	r20,1
 4003194:	18800017 	ldw	r2,0(r3)
 4003198:	18c00104 	addi	r3,r3,4
 400319c:	d8c00615 	stw	r3,24(sp)
 40031a0:	d8801d05 	stb	r2,116(sp)
 40031a4:	05400044 	movi	r21,1
 40031a8:	dc401d04 	addi	r17,sp,116
 40031ac:	003df006 	br	4002970 <___svfprintf_internal_r+0x2dc>
 40031b0:	21003fcc 	andi	r4,r4,255
 40031b4:	2004e31e 	bne	r4,zero,4004544 <___svfprintf_internal_r+0x1eb0>
 40031b8:	00810074 	movhi	r2,1025
 40031bc:	10888d04 	addi	r2,r2,8756
 40031c0:	d8800b15 	stw	r2,44(sp)
 40031c4:	6080080c 	andi	r2,r12,32
 40031c8:	103fce1e 	bne	r2,zero,4003104 <___svfprintf_internal_r+0xa70>
 40031cc:	d9000617 	ldw	r4,24(sp)
 40031d0:	6080040c 	andi	r2,r12,16
 40031d4:	20c00104 	addi	r3,r4,4
 40031d8:	1002381e 	bne	r2,zero,4003abc <___svfprintf_internal_r+0x1428>
 40031dc:	6080100c 	andi	r2,r12,64
 40031e0:	1003f226 	beq	r2,zero,40041ac <___svfprintf_internal_r+0x1b18>
 40031e4:	d8800617 	ldw	r2,24(sp)
 40031e8:	002b883a 	mov	r21,zero
 40031ec:	d8c00615 	stw	r3,24(sp)
 40031f0:	1500000b 	ldhu	r20,0(r2)
 40031f4:	003fc806 	br	4003118 <___svfprintf_internal_r+0xa84>
 40031f8:	e2c01990 	cmplti	r11,fp,102
 40031fc:	5800ce1e 	bne	r11,zero,4003538 <___svfprintf_internal_r+0xea4>
 4003200:	d9000917 	ldw	r4,36(sp)
 4003204:	d9400a17 	ldw	r5,40(sp)
 4003208:	000d883a 	mov	r6,zero
 400320c:	000f883a 	mov	r7,zero
 4003210:	d8c00e15 	stw	r3,56(sp)
 4003214:	400f1dc0 	call	400f1dc <__eqdf2>
 4003218:	d8c00e17 	ldw	r3,56(sp)
 400321c:	1001671e 	bne	r2,zero,40037bc <___svfprintf_internal_r+0x1128>
 4003220:	d8801b17 	ldw	r2,108(sp)
 4003224:	01010074 	movhi	r4,1025
 4003228:	21089404 	addi	r4,r4,8784
 400322c:	10800044 	addi	r2,r2,1
 4003230:	18c00044 	addi	r3,r3,1
 4003234:	b1000015 	stw	r4,0(r22)
 4003238:	01000044 	movi	r4,1
 400323c:	d8801b15 	stw	r2,108(sp)
 4003240:	b1000115 	stw	r4,4(r22)
 4003244:	d8c01c15 	stw	r3,112(sp)
 4003248:	10800208 	cmpgei	r2,r2,8
 400324c:	1003351e 	bne	r2,zero,4003f24 <___svfprintf_internal_r+0x1890>
 4003250:	b5800204 	addi	r22,r22,8
 4003254:	d8801417 	ldw	r2,80(sp)
 4003258:	d9000817 	ldw	r4,32(sp)
 400325c:	11000316 	blt	r2,r4,400326c <___svfprintf_internal_r+0xbd8>
 4003260:	d8800417 	ldw	r2,16(sp)
 4003264:	1080004c 	andi	r2,r2,1
 4003268:	103dfa26 	beq	r2,zero,4002a54 <___svfprintf_internal_r+0x3c0>
 400326c:	d8800d17 	ldw	r2,52(sp)
 4003270:	d9000c17 	ldw	r4,48(sp)
 4003274:	b0800015 	stw	r2,0(r22)
 4003278:	d8801b17 	ldw	r2,108(sp)
 400327c:	1907883a 	add	r3,r3,r4
 4003280:	b1000115 	stw	r4,4(r22)
 4003284:	10800044 	addi	r2,r2,1
 4003288:	d8801b15 	stw	r2,108(sp)
 400328c:	d8c01c15 	stw	r3,112(sp)
 4003290:	10800208 	cmpgei	r2,r2,8
 4003294:	1003351e 	bne	r2,zero,4003f6c <___svfprintf_internal_r+0x18d8>
 4003298:	b5800204 	addi	r22,r22,8
 400329c:	d8800817 	ldw	r2,32(sp)
 40032a0:	157fffc4 	addi	r21,r2,-1
 40032a4:	057deb0e 	bge	zero,r21,4002a54 <___svfprintf_internal_r+0x3c0>
 40032a8:	01c10074 	movhi	r7,1025
 40032ac:	a9000450 	cmplti	r4,r21,17
 40032b0:	d8801b17 	ldw	r2,108(sp)
 40032b4:	39c89504 	addi	r7,r7,8788
 40032b8:	2003161e 	bne	r4,zero,4003f14 <___svfprintf_internal_r+0x1880>
 40032bc:	07000404 	movi	fp,16
 40032c0:	3823883a 	mov	r17,r7
 40032c4:	00000406 	br	40032d8 <___svfprintf_internal_r+0xc44>
 40032c8:	b5800204 	addi	r22,r22,8
 40032cc:	ad7ffc04 	addi	r21,r21,-16
 40032d0:	a9000448 	cmpgei	r4,r21,17
 40032d4:	20030e26 	beq	r4,zero,4003f10 <___svfprintf_internal_r+0x187c>
 40032d8:	10800044 	addi	r2,r2,1
 40032dc:	18c00404 	addi	r3,r3,16
 40032e0:	b4400015 	stw	r17,0(r22)
 40032e4:	b7000115 	stw	fp,4(r22)
 40032e8:	d8c01c15 	stw	r3,112(sp)
 40032ec:	d8801b15 	stw	r2,108(sp)
 40032f0:	11000208 	cmpgei	r4,r2,8
 40032f4:	203ff426 	beq	r4,zero,40032c8 <___svfprintf_internal_r+0xc34>
 40032f8:	d9801a04 	addi	r6,sp,104
 40032fc:	900b883a 	mov	r5,r18
 4003300:	9809883a 	mov	r4,r19
 4003304:	4007d3c0 	call	4007d3c <__ssprint_r>
 4003308:	103de31e 	bne	r2,zero,4002a98 <___svfprintf_internal_r+0x404>
 400330c:	d8c01c17 	ldw	r3,112(sp)
 4003310:	d8801b17 	ldw	r2,108(sp)
 4003314:	dd802704 	addi	r22,sp,156
 4003318:	003fec06 	br	40032cc <___svfprintf_internal_r+0xc38>
 400331c:	8519c83a 	sub	r12,r16,r20
 4003320:	033dbd0e 	bge	zero,r12,4002a18 <___svfprintf_internal_r+0x384>
 4003324:	01c10074 	movhi	r7,1025
 4003328:	61000450 	cmplti	r4,r12,17
 400332c:	d8801b17 	ldw	r2,108(sp)
 4003330:	39c89504 	addi	r7,r7,8788
 4003334:	2000281e 	bne	r4,zero,40033d8 <___svfprintf_internal_r+0xd44>
 4003338:	dc400e15 	stw	r17,56(sp)
 400333c:	dc000f15 	stw	r16,60(sp)
 4003340:	b009883a 	mov	r4,r22
 4003344:	03400404 	movi	r13,16
 4003348:	a02d883a 	mov	r22,r20
 400334c:	6021883a 	mov	r16,r12
 4003350:	4029883a 	mov	r20,r8
 4003354:	3823883a 	mov	r17,r7
 4003358:	00000406 	br	400336c <___svfprintf_internal_r+0xcd8>
 400335c:	843ffc04 	addi	r16,r16,-16
 4003360:	81400448 	cmpgei	r5,r16,17
 4003364:	21000204 	addi	r4,r4,8
 4003368:	28001426 	beq	r5,zero,40033bc <___svfprintf_internal_r+0xd28>
 400336c:	10800044 	addi	r2,r2,1
 4003370:	18c00404 	addi	r3,r3,16
 4003374:	24400015 	stw	r17,0(r4)
 4003378:	23400115 	stw	r13,4(r4)
 400337c:	d8c01c15 	stw	r3,112(sp)
 4003380:	d8801b15 	stw	r2,108(sp)
 4003384:	11400208 	cmpgei	r5,r2,8
 4003388:	283ff426 	beq	r5,zero,400335c <___svfprintf_internal_r+0xcc8>
 400338c:	d9801a04 	addi	r6,sp,104
 4003390:	900b883a 	mov	r5,r18
 4003394:	9809883a 	mov	r4,r19
 4003398:	4007d3c0 	call	4007d3c <__ssprint_r>
 400339c:	103dbe1e 	bne	r2,zero,4002a98 <___svfprintf_internal_r+0x404>
 40033a0:	843ffc04 	addi	r16,r16,-16
 40033a4:	81400448 	cmpgei	r5,r16,17
 40033a8:	d8c01c17 	ldw	r3,112(sp)
 40033ac:	d8801b17 	ldw	r2,108(sp)
 40033b0:	d9002704 	addi	r4,sp,156
 40033b4:	03400404 	movi	r13,16
 40033b8:	283fec1e 	bne	r5,zero,400336c <___svfprintf_internal_r+0xcd8>
 40033bc:	8019883a 	mov	r12,r16
 40033c0:	880f883a 	mov	r7,r17
 40033c4:	dc000f17 	ldw	r16,60(sp)
 40033c8:	dc400e17 	ldw	r17,56(sp)
 40033cc:	a011883a 	mov	r8,r20
 40033d0:	b029883a 	mov	r20,r22
 40033d4:	202d883a 	mov	r22,r4
 40033d8:	10800044 	addi	r2,r2,1
 40033dc:	1b07883a 	add	r3,r3,r12
 40033e0:	d8801b15 	stw	r2,108(sp)
 40033e4:	b1c00015 	stw	r7,0(r22)
 40033e8:	b3000115 	stw	r12,4(r22)
 40033ec:	d8c01c15 	stw	r3,112(sp)
 40033f0:	10800208 	cmpgei	r2,r2,8
 40033f4:	1002d31e 	bne	r2,zero,4003f44 <___svfprintf_internal_r+0x18b0>
 40033f8:	4551c83a 	sub	r8,r8,r21
 40033fc:	b5800204 	addi	r22,r22,8
 4003400:	023d870e 	bge	zero,r8,4002a20 <___svfprintf_internal_r+0x38c>
 4003404:	01c10074 	movhi	r7,1025
 4003408:	41000450 	cmplti	r4,r8,17
 400340c:	d8801b17 	ldw	r2,108(sp)
 4003410:	39c89504 	addi	r7,r7,8788
 4003414:	2000221e 	bne	r4,zero,40034a0 <___svfprintf_internal_r+0xe0c>
 4003418:	dc400e15 	stw	r17,56(sp)
 400341c:	dc000f15 	stw	r16,60(sp)
 4003420:	03000404 	movi	r12,16
 4003424:	4021883a 	mov	r16,r8
 4003428:	3823883a 	mov	r17,r7
 400342c:	00000406 	br	4003440 <___svfprintf_internal_r+0xdac>
 4003430:	843ffc04 	addi	r16,r16,-16
 4003434:	81000448 	cmpgei	r4,r16,17
 4003438:	b5800204 	addi	r22,r22,8
 400343c:	20001426 	beq	r4,zero,4003490 <___svfprintf_internal_r+0xdfc>
 4003440:	10800044 	addi	r2,r2,1
 4003444:	18c00404 	addi	r3,r3,16
 4003448:	b4400015 	stw	r17,0(r22)
 400344c:	b3000115 	stw	r12,4(r22)
 4003450:	d8c01c15 	stw	r3,112(sp)
 4003454:	d8801b15 	stw	r2,108(sp)
 4003458:	11000208 	cmpgei	r4,r2,8
 400345c:	203ff426 	beq	r4,zero,4003430 <___svfprintf_internal_r+0xd9c>
 4003460:	d9801a04 	addi	r6,sp,104
 4003464:	900b883a 	mov	r5,r18
 4003468:	9809883a 	mov	r4,r19
 400346c:	4007d3c0 	call	4007d3c <__ssprint_r>
 4003470:	103d891e 	bne	r2,zero,4002a98 <___svfprintf_internal_r+0x404>
 4003474:	843ffc04 	addi	r16,r16,-16
 4003478:	81000448 	cmpgei	r4,r16,17
 400347c:	d8c01c17 	ldw	r3,112(sp)
 4003480:	d8801b17 	ldw	r2,108(sp)
 4003484:	dd802704 	addi	r22,sp,156
 4003488:	03000404 	movi	r12,16
 400348c:	203fec1e 	bne	r4,zero,4003440 <___svfprintf_internal_r+0xdac>
 4003490:	8011883a 	mov	r8,r16
 4003494:	880f883a 	mov	r7,r17
 4003498:	dc000f17 	ldw	r16,60(sp)
 400349c:	dc400e17 	ldw	r17,56(sp)
 40034a0:	10800044 	addi	r2,r2,1
 40034a4:	1a07883a 	add	r3,r3,r8
 40034a8:	d8801b15 	stw	r2,108(sp)
 40034ac:	b1c00015 	stw	r7,0(r22)
 40034b0:	b2000115 	stw	r8,4(r22)
 40034b4:	d8c01c15 	stw	r3,112(sp)
 40034b8:	10800208 	cmpgei	r2,r2,8
 40034bc:	10014a1e 	bne	r2,zero,40039e8 <___svfprintf_internal_r+0x1354>
 40034c0:	b5800204 	addi	r22,r22,8
 40034c4:	003d5606 	br	4002a20 <___svfprintf_internal_r+0x38c>
 40034c8:	10c00060 	cmpeqi	r3,r2,1
 40034cc:	1803cf1e 	bne	r3,zero,400440c <___svfprintf_internal_r+0x1d78>
 40034d0:	108000a0 	cmpeqi	r2,r2,2
 40034d4:	db000417 	ldw	r12,16(sp)
 40034d8:	103ea726 	beq	r2,zero,4002f78 <___svfprintf_internal_r+0x8e4>
 40034dc:	d9000b17 	ldw	r4,44(sp)
 40034e0:	dc402704 	addi	r17,sp,156
 40034e4:	a08003cc 	andi	r2,r20,15
 40034e8:	a806973a 	slli	r3,r21,28
 40034ec:	a028d13a 	srli	r20,r20,4
 40034f0:	2085883a 	add	r2,r4,r2
 40034f4:	10800003 	ldbu	r2,0(r2)
 40034f8:	a82ad13a 	srli	r21,r21,4
 40034fc:	1d28b03a 	or	r20,r3,r20
 4003500:	88bfffc5 	stb	r2,-1(r17)
 4003504:	a544b03a 	or	r2,r20,r21
 4003508:	8c7fffc4 	addi	r17,r17,-1
 400350c:	103ff51e 	bne	r2,zero,40034e4 <___svfprintf_internal_r+0xe50>
 4003510:	d8802704 	addi	r2,sp,156
 4003514:	146bc83a 	sub	r21,r2,r17
 4003518:	db000415 	stw	r12,16(sp)
 400351c:	003eb006 	br	4002fe0 <___svfprintf_internal_r+0x94c>
 4003520:	d9801a04 	addi	r6,sp,104
 4003524:	900b883a 	mov	r5,r18
 4003528:	9809883a 	mov	r4,r19
 400352c:	4007d3c0 	call	4007d3c <__ssprint_r>
 4003530:	103d5326 	beq	r2,zero,4002a80 <___svfprintf_internal_r+0x3ec>
 4003534:	003d5806 	br	4002a98 <___svfprintf_internal_r+0x404>
 4003538:	d8800817 	ldw	r2,32(sp)
 400353c:	da001b17 	ldw	r8,108(sp)
 4003540:	18c00044 	addi	r3,r3,1
 4003544:	10800088 	cmpgei	r2,r2,2
 4003548:	45400044 	addi	r21,r8,1
 400354c:	b7000204 	addi	fp,r22,8
 4003550:	1000f326 	beq	r2,zero,4003920 <___svfprintf_internal_r+0x128c>
 4003554:	00800044 	movi	r2,1
 4003558:	b0800115 	stw	r2,4(r22)
 400355c:	b4400015 	stw	r17,0(r22)
 4003560:	d8c01c15 	stw	r3,112(sp)
 4003564:	dd401b15 	stw	r21,108(sp)
 4003568:	a8800210 	cmplti	r2,r21,8
 400356c:	10012626 	beq	r2,zero,4003a08 <___svfprintf_internal_r+0x1374>
 4003570:	d8800c17 	ldw	r2,48(sp)
 4003574:	d9000d17 	ldw	r4,52(sp)
 4003578:	ad400044 	addi	r21,r21,1
 400357c:	1887883a 	add	r3,r3,r2
 4003580:	e0800115 	stw	r2,4(fp)
 4003584:	e1000015 	stw	r4,0(fp)
 4003588:	d8c01c15 	stw	r3,112(sp)
 400358c:	dd401b15 	stw	r21,108(sp)
 4003590:	a8800208 	cmpgei	r2,r21,8
 4003594:	1001251e 	bne	r2,zero,4003a2c <___svfprintf_internal_r+0x1398>
 4003598:	e7000204 	addi	fp,fp,8
 400359c:	d9000917 	ldw	r4,36(sp)
 40035a0:	d9400a17 	ldw	r5,40(sp)
 40035a4:	aa000044 	addi	r8,r21,1
 40035a8:	000d883a 	mov	r6,zero
 40035ac:	000f883a 	mov	r7,zero
 40035b0:	d8c00e15 	stw	r3,56(sp)
 40035b4:	da000715 	stw	r8,28(sp)
 40035b8:	400f1dc0 	call	400f1dc <__eqdf2>
 40035bc:	d8c00817 	ldw	r3,32(sp)
 40035c0:	da000717 	ldw	r8,28(sp)
 40035c4:	e5800204 	addi	r22,fp,8
 40035c8:	1affffc4 	addi	r11,r3,-1
 40035cc:	d8c00e17 	ldw	r3,56(sp)
 40035d0:	1000e526 	beq	r2,zero,4003968 <___svfprintf_internal_r+0x12d4>
 40035d4:	8a400044 	addi	r9,r17,1
 40035d8:	1ac7883a 	add	r3,r3,r11
 40035dc:	da001b15 	stw	r8,108(sp)
 40035e0:	e2400015 	stw	r9,0(fp)
 40035e4:	e2c00115 	stw	r11,4(fp)
 40035e8:	d8c01c15 	stw	r3,112(sp)
 40035ec:	42000208 	cmpgei	r8,r8,8
 40035f0:	4001b01e 	bne	r8,zero,4003cb4 <___svfprintf_internal_r+0x1620>
 40035f4:	e0800404 	addi	r2,fp,16
 40035f8:	aa000084 	addi	r8,r21,2
 40035fc:	b039883a 	mov	fp,r22
 4003600:	102d883a 	mov	r22,r2
 4003604:	d9001017 	ldw	r4,64(sp)
 4003608:	d8801644 	addi	r2,sp,89
 400360c:	da001b15 	stw	r8,108(sp)
 4003610:	20c7883a 	add	r3,r4,r3
 4003614:	e0800015 	stw	r2,0(fp)
 4003618:	e1000115 	stw	r4,4(fp)
 400361c:	d8c01c15 	stw	r3,112(sp)
 4003620:	42000210 	cmplti	r8,r8,8
 4003624:	403d0b1e 	bne	r8,zero,4002a54 <___svfprintf_internal_r+0x3c0>
 4003628:	d9801a04 	addi	r6,sp,104
 400362c:	900b883a 	mov	r5,r18
 4003630:	9809883a 	mov	r4,r19
 4003634:	4007d3c0 	call	4007d3c <__ssprint_r>
 4003638:	103d171e 	bne	r2,zero,4002a98 <___svfprintf_internal_r+0x404>
 400363c:	d8c01c17 	ldw	r3,112(sp)
 4003640:	dd802704 	addi	r22,sp,156
 4003644:	003d0306 	br	4002a54 <___svfprintf_internal_r+0x3c0>
 4003648:	db000417 	ldw	r12,16(sp)
 400364c:	003e4606 	br	4002f68 <___svfprintf_internal_r+0x8d4>
 4003650:	03010074 	movhi	r12,1025
 4003654:	39000450 	cmplti	r4,r7,17
 4003658:	d8801b17 	ldw	r2,108(sp)
 400365c:	63089904 	addi	r12,r12,8804
 4003660:	2000321e 	bne	r4,zero,400372c <___svfprintf_internal_r+0x1098>
 4003664:	dc401115 	stw	r17,68(sp)
 4003668:	b009883a 	mov	r4,r22
 400366c:	9023883a 	mov	r17,r18
 4003670:	a82d883a 	mov	r22,r21
 4003674:	ddc01215 	stw	r23,72(sp)
 4003678:	03c00404 	movi	r15,16
 400367c:	a02f883a 	mov	r23,r20
 4003680:	db800e15 	stw	r14,56(sp)
 4003684:	8029883a 	mov	r20,r16
 4003688:	db400f15 	stw	r13,60(sp)
 400368c:	402b883a 	mov	r21,r8
 4003690:	3821883a 	mov	r16,r7
 4003694:	6025883a 	mov	r18,r12
 4003698:	00000406 	br	40036ac <___svfprintf_internal_r+0x1018>
 400369c:	843ffc04 	addi	r16,r16,-16
 40036a0:	81800448 	cmpgei	r6,r16,17
 40036a4:	21000204 	addi	r4,r4,8
 40036a8:	30001426 	beq	r6,zero,40036fc <___svfprintf_internal_r+0x1068>
 40036ac:	10800044 	addi	r2,r2,1
 40036b0:	18c00404 	addi	r3,r3,16
 40036b4:	24800015 	stw	r18,0(r4)
 40036b8:	23c00115 	stw	r15,4(r4)
 40036bc:	d8c01c15 	stw	r3,112(sp)
 40036c0:	d8801b15 	stw	r2,108(sp)
 40036c4:	11800208 	cmpgei	r6,r2,8
 40036c8:	303ff426 	beq	r6,zero,400369c <___svfprintf_internal_r+0x1008>
 40036cc:	d9801a04 	addi	r6,sp,104
 40036d0:	880b883a 	mov	r5,r17
 40036d4:	9809883a 	mov	r4,r19
 40036d8:	4007d3c0 	call	4007d3c <__ssprint_r>
 40036dc:	1001b71e 	bne	r2,zero,4003dbc <___svfprintf_internal_r+0x1728>
 40036e0:	843ffc04 	addi	r16,r16,-16
 40036e4:	81800448 	cmpgei	r6,r16,17
 40036e8:	d8c01c17 	ldw	r3,112(sp)
 40036ec:	d8801b17 	ldw	r2,108(sp)
 40036f0:	d9002704 	addi	r4,sp,156
 40036f4:	03c00404 	movi	r15,16
 40036f8:	303fec1e 	bne	r6,zero,40036ac <___svfprintf_internal_r+0x1018>
 40036fc:	800f883a 	mov	r7,r16
 4003700:	9019883a 	mov	r12,r18
 4003704:	a021883a 	mov	r16,r20
 4003708:	8825883a 	mov	r18,r17
 400370c:	b829883a 	mov	r20,r23
 4003710:	db800e17 	ldw	r14,56(sp)
 4003714:	db400f17 	ldw	r13,60(sp)
 4003718:	ddc01217 	ldw	r23,72(sp)
 400371c:	dc401117 	ldw	r17,68(sp)
 4003720:	a811883a 	mov	r8,r21
 4003724:	b02b883a 	mov	r21,r22
 4003728:	202d883a 	mov	r22,r4
 400372c:	10800044 	addi	r2,r2,1
 4003730:	19c7883a 	add	r3,r3,r7
 4003734:	d8801b15 	stw	r2,108(sp)
 4003738:	b3000015 	stw	r12,0(r22)
 400373c:	b1c00115 	stw	r7,4(r22)
 4003740:	d8c01c15 	stw	r3,112(sp)
 4003744:	10800208 	cmpgei	r2,r2,8
 4003748:	1001651e 	bne	r2,zero,4003ce0 <___svfprintf_internal_r+0x164c>
 400374c:	b5800204 	addi	r22,r22,8
 4003750:	003c9406 	br	40029a4 <___svfprintf_internal_r+0x310>
 4003754:	d9801a04 	addi	r6,sp,104
 4003758:	900b883a 	mov	r5,r18
 400375c:	9809883a 	mov	r4,r19
 4003760:	da001115 	stw	r8,68(sp)
 4003764:	db400f15 	stw	r13,60(sp)
 4003768:	db800e15 	stw	r14,56(sp)
 400376c:	4007d3c0 	call	4007d3c <__ssprint_r>
 4003770:	103cc91e 	bne	r2,zero,4002a98 <___svfprintf_internal_r+0x404>
 4003774:	d8c01c17 	ldw	r3,112(sp)
 4003778:	da001117 	ldw	r8,68(sp)
 400377c:	db400f17 	ldw	r13,60(sp)
 4003780:	db800e17 	ldw	r14,56(sp)
 4003784:	dd802704 	addi	r22,sp,156
 4003788:	003c9406 	br	40029dc <___svfprintf_internal_r+0x348>
 400378c:	d9801a04 	addi	r6,sp,104
 4003790:	900b883a 	mov	r5,r18
 4003794:	9809883a 	mov	r4,r19
 4003798:	da000f15 	stw	r8,60(sp)
 400379c:	db400e15 	stw	r13,56(sp)
 40037a0:	4007d3c0 	call	4007d3c <__ssprint_r>
 40037a4:	103cbc1e 	bne	r2,zero,4002a98 <___svfprintf_internal_r+0x404>
 40037a8:	d8c01c17 	ldw	r3,112(sp)
 40037ac:	da000f17 	ldw	r8,60(sp)
 40037b0:	db400e17 	ldw	r13,56(sp)
 40037b4:	dd802704 	addi	r22,sp,156
 40037b8:	003c9506 	br	4002a10 <___svfprintf_internal_r+0x37c>
 40037bc:	d9401417 	ldw	r5,80(sp)
 40037c0:	0141550e 	bge	zero,r5,4003d18 <___svfprintf_internal_r+0x1684>
 40037c4:	d8800717 	ldw	r2,28(sp)
 40037c8:	d9000817 	ldw	r4,32(sp)
 40037cc:	102b883a 	mov	r21,r2
 40037d0:	2080c716 	blt	r4,r2,4003af0 <___svfprintf_internal_r+0x145c>
 40037d4:	05400a0e 	bge	zero,r21,4003800 <___svfprintf_internal_r+0x116c>
 40037d8:	d8801b17 	ldw	r2,108(sp)
 40037dc:	1d47883a 	add	r3,r3,r21
 40037e0:	b4400015 	stw	r17,0(r22)
 40037e4:	10800044 	addi	r2,r2,1
 40037e8:	d8801b15 	stw	r2,108(sp)
 40037ec:	b5400115 	stw	r21,4(r22)
 40037f0:	d8c01c15 	stw	r3,112(sp)
 40037f4:	10800208 	cmpgei	r2,r2,8
 40037f8:	10032c1e 	bne	r2,zero,40044ac <___svfprintf_internal_r+0x1e18>
 40037fc:	b5800204 	addi	r22,r22,8
 4003800:	a800d016 	blt	r21,zero,4003b44 <___svfprintf_internal_r+0x14b0>
 4003804:	d8800717 	ldw	r2,28(sp)
 4003808:	156bc83a 	sub	r21,r2,r21
 400380c:	0540d816 	blt	zero,r21,4003b70 <___svfprintf_internal_r+0x14dc>
 4003810:	dd401417 	ldw	r21,80(sp)
 4003814:	d8800817 	ldw	r2,32(sp)
 4003818:	a880b80e 	bge	r21,r2,4003afc <___svfprintf_internal_r+0x1468>
 400381c:	d8800d17 	ldw	r2,52(sp)
 4003820:	d9000c17 	ldw	r4,48(sp)
 4003824:	b0800015 	stw	r2,0(r22)
 4003828:	d8801b17 	ldw	r2,108(sp)
 400382c:	1907883a 	add	r3,r3,r4
 4003830:	b1000115 	stw	r4,4(r22)
 4003834:	10800044 	addi	r2,r2,1
 4003838:	d8801b15 	stw	r2,108(sp)
 400383c:	d8c01c15 	stw	r3,112(sp)
 4003840:	10800208 	cmpgei	r2,r2,8
 4003844:	1002bd1e 	bne	r2,zero,400433c <___svfprintf_internal_r+0x1ca8>
 4003848:	b5800204 	addi	r22,r22,8
 400384c:	d9000817 	ldw	r4,32(sp)
 4003850:	d9400717 	ldw	r5,28(sp)
 4003854:	2545c83a 	sub	r2,r4,r21
 4003858:	2149c83a 	sub	r4,r4,r5
 400385c:	102b883a 	mov	r21,r2
 4003860:	2080010e 	bge	r4,r2,4003868 <___svfprintf_internal_r+0x11d4>
 4003864:	202b883a 	mov	r21,r4
 4003868:	05400c0e 	bge	zero,r21,400389c <___svfprintf_internal_r+0x1208>
 400386c:	d9000717 	ldw	r4,28(sp)
 4003870:	1d47883a 	add	r3,r3,r21
 4003874:	b5400115 	stw	r21,4(r22)
 4003878:	8913883a 	add	r9,r17,r4
 400387c:	d9001b17 	ldw	r4,108(sp)
 4003880:	b2400015 	stw	r9,0(r22)
 4003884:	d8c01c15 	stw	r3,112(sp)
 4003888:	21000044 	addi	r4,r4,1
 400388c:	d9001b15 	stw	r4,108(sp)
 4003890:	21000208 	cmpgei	r4,r4,8
 4003894:	20030e1e 	bne	r4,zero,40044d0 <___svfprintf_internal_r+0x1e3c>
 4003898:	b5800204 	addi	r22,r22,8
 400389c:	a800010e 	bge	r21,zero,40038a4 <___svfprintf_internal_r+0x1210>
 40038a0:	002b883a 	mov	r21,zero
 40038a4:	156bc83a 	sub	r21,r2,r21
 40038a8:	057c6a0e 	bge	zero,r21,4002a54 <___svfprintf_internal_r+0x3c0>
 40038ac:	01c10074 	movhi	r7,1025
 40038b0:	a9000450 	cmplti	r4,r21,17
 40038b4:	d8801b17 	ldw	r2,108(sp)
 40038b8:	39c89504 	addi	r7,r7,8788
 40038bc:	2001951e 	bne	r4,zero,4003f14 <___svfprintf_internal_r+0x1880>
 40038c0:	07000404 	movi	fp,16
 40038c4:	3823883a 	mov	r17,r7
 40038c8:	00000406 	br	40038dc <___svfprintf_internal_r+0x1248>
 40038cc:	b5800204 	addi	r22,r22,8
 40038d0:	ad7ffc04 	addi	r21,r21,-16
 40038d4:	a9000448 	cmpgei	r4,r21,17
 40038d8:	20018d26 	beq	r4,zero,4003f10 <___svfprintf_internal_r+0x187c>
 40038dc:	10800044 	addi	r2,r2,1
 40038e0:	18c00404 	addi	r3,r3,16
 40038e4:	b4400015 	stw	r17,0(r22)
 40038e8:	b7000115 	stw	fp,4(r22)
 40038ec:	d8c01c15 	stw	r3,112(sp)
 40038f0:	d8801b15 	stw	r2,108(sp)
 40038f4:	11000208 	cmpgei	r4,r2,8
 40038f8:	203ff426 	beq	r4,zero,40038cc <___svfprintf_internal_r+0x1238>
 40038fc:	d9801a04 	addi	r6,sp,104
 4003900:	900b883a 	mov	r5,r18
 4003904:	9809883a 	mov	r4,r19
 4003908:	4007d3c0 	call	4007d3c <__ssprint_r>
 400390c:	103c621e 	bne	r2,zero,4002a98 <___svfprintf_internal_r+0x404>
 4003910:	d8c01c17 	ldw	r3,112(sp)
 4003914:	d8801b17 	ldw	r2,108(sp)
 4003918:	dd802704 	addi	r22,sp,156
 400391c:	003fec06 	br	40038d0 <___svfprintf_internal_r+0x123c>
 4003920:	d8800417 	ldw	r2,16(sp)
 4003924:	1080004c 	andi	r2,r2,1
 4003928:	103f0a1e 	bne	r2,zero,4003554 <___svfprintf_internal_r+0xec0>
 400392c:	00800044 	movi	r2,1
 4003930:	dd401b15 	stw	r21,108(sp)
 4003934:	b4400015 	stw	r17,0(r22)
 4003938:	b0800115 	stw	r2,4(r22)
 400393c:	d8c01c15 	stw	r3,112(sp)
 4003940:	ad400208 	cmpgei	r21,r21,8
 4003944:	a800db1e 	bne	r21,zero,4003cb4 <___svfprintf_internal_r+0x1620>
 4003948:	42000084 	addi	r8,r8,2
 400394c:	b5800404 	addi	r22,r22,16
 4003950:	003f2c06 	br	4003604 <___svfprintf_internal_r+0xf70>
 4003954:	4002ad1e 	bne	r8,zero,400440c <___svfprintf_internal_r+0x1d78>
 4003958:	0011883a 	mov	r8,zero
 400395c:	002b883a 	mov	r21,zero
 4003960:	dc402704 	addi	r17,sp,156
 4003964:	003d9e06 	br	4002fe0 <___svfprintf_internal_r+0x94c>
 4003968:	02ff260e 	bge	zero,r11,4003604 <___svfprintf_internal_r+0xf70>
 400396c:	58800450 	cmplti	r2,r11,17
 4003970:	01c10074 	movhi	r7,1025
 4003974:	10034d1e 	bne	r2,zero,40046ac <___svfprintf_internal_r+0x2018>
 4003978:	39c89504 	addi	r7,r7,8788
 400397c:	dc000715 	stw	r16,28(sp)
 4003980:	05800404 	movi	r22,16
 4003984:	5823883a 	mov	r17,r11
 4003988:	3821883a 	mov	r16,r7
 400398c:	402b883a 	mov	r21,r8
 4003990:	00000506 	br	40039a8 <___svfprintf_internal_r+0x1314>
 4003994:	e7000204 	addi	fp,fp,8
 4003998:	8c7ffc04 	addi	r17,r17,-16
 400399c:	88800448 	cmpgei	r2,r17,17
 40039a0:	1001ae26 	beq	r2,zero,400405c <___svfprintf_internal_r+0x19c8>
 40039a4:	ad400044 	addi	r21,r21,1
 40039a8:	18c00404 	addi	r3,r3,16
 40039ac:	e4000015 	stw	r16,0(fp)
 40039b0:	e5800115 	stw	r22,4(fp)
 40039b4:	d8c01c15 	stw	r3,112(sp)
 40039b8:	dd401b15 	stw	r21,108(sp)
 40039bc:	a8800208 	cmpgei	r2,r21,8
 40039c0:	103ff426 	beq	r2,zero,4003994 <___svfprintf_internal_r+0x1300>
 40039c4:	d9801a04 	addi	r6,sp,104
 40039c8:	900b883a 	mov	r5,r18
 40039cc:	9809883a 	mov	r4,r19
 40039d0:	4007d3c0 	call	4007d3c <__ssprint_r>
 40039d4:	103c301e 	bne	r2,zero,4002a98 <___svfprintf_internal_r+0x404>
 40039d8:	dd401b17 	ldw	r21,108(sp)
 40039dc:	d8c01c17 	ldw	r3,112(sp)
 40039e0:	df002704 	addi	fp,sp,156
 40039e4:	003fec06 	br	4003998 <___svfprintf_internal_r+0x1304>
 40039e8:	d9801a04 	addi	r6,sp,104
 40039ec:	900b883a 	mov	r5,r18
 40039f0:	9809883a 	mov	r4,r19
 40039f4:	4007d3c0 	call	4007d3c <__ssprint_r>
 40039f8:	103c271e 	bne	r2,zero,4002a98 <___svfprintf_internal_r+0x404>
 40039fc:	d8c01c17 	ldw	r3,112(sp)
 4003a00:	dd802704 	addi	r22,sp,156
 4003a04:	003c0606 	br	4002a20 <___svfprintf_internal_r+0x38c>
 4003a08:	d9801a04 	addi	r6,sp,104
 4003a0c:	900b883a 	mov	r5,r18
 4003a10:	9809883a 	mov	r4,r19
 4003a14:	4007d3c0 	call	4007d3c <__ssprint_r>
 4003a18:	103c1f1e 	bne	r2,zero,4002a98 <___svfprintf_internal_r+0x404>
 4003a1c:	d8c01c17 	ldw	r3,112(sp)
 4003a20:	dd401b17 	ldw	r21,108(sp)
 4003a24:	df002704 	addi	fp,sp,156
 4003a28:	003ed106 	br	4003570 <___svfprintf_internal_r+0xedc>
 4003a2c:	d9801a04 	addi	r6,sp,104
 4003a30:	900b883a 	mov	r5,r18
 4003a34:	9809883a 	mov	r4,r19
 4003a38:	4007d3c0 	call	4007d3c <__ssprint_r>
 4003a3c:	103c161e 	bne	r2,zero,4002a98 <___svfprintf_internal_r+0x404>
 4003a40:	d8c01c17 	ldw	r3,112(sp)
 4003a44:	dd401b17 	ldw	r21,108(sp)
 4003a48:	df002704 	addi	fp,sp,156
 4003a4c:	003ed306 	br	400359c <___svfprintf_internal_r+0xf08>
 4003a50:	dc402704 	addi	r17,sp,156
 4003a54:	003d6206 	br	4002fe0 <___svfprintf_internal_r+0x94c>
 4003a58:	25000017 	ldw	r20,0(r4)
 4003a5c:	002b883a 	mov	r21,zero
 4003a60:	d8c00615 	stw	r3,24(sp)
 4003a64:	0005883a 	mov	r2,zero
 4003a68:	003c2e06 	br	4002b24 <___svfprintf_internal_r+0x490>
 4003a6c:	d9000517 	ldw	r4,20(sp)
 4003a70:	2005d7fa 	srai	r2,r4,31
 4003a74:	19000015 	stw	r4,0(r3)
 4003a78:	18800115 	stw	r2,4(r3)
 4003a7c:	003b2b06 	br	400272c <___svfprintf_internal_r+0x98>
 4003a80:	25000017 	ldw	r20,0(r4)
 4003a84:	002b883a 	mov	r21,zero
 4003a88:	d8c00615 	stw	r3,24(sp)
 4003a8c:	00800044 	movi	r2,1
 4003a90:	003c2406 	br	4002b24 <___svfprintf_internal_r+0x490>
 4003a94:	25000017 	ldw	r20,0(r4)
 4003a98:	d8c00615 	stw	r3,24(sp)
 4003a9c:	a02bd7fa 	srai	r21,r20,31
 4003aa0:	a805883a 	mov	r2,r21
 4003aa4:	003cd506 	br	4002dfc <___svfprintf_internal_r+0x768>
 4003aa8:	18800017 	ldw	r2,0(r3)
 4003aac:	d8800915 	stw	r2,36(sp)
 4003ab0:	18800117 	ldw	r2,4(r3)
 4003ab4:	d8800a15 	stw	r2,40(sp)
 4003ab8:	003c5006 	br	4002bfc <___svfprintf_internal_r+0x568>
 4003abc:	25000017 	ldw	r20,0(r4)
 4003ac0:	002b883a 	mov	r21,zero
 4003ac4:	d8c00615 	stw	r3,24(sp)
 4003ac8:	003d9306 	br	4003118 <___svfprintf_internal_r+0xa84>
 4003acc:	00800c04 	movi	r2,48
 4003ad0:	d8801385 	stb	r2,78(sp)
 4003ad4:	df0013c5 	stb	fp,79(sp)
 4003ad8:	63000094 	ori	r12,r12,2
 4003adc:	00800084 	movi	r2,2
 4003ae0:	003c1006 	br	4002b24 <___svfprintf_internal_r+0x490>
 4003ae4:	0421c83a 	sub	r16,zero,r16
 4003ae8:	d8800615 	stw	r2,24(sp)
 4003aec:	003d5d06 	br	4003064 <___svfprintf_internal_r+0x9d0>
 4003af0:	202b883a 	mov	r21,r4
 4003af4:	057f3816 	blt	zero,r21,40037d8 <___svfprintf_internal_r+0x1144>
 4003af8:	003f4106 	br	4003800 <___svfprintf_internal_r+0x116c>
 4003afc:	d8800417 	ldw	r2,16(sp)
 4003b00:	1080004c 	andi	r2,r2,1
 4003b04:	103f451e 	bne	r2,zero,400381c <___svfprintf_internal_r+0x1188>
 4003b08:	d9000817 	ldw	r4,32(sp)
 4003b0c:	d9400717 	ldw	r5,28(sp)
 4003b10:	2545c83a 	sub	r2,r4,r21
 4003b14:	2179c83a 	sub	fp,r4,r5
 4003b18:	102b883a 	mov	r21,r2
 4003b1c:	e0bf5f0e 	bge	fp,r2,400389c <___svfprintf_internal_r+0x1208>
 4003b20:	e02b883a 	mov	r21,fp
 4003b24:	003f5d06 	br	400389c <___svfprintf_internal_r+0x1208>
 4003b28:	bf000043 	ldbu	fp,1(r23)
 4003b2c:	63000814 	ori	r12,r12,32
 4003b30:	bdc00044 	addi	r23,r23,1
 4003b34:	e2c03fcc 	andi	r11,fp,255
 4003b38:	5ac0201c 	xori	r11,r11,128
 4003b3c:	5affe004 	addi	r11,r11,-128
 4003b40:	003b1206 	br	400278c <___svfprintf_internal_r+0xf8>
 4003b44:	002b883a 	mov	r21,zero
 4003b48:	003f2e06 	br	4003804 <___svfprintf_internal_r+0x1170>
 4003b4c:	01401004 	movi	r5,64
 4003b50:	9809883a 	mov	r4,r19
 4003b54:	40060ac0 	call	40060ac <_malloc_r>
 4003b58:	90800015 	stw	r2,0(r18)
 4003b5c:	90800415 	stw	r2,16(r18)
 4003b60:	1002eb26 	beq	r2,zero,4004710 <___svfprintf_internal_r+0x207c>
 4003b64:	00801004 	movi	r2,64
 4003b68:	90800515 	stw	r2,20(r18)
 4003b6c:	003ae306 	br	40026fc <___svfprintf_internal_r+0x68>
 4003b70:	01c10074 	movhi	r7,1025
 4003b74:	a9000450 	cmplti	r4,r21,17
 4003b78:	d8801b17 	ldw	r2,108(sp)
 4003b7c:	39c89504 	addi	r7,r7,8788
 4003b80:	2001e01e 	bne	r4,zero,4004304 <___svfprintf_internal_r+0x1c70>
 4003b84:	dc000e15 	stw	r16,56(sp)
 4003b88:	07000404 	movi	fp,16
 4003b8c:	3821883a 	mov	r16,r7
 4003b90:	00000406 	br	4003ba4 <___svfprintf_internal_r+0x1510>
 4003b94:	b5800204 	addi	r22,r22,8
 4003b98:	ad7ffc04 	addi	r21,r21,-16
 4003b9c:	a9000448 	cmpgei	r4,r21,17
 4003ba0:	2001d626 	beq	r4,zero,40042fc <___svfprintf_internal_r+0x1c68>
 4003ba4:	10800044 	addi	r2,r2,1
 4003ba8:	18c00404 	addi	r3,r3,16
 4003bac:	b4000015 	stw	r16,0(r22)
 4003bb0:	b7000115 	stw	fp,4(r22)
 4003bb4:	d8c01c15 	stw	r3,112(sp)
 4003bb8:	d8801b15 	stw	r2,108(sp)
 4003bbc:	11000208 	cmpgei	r4,r2,8
 4003bc0:	203ff426 	beq	r4,zero,4003b94 <___svfprintf_internal_r+0x1500>
 4003bc4:	d9801a04 	addi	r6,sp,104
 4003bc8:	900b883a 	mov	r5,r18
 4003bcc:	9809883a 	mov	r4,r19
 4003bd0:	4007d3c0 	call	4007d3c <__ssprint_r>
 4003bd4:	103bb01e 	bne	r2,zero,4002a98 <___svfprintf_internal_r+0x404>
 4003bd8:	d8c01c17 	ldw	r3,112(sp)
 4003bdc:	d8801b17 	ldw	r2,108(sp)
 4003be0:	dd802704 	addi	r22,sp,156
 4003be4:	003fec06 	br	4003b98 <___svfprintf_internal_r+0x1504>
 4003be8:	8809883a 	mov	r4,r17
 4003bec:	db000415 	stw	r12,16(sp)
 4003bf0:	d8c00615 	stw	r3,24(sp)
 4003bf4:	4007ca40 	call	4007ca4 <strlen>
 4003bf8:	db000417 	ldw	r12,16(sp)
 4003bfc:	102b883a 	mov	r21,r2
 4003c00:	1029883a 	mov	r20,r2
 4003c04:	003b5a06 	br	4002970 <___svfprintf_internal_r+0x2dc>
 4003c08:	dc402704 	addi	r17,sp,156
 4003c0c:	a805883a 	mov	r2,r21
 4003c10:	dc000715 	stw	r16,28(sp)
 4003c14:	902b883a 	mov	r21,r18
 4003c18:	8821883a 	mov	r16,r17
 4003c1c:	db000415 	stw	r12,16(sp)
 4003c20:	a023883a 	mov	r17,r20
 4003c24:	da000e15 	stw	r8,56(sp)
 4003c28:	9829883a 	mov	r20,r19
 4003c2c:	1025883a 	mov	r18,r2
 4003c30:	6827883a 	mov	r19,r13
 4003c34:	8809883a 	mov	r4,r17
 4003c38:	900b883a 	mov	r5,r18
 4003c3c:	01800284 	movi	r6,10
 4003c40:	000f883a 	mov	r7,zero
 4003c44:	400d9f80 	call	400d9f8 <__umoddi3>
 4003c48:	10800c04 	addi	r2,r2,48
 4003c4c:	8809883a 	mov	r4,r17
 4003c50:	900b883a 	mov	r5,r18
 4003c54:	01800284 	movi	r6,10
 4003c58:	000f883a 	mov	r7,zero
 4003c5c:	80bfffc5 	stb	r2,-1(r16)
 4003c60:	400d3d80 	call	400d3d8 <__udivdi3>
 4003c64:	900d883a 	mov	r6,r18
 4003c68:	880f883a 	mov	r7,r17
 4003c6c:	843fffc4 	addi	r16,r16,-1
 4003c70:	1023883a 	mov	r17,r2
 4003c74:	1825883a 	mov	r18,r3
 4003c78:	303fee1e 	bne	r6,zero,4003c34 <___svfprintf_internal_r+0x15a0>
 4003c7c:	39c002a8 	cmpgeui	r7,r7,10
 4003c80:	383fec1e 	bne	r7,zero,4003c34 <___svfprintf_internal_r+0x15a0>
 4003c84:	8023883a 	mov	r17,r16
 4003c88:	d8802704 	addi	r2,sp,156
 4003c8c:	981b883a 	mov	r13,r19
 4003c90:	a825883a 	mov	r18,r21
 4003c94:	dc000717 	ldw	r16,28(sp)
 4003c98:	da000e17 	ldw	r8,56(sp)
 4003c9c:	a027883a 	mov	r19,r20
 4003ca0:	146bc83a 	sub	r21,r2,r17
 4003ca4:	003cce06 	br	4002fe0 <___svfprintf_internal_r+0x94c>
 4003ca8:	d8800517 	ldw	r2,20(sp)
 4003cac:	18800015 	stw	r2,0(r3)
 4003cb0:	003a9e06 	br	400272c <___svfprintf_internal_r+0x98>
 4003cb4:	d9801a04 	addi	r6,sp,104
 4003cb8:	900b883a 	mov	r5,r18
 4003cbc:	9809883a 	mov	r4,r19
 4003cc0:	4007d3c0 	call	4007d3c <__ssprint_r>
 4003cc4:	103b741e 	bne	r2,zero,4002a98 <___svfprintf_internal_r+0x404>
 4003cc8:	da001b17 	ldw	r8,108(sp)
 4003ccc:	d8c01c17 	ldw	r3,112(sp)
 4003cd0:	dd802904 	addi	r22,sp,164
 4003cd4:	42000044 	addi	r8,r8,1
 4003cd8:	df002704 	addi	fp,sp,156
 4003cdc:	003e4906 	br	4003604 <___svfprintf_internal_r+0xf70>
 4003ce0:	d9801a04 	addi	r6,sp,104
 4003ce4:	900b883a 	mov	r5,r18
 4003ce8:	9809883a 	mov	r4,r19
 4003cec:	da001115 	stw	r8,68(sp)
 4003cf0:	db400f15 	stw	r13,60(sp)
 4003cf4:	db800e15 	stw	r14,56(sp)
 4003cf8:	4007d3c0 	call	4007d3c <__ssprint_r>
 4003cfc:	103b661e 	bne	r2,zero,4002a98 <___svfprintf_internal_r+0x404>
 4003d00:	d8c01c17 	ldw	r3,112(sp)
 4003d04:	da001117 	ldw	r8,68(sp)
 4003d08:	db400f17 	ldw	r13,60(sp)
 4003d0c:	db800e17 	ldw	r14,56(sp)
 4003d10:	dd802704 	addi	r22,sp,156
 4003d14:	003b2306 	br	40029a4 <___svfprintf_internal_r+0x310>
 4003d18:	d8801b17 	ldw	r2,108(sp)
 4003d1c:	01010074 	movhi	r4,1025
 4003d20:	21089404 	addi	r4,r4,8784
 4003d24:	10800044 	addi	r2,r2,1
 4003d28:	18c00044 	addi	r3,r3,1
 4003d2c:	b1000015 	stw	r4,0(r22)
 4003d30:	01000044 	movi	r4,1
 4003d34:	d8801b15 	stw	r2,108(sp)
 4003d38:	b1000115 	stw	r4,4(r22)
 4003d3c:	d8c01c15 	stw	r3,112(sp)
 4003d40:	10800208 	cmpgei	r2,r2,8
 4003d44:	1001861e 	bne	r2,zero,4004360 <___svfprintf_internal_r+0x1ccc>
 4003d48:	b5800204 	addi	r22,r22,8
 4003d4c:	2800971e 	bne	r5,zero,4003fac <___svfprintf_internal_r+0x1918>
 4003d50:	d8800417 	ldw	r2,16(sp)
 4003d54:	d9000817 	ldw	r4,32(sp)
 4003d58:	1080004c 	andi	r2,r2,1
 4003d5c:	1104b03a 	or	r2,r2,r4
 4003d60:	103b3c26 	beq	r2,zero,4002a54 <___svfprintf_internal_r+0x3c0>
 4003d64:	d8800d17 	ldw	r2,52(sp)
 4003d68:	d9000c17 	ldw	r4,48(sp)
 4003d6c:	b0800015 	stw	r2,0(r22)
 4003d70:	d8801b17 	ldw	r2,108(sp)
 4003d74:	20c7883a 	add	r3,r4,r3
 4003d78:	b1000115 	stw	r4,4(r22)
 4003d7c:	10800044 	addi	r2,r2,1
 4003d80:	d8c01c15 	stw	r3,112(sp)
 4003d84:	d8801b15 	stw	r2,108(sp)
 4003d88:	11000208 	cmpgei	r4,r2,8
 4003d8c:	20018c1e 	bne	r4,zero,40043c0 <___svfprintf_internal_r+0x1d2c>
 4003d90:	b5800204 	addi	r22,r22,8
 4003d94:	d9000817 	ldw	r4,32(sp)
 4003d98:	10800044 	addi	r2,r2,1
 4003d9c:	d8801b15 	stw	r2,108(sp)
 4003da0:	20c7883a 	add	r3,r4,r3
 4003da4:	b4400015 	stw	r17,0(r22)
 4003da8:	b1000115 	stw	r4,4(r22)
 4003dac:	d8c01c15 	stw	r3,112(sp)
 4003db0:	10800208 	cmpgei	r2,r2,8
 4003db4:	103b2626 	beq	r2,zero,4002a50 <___svfprintf_internal_r+0x3bc>
 4003db8:	003e1b06 	br	4003628 <___svfprintf_internal_r+0xf94>
 4003dbc:	8825883a 	mov	r18,r17
 4003dc0:	003b3506 	br	4002a98 <___svfprintf_internal_r+0x404>
 4003dc4:	d9000917 	ldw	r4,36(sp)
 4003dc8:	d9400a17 	ldw	r5,40(sp)
 4003dcc:	da000615 	stw	r8,24(sp)
 4003dd0:	200d883a 	mov	r6,r4
 4003dd4:	280f883a 	mov	r7,r5
 4003dd8:	db000415 	stw	r12,16(sp)
 4003ddc:	401048c0 	call	401048c <__unorddf2>
 4003de0:	db000417 	ldw	r12,16(sp)
 4003de4:	da000617 	ldw	r8,24(sp)
 4003de8:	10021e1e 	bne	r2,zero,4004664 <___svfprintf_internal_r+0x1fd0>
 4003dec:	057ff7c4 	movi	r21,-33
 4003df0:	40bfffe0 	cmpeqi	r2,r8,-1
 4003df4:	e56a703a 	and	r21,fp,r21
 4003df8:	1001c01e 	bne	r2,zero,40044fc <___svfprintf_internal_r+0x1e68>
 4003dfc:	a88011d8 	cmpnei	r2,r21,71
 4003e00:	10004026 	beq	r2,zero,4003f04 <___svfprintf_internal_r+0x1870>
 4003e04:	60804014 	ori	r2,r12,256
 4003e08:	d8800415 	stw	r2,16(sp)
 4003e0c:	d8800a17 	ldw	r2,40(sp)
 4003e10:	10015c16 	blt	r2,zero,4004384 <___svfprintf_internal_r+0x1cf0>
 4003e14:	dd000a17 	ldw	r20,40(sp)
 4003e18:	d8000605 	stb	zero,24(sp)
 4003e1c:	e08019a0 	cmpeqi	r2,fp,102
 4003e20:	d8800f15 	stw	r2,60(sp)
 4003e24:	1000a01e 	bne	r2,zero,40040a8 <___svfprintf_internal_r+0x1a14>
 4003e28:	e08011a0 	cmpeqi	r2,fp,70
 4003e2c:	10009e1e 	bne	r2,zero,40040a8 <___svfprintf_internal_r+0x1a14>
 4003e30:	a8801158 	cmpnei	r2,r21,69
 4003e34:	10017c26 	beq	r2,zero,4004428 <___svfprintf_internal_r+0x1d94>
 4003e38:	d8801804 	addi	r2,sp,96
 4003e3c:	d8800315 	stw	r2,12(sp)
 4003e40:	d9400917 	ldw	r5,36(sp)
 4003e44:	d8801504 	addi	r2,sp,84
 4003e48:	d8800215 	stw	r2,8(sp)
 4003e4c:	d8801404 	addi	r2,sp,80
 4003e50:	da000015 	stw	r8,0(sp)
 4003e54:	9809883a 	mov	r4,r19
 4003e58:	d8800115 	stw	r2,4(sp)
 4003e5c:	01c00084 	movi	r7,2
 4003e60:	a00d883a 	mov	r6,r20
 4003e64:	db000815 	stw	r12,32(sp)
 4003e68:	da000715 	stw	r8,28(sp)
 4003e6c:	40049440 	call	4004944 <_dtoa_r>
 4003e70:	da000717 	ldw	r8,28(sp)
 4003e74:	e10019d8 	cmpnei	r4,fp,103
 4003e78:	db000817 	ldw	r12,32(sp)
 4003e7c:	1023883a 	mov	r17,r2
 4003e80:	4007883a 	mov	r3,r8
 4003e84:	20017c1e 	bne	r4,zero,4004478 <___svfprintf_internal_r+0x1de4>
 4003e88:	6080004c 	andi	r2,r12,1
 4003e8c:	10017c1e 	bne	r2,zero,4004480 <___svfprintf_internal_r+0x1dec>
 4003e90:	d8801417 	ldw	r2,80(sp)
 4003e94:	ad4011e0 	cmpeqi	r21,r21,71
 4003e98:	d8800715 	stw	r2,28(sp)
 4003e9c:	d8801817 	ldw	r2,96(sp)
 4003ea0:	1445c83a 	sub	r2,r2,r17
 4003ea4:	d8800815 	stw	r2,32(sp)
 4003ea8:	a800d226 	beq	r21,zero,40041f4 <___svfprintf_internal_r+0x1b60>
 4003eac:	d8c00717 	ldw	r3,28(sp)
 4003eb0:	18bfff50 	cmplti	r2,r3,-3
 4003eb4:	1000ce1e 	bne	r2,zero,40041f0 <___svfprintf_internal_r+0x1b5c>
 4003eb8:	40c0cd16 	blt	r8,r3,40041f0 <___svfprintf_internal_r+0x1b5c>
 4003ebc:	d8800717 	ldw	r2,28(sp)
 4003ec0:	d8c00817 	ldw	r3,32(sp)
 4003ec4:	10c19316 	blt	r2,r3,4004514 <___svfprintf_internal_r+0x1e80>
 4003ec8:	6300004c 	andi	r12,r12,1
 4003ecc:	6001d41e 	bne	r12,zero,4004620 <___svfprintf_internal_r+0x1f8c>
 4003ed0:	1029883a 	mov	r20,r2
 4003ed4:	1000010e 	bge	r2,zero,4003edc <___svfprintf_internal_r+0x1848>
 4003ed8:	0029883a 	mov	r20,zero
 4003edc:	dd400717 	ldw	r21,28(sp)
 4003ee0:	070019c4 	movi	fp,103
 4003ee4:	d8800607 	ldb	r2,24(sp)
 4003ee8:	10016b26 	beq	r2,zero,4004498 <___svfprintf_internal_r+0x1e04>
 4003eec:	00800b44 	movi	r2,45
 4003ef0:	d8801345 	stb	r2,77(sp)
 4003ef4:	d8800e17 	ldw	r2,56(sp)
 4003ef8:	0011883a 	mov	r8,zero
 4003efc:	d8800615 	stw	r2,24(sp)
 4003f00:	003c3f06 	br	4003000 <___svfprintf_internal_r+0x96c>
 4003f04:	403fbf1e 	bne	r8,zero,4003e04 <___svfprintf_internal_r+0x1770>
 4003f08:	02000044 	movi	r8,1
 4003f0c:	003fbd06 	br	4003e04 <___svfprintf_internal_r+0x1770>
 4003f10:	880f883a 	mov	r7,r17
 4003f14:	10800044 	addi	r2,r2,1
 4003f18:	1d47883a 	add	r3,r3,r21
 4003f1c:	b1c00015 	stw	r7,0(r22)
 4003f20:	003ac606 	br	4002a3c <___svfprintf_internal_r+0x3a8>
 4003f24:	d9801a04 	addi	r6,sp,104
 4003f28:	900b883a 	mov	r5,r18
 4003f2c:	9809883a 	mov	r4,r19
 4003f30:	4007d3c0 	call	4007d3c <__ssprint_r>
 4003f34:	103ad81e 	bne	r2,zero,4002a98 <___svfprintf_internal_r+0x404>
 4003f38:	d8c01c17 	ldw	r3,112(sp)
 4003f3c:	dd802704 	addi	r22,sp,156
 4003f40:	003cc406 	br	4003254 <___svfprintf_internal_r+0xbc0>
 4003f44:	d9801a04 	addi	r6,sp,104
 4003f48:	900b883a 	mov	r5,r18
 4003f4c:	9809883a 	mov	r4,r19
 4003f50:	da000e15 	stw	r8,56(sp)
 4003f54:	4007d3c0 	call	4007d3c <__ssprint_r>
 4003f58:	103acf1e 	bne	r2,zero,4002a98 <___svfprintf_internal_r+0x404>
 4003f5c:	d8c01c17 	ldw	r3,112(sp)
 4003f60:	da000e17 	ldw	r8,56(sp)
 4003f64:	dd802704 	addi	r22,sp,156
 4003f68:	003aab06 	br	4002a18 <___svfprintf_internal_r+0x384>
 4003f6c:	d9801a04 	addi	r6,sp,104
 4003f70:	900b883a 	mov	r5,r18
 4003f74:	9809883a 	mov	r4,r19
 4003f78:	4007d3c0 	call	4007d3c <__ssprint_r>
 4003f7c:	103ac61e 	bne	r2,zero,4002a98 <___svfprintf_internal_r+0x404>
 4003f80:	d8c01c17 	ldw	r3,112(sp)
 4003f84:	dd802704 	addi	r22,sp,156
 4003f88:	003cc406 	br	400329c <___svfprintf_internal_r+0xc08>
 4003f8c:	408001f0 	cmpltui	r2,r8,7
 4003f90:	402b883a 	mov	r21,r8
 4003f94:	10010126 	beq	r2,zero,400439c <___svfprintf_internal_r+0x1d08>
 4003f98:	04410074 	movhi	r17,1025
 4003f9c:	a829883a 	mov	r20,r21
 4003fa0:	d8c00615 	stw	r3,24(sp)
 4003fa4:	8c489204 	addi	r17,r17,8776
 4003fa8:	003a7106 	br	4002970 <___svfprintf_internal_r+0x2dc>
 4003fac:	d8800d17 	ldw	r2,52(sp)
 4003fb0:	d9000c17 	ldw	r4,48(sp)
 4003fb4:	b0800015 	stw	r2,0(r22)
 4003fb8:	d8801b17 	ldw	r2,108(sp)
 4003fbc:	20c7883a 	add	r3,r4,r3
 4003fc0:	b1000115 	stw	r4,4(r22)
 4003fc4:	10800044 	addi	r2,r2,1
 4003fc8:	d8c01c15 	stw	r3,112(sp)
 4003fcc:	d8801b15 	stw	r2,108(sp)
 4003fd0:	11000208 	cmpgei	r4,r2,8
 4003fd4:	2000fa1e 	bne	r4,zero,40043c0 <___svfprintf_internal_r+0x1d2c>
 4003fd8:	b5800204 	addi	r22,r22,8
 4003fdc:	283f6d0e 	bge	r5,zero,4003d94 <___svfprintf_internal_r+0x1700>
 4003fe0:	01c10074 	movhi	r7,1025
 4003fe4:	293ffc08 	cmpgei	r4,r5,-16
 4003fe8:	39c89504 	addi	r7,r7,8788
 4003fec:	0179c83a 	sub	fp,zero,r5
 4003ff0:	2001631e 	bne	r4,zero,4004580 <___svfprintf_internal_r+0x1eec>
 4003ff4:	dc000715 	stw	r16,28(sp)
 4003ff8:	05400404 	movi	r21,16
 4003ffc:	9021883a 	mov	r16,r18
 4004000:	3825883a 	mov	r18,r7
 4004004:	00000406 	br	4004018 <___svfprintf_internal_r+0x1984>
 4004008:	b5800204 	addi	r22,r22,8
 400400c:	e73ffc04 	addi	fp,fp,-16
 4004010:	e1800448 	cmpgei	r6,fp,17
 4004014:	30015726 	beq	r6,zero,4004574 <___svfprintf_internal_r+0x1ee0>
 4004018:	10800044 	addi	r2,r2,1
 400401c:	18c00404 	addi	r3,r3,16
 4004020:	b4800015 	stw	r18,0(r22)
 4004024:	b5400115 	stw	r21,4(r22)
 4004028:	d8c01c15 	stw	r3,112(sp)
 400402c:	d8801b15 	stw	r2,108(sp)
 4004030:	11800208 	cmpgei	r6,r2,8
 4004034:	303ff426 	beq	r6,zero,4004008 <___svfprintf_internal_r+0x1974>
 4004038:	d9801a04 	addi	r6,sp,104
 400403c:	800b883a 	mov	r5,r16
 4004040:	9809883a 	mov	r4,r19
 4004044:	4007d3c0 	call	4007d3c <__ssprint_r>
 4004048:	1001961e 	bne	r2,zero,40046a4 <___svfprintf_internal_r+0x2010>
 400404c:	d8c01c17 	ldw	r3,112(sp)
 4004050:	d8801b17 	ldw	r2,108(sp)
 4004054:	dd802704 	addi	r22,sp,156
 4004058:	003fec06 	br	400400c <___svfprintf_internal_r+0x1978>
 400405c:	800f883a 	mov	r7,r16
 4004060:	dc000717 	ldw	r16,28(sp)
 4004064:	8817883a 	mov	r11,r17
 4004068:	aa000044 	addi	r8,r21,1
 400406c:	e0800204 	addi	r2,fp,8
 4004070:	1ac7883a 	add	r3,r3,r11
 4004074:	e1c00015 	stw	r7,0(fp)
 4004078:	e2c00115 	stw	r11,4(fp)
 400407c:	d8c01c15 	stw	r3,112(sp)
 4004080:	da001b15 	stw	r8,108(sp)
 4004084:	41000208 	cmpgei	r4,r8,8
 4004088:	203f0a1e 	bne	r4,zero,4003cb4 <___svfprintf_internal_r+0x1620>
 400408c:	42000044 	addi	r8,r8,1
 4004090:	15800204 	addi	r22,r2,8
 4004094:	1039883a 	mov	fp,r2
 4004098:	003d5a06 	br	4003604 <___svfprintf_internal_r+0xf70>
 400409c:	04410074 	movhi	r17,1025
 40040a0:	8c488404 	addi	r17,r17,8720
 40040a4:	003afa06 	br	4002c90 <___svfprintf_internal_r+0x5fc>
 40040a8:	d8801804 	addi	r2,sp,96
 40040ac:	d8800315 	stw	r2,12(sp)
 40040b0:	d9400917 	ldw	r5,36(sp)
 40040b4:	d8801504 	addi	r2,sp,84
 40040b8:	d8800215 	stw	r2,8(sp)
 40040bc:	d8801404 	addi	r2,sp,80
 40040c0:	da000015 	stw	r8,0(sp)
 40040c4:	d8800115 	stw	r2,4(sp)
 40040c8:	01c000c4 	movi	r7,3
 40040cc:	a00d883a 	mov	r6,r20
 40040d0:	9809883a 	mov	r4,r19
 40040d4:	db000815 	stw	r12,32(sp)
 40040d8:	da000715 	stw	r8,28(sp)
 40040dc:	40049440 	call	4004944 <_dtoa_r>
 40040e0:	da000717 	ldw	r8,28(sp)
 40040e4:	1023883a 	mov	r17,r2
 40040e8:	db000817 	ldw	r12,32(sp)
 40040ec:	1207883a 	add	r3,r2,r8
 40040f0:	88800007 	ldb	r2,0(r17)
 40040f4:	10800c20 	cmpeqi	r2,r2,48
 40040f8:	1001321e 	bne	r2,zero,40045c4 <___svfprintf_internal_r+0x1f30>
 40040fc:	d8801417 	ldw	r2,80(sp)
 4004100:	1893883a 	add	r9,r3,r2
 4004104:	d9000917 	ldw	r4,36(sp)
 4004108:	000d883a 	mov	r6,zero
 400410c:	000f883a 	mov	r7,zero
 4004110:	a00b883a 	mov	r5,r20
 4004114:	da401115 	stw	r9,68(sp)
 4004118:	da000815 	stw	r8,32(sp)
 400411c:	db000715 	stw	r12,28(sp)
 4004120:	400f1dc0 	call	400f1dc <__eqdf2>
 4004124:	db000717 	ldw	r12,28(sp)
 4004128:	da000817 	ldw	r8,32(sp)
 400412c:	da401117 	ldw	r9,68(sp)
 4004130:	10009826 	beq	r2,zero,4004394 <___svfprintf_internal_r+0x1d00>
 4004134:	d8801817 	ldw	r2,96(sp)
 4004138:	1240062e 	bgeu	r2,r9,4004154 <___svfprintf_internal_r+0x1ac0>
 400413c:	01000c04 	movi	r4,48
 4004140:	10c00044 	addi	r3,r2,1
 4004144:	d8c01815 	stw	r3,96(sp)
 4004148:	11000005 	stb	r4,0(r2)
 400414c:	d8801817 	ldw	r2,96(sp)
 4004150:	127ffb36 	bltu	r2,r9,4004140 <___svfprintf_internal_r+0x1aac>
 4004154:	d8c01417 	ldw	r3,80(sp)
 4004158:	1445c83a 	sub	r2,r2,r17
 400415c:	ad4011d8 	cmpnei	r21,r21,71
 4004160:	d8c00715 	stw	r3,28(sp)
 4004164:	d8800815 	stw	r2,32(sp)
 4004168:	a83f5026 	beq	r21,zero,4003eac <___svfprintf_internal_r+0x1818>
 400416c:	d8800f17 	ldw	r2,60(sp)
 4004170:	10002026 	beq	r2,zero,40041f4 <___svfprintf_internal_r+0x1b60>
 4004174:	d8c00717 	ldw	r3,28(sp)
 4004178:	6080004c 	andi	r2,r12,1
 400417c:	1204b03a 	or	r2,r2,r8
 4004180:	00c0c10e 	bge	zero,r3,4004488 <___svfprintf_internal_r+0x1df4>
 4004184:	10013f1e 	bne	r2,zero,4004684 <___svfprintf_internal_r+0x1ff0>
 4004188:	dd400717 	ldw	r21,28(sp)
 400418c:	a829883a 	mov	r20,r21
 4004190:	003f5406 	br	4003ee4 <___svfprintf_internal_r+0x1850>
 4004194:	d8800617 	ldw	r2,24(sp)
 4004198:	002b883a 	mov	r21,zero
 400419c:	d8c00615 	stw	r3,24(sp)
 40041a0:	15000017 	ldw	r20,0(r2)
 40041a4:	00800044 	movi	r2,1
 40041a8:	003a5e06 	br	4002b24 <___svfprintf_internal_r+0x490>
 40041ac:	d8800617 	ldw	r2,24(sp)
 40041b0:	002b883a 	mov	r21,zero
 40041b4:	d8c00615 	stw	r3,24(sp)
 40041b8:	15000017 	ldw	r20,0(r2)
 40041bc:	003bd606 	br	4003118 <___svfprintf_internal_r+0xa84>
 40041c0:	d8800617 	ldw	r2,24(sp)
 40041c4:	002b883a 	mov	r21,zero
 40041c8:	d8c00615 	stw	r3,24(sp)
 40041cc:	15000017 	ldw	r20,0(r2)
 40041d0:	0005883a 	mov	r2,zero
 40041d4:	003a5306 	br	4002b24 <___svfprintf_internal_r+0x490>
 40041d8:	d8800617 	ldw	r2,24(sp)
 40041dc:	d8c00615 	stw	r3,24(sp)
 40041e0:	15000017 	ldw	r20,0(r2)
 40041e4:	a02bd7fa 	srai	r21,r20,31
 40041e8:	a805883a 	mov	r2,r21
 40041ec:	003b0306 	br	4002dfc <___svfprintf_internal_r+0x768>
 40041f0:	e73fff84 	addi	fp,fp,-2
 40041f4:	d8800717 	ldw	r2,28(sp)
 40041f8:	df001645 	stb	fp,89(sp)
 40041fc:	157fffc4 	addi	r21,r2,-1
 4004200:	dd401415 	stw	r21,80(sp)
 4004204:	a8008316 	blt	r21,zero,4004414 <___svfprintf_internal_r+0x1d80>
 4004208:	00800ac4 	movi	r2,43
 400420c:	d8801685 	stb	r2,90(sp)
 4004210:	a8800290 	cmplti	r2,r21,10
 4004214:	1000fb1e 	bne	r2,zero,4004604 <___svfprintf_internal_r+0x1f70>
 4004218:	d98019c4 	addi	r6,sp,103
 400421c:	9029883a 	mov	r20,r18
 4004220:	dc400715 	stw	r17,28(sp)
 4004224:	8025883a 	mov	r18,r16
 4004228:	db000f15 	stw	r12,60(sp)
 400422c:	3021883a 	mov	r16,r6
 4004230:	a809883a 	mov	r4,r21
 4004234:	01400284 	movi	r5,10
 4004238:	4001cf00 	call	4001cf0 <__modsi3>
 400423c:	10800c04 	addi	r2,r2,48
 4004240:	a809883a 	mov	r4,r21
 4004244:	80bfffc5 	stb	r2,-1(r16)
 4004248:	01400284 	movi	r5,10
 400424c:	4001c700 	call	4001c70 <__divsi3>
 4004250:	a9001908 	cmpgei	r4,r21,100
 4004254:	8023883a 	mov	r17,r16
 4004258:	102b883a 	mov	r21,r2
 400425c:	843fffc4 	addi	r16,r16,-1
 4004260:	203ff31e 	bne	r4,zero,4004230 <___svfprintf_internal_r+0x1b9c>
 4004264:	800d883a 	mov	r6,r16
 4004268:	11000c04 	addi	r4,r2,48
 400426c:	9021883a 	mov	r16,r18
 4004270:	a025883a 	mov	r18,r20
 4004274:	8829883a 	mov	r20,r17
 4004278:	a0bfff84 	addi	r2,r20,-2
 400427c:	313fffc5 	stb	r4,-1(r6)
 4004280:	d8c019c4 	addi	r3,sp,103
 4004284:	db000f17 	ldw	r12,60(sp)
 4004288:	dc400717 	ldw	r17,28(sp)
 400428c:	10c11d2e 	bgeu	r2,r3,4004704 <___svfprintf_internal_r+0x2070>
 4004290:	d8c016c4 	addi	r3,sp,91
 4004294:	00000106 	br	400429c <___svfprintf_internal_r+0x1c08>
 4004298:	11000003 	ldbu	r4,0(r2)
 400429c:	19000005 	stb	r4,0(r3)
 40042a0:	10800044 	addi	r2,r2,1
 40042a4:	d90019c4 	addi	r4,sp,103
 40042a8:	18c00044 	addi	r3,r3,1
 40042ac:	113ffa1e 	bne	r2,r4,4004298 <___svfprintf_internal_r+0x1c04>
 40042b0:	d8801a44 	addi	r2,sp,105
 40042b4:	d8c016c4 	addi	r3,sp,91
 40042b8:	1505c83a 	sub	r2,r2,r20
 40042bc:	1885883a 	add	r2,r3,r2
 40042c0:	d8c01644 	addi	r3,sp,89
 40042c4:	10c5c83a 	sub	r2,r2,r3
 40042c8:	d8801015 	stw	r2,64(sp)
 40042cc:	d8c00817 	ldw	r3,32(sp)
 40042d0:	d9001017 	ldw	r4,64(sp)
 40042d4:	18800088 	cmpgei	r2,r3,2
 40042d8:	192b883a 	add	r21,r3,r4
 40042dc:	1000da26 	beq	r2,zero,4004648 <___svfprintf_internal_r+0x1fb4>
 40042e0:	d8800c17 	ldw	r2,48(sp)
 40042e4:	a8ab883a 	add	r21,r21,r2
 40042e8:	a829883a 	mov	r20,r21
 40042ec:	a800010e 	bge	r21,zero,40042f4 <___svfprintf_internal_r+0x1c60>
 40042f0:	0029883a 	mov	r20,zero
 40042f4:	d8000715 	stw	zero,28(sp)
 40042f8:	003efa06 	br	4003ee4 <___svfprintf_internal_r+0x1850>
 40042fc:	800f883a 	mov	r7,r16
 4004300:	dc000e17 	ldw	r16,56(sp)
 4004304:	10800044 	addi	r2,r2,1
 4004308:	1d47883a 	add	r3,r3,r21
 400430c:	d8801b15 	stw	r2,108(sp)
 4004310:	b1c00015 	stw	r7,0(r22)
 4004314:	b5400115 	stw	r21,4(r22)
 4004318:	d8c01c15 	stw	r3,112(sp)
 400431c:	10800208 	cmpgei	r2,r2,8
 4004320:	1000321e 	bne	r2,zero,40043ec <___svfprintf_internal_r+0x1d58>
 4004324:	b5800204 	addi	r22,r22,8
 4004328:	003d3906 	br	4003810 <___svfprintf_internal_r+0x117c>
 400432c:	00800b44 	movi	r2,45
 4004330:	d8801345 	stb	r2,77(sp)
 4004334:	03400b44 	movi	r13,45
 4004338:	003a5106 	br	4002c80 <___svfprintf_internal_r+0x5ec>
 400433c:	d9801a04 	addi	r6,sp,104
 4004340:	900b883a 	mov	r5,r18
 4004344:	9809883a 	mov	r4,r19
 4004348:	4007d3c0 	call	4007d3c <__ssprint_r>
 400434c:	1039d21e 	bne	r2,zero,4002a98 <___svfprintf_internal_r+0x404>
 4004350:	dd401417 	ldw	r21,80(sp)
 4004354:	d8c01c17 	ldw	r3,112(sp)
 4004358:	dd802704 	addi	r22,sp,156
 400435c:	003d3b06 	br	400384c <___svfprintf_internal_r+0x11b8>
 4004360:	d9801a04 	addi	r6,sp,104
 4004364:	900b883a 	mov	r5,r18
 4004368:	9809883a 	mov	r4,r19
 400436c:	4007d3c0 	call	4007d3c <__ssprint_r>
 4004370:	1039c91e 	bne	r2,zero,4002a98 <___svfprintf_internal_r+0x404>
 4004374:	d9401417 	ldw	r5,80(sp)
 4004378:	d8c01c17 	ldw	r3,112(sp)
 400437c:	dd802704 	addi	r22,sp,156
 4004380:	003e7206 	br	4003d4c <___svfprintf_internal_r+0x16b8>
 4004384:	1520003c 	xorhi	r20,r2,32768
 4004388:	00800b44 	movi	r2,45
 400438c:	d8800605 	stb	r2,24(sp)
 4004390:	003ea206 	br	4003e1c <___svfprintf_internal_r+0x1788>
 4004394:	4805883a 	mov	r2,r9
 4004398:	003f6e06 	br	4004154 <___svfprintf_internal_r+0x1ac0>
 400439c:	05400184 	movi	r21,6
 40043a0:	003efd06 	br	4003f98 <___svfprintf_internal_r+0x1904>
 40043a4:	d9401345 	stb	r5,77(sp)
 40043a8:	00396b06 	br	4002958 <___svfprintf_internal_r+0x2c4>
 40043ac:	d9801a04 	addi	r6,sp,104
 40043b0:	900b883a 	mov	r5,r18
 40043b4:	9809883a 	mov	r4,r19
 40043b8:	4007d3c0 	call	4007d3c <__ssprint_r>
 40043bc:	0039b606 	br	4002a98 <___svfprintf_internal_r+0x404>
 40043c0:	d9801a04 	addi	r6,sp,104
 40043c4:	900b883a 	mov	r5,r18
 40043c8:	9809883a 	mov	r4,r19
 40043cc:	4007d3c0 	call	4007d3c <__ssprint_r>
 40043d0:	1039b11e 	bne	r2,zero,4002a98 <___svfprintf_internal_r+0x404>
 40043d4:	d9401417 	ldw	r5,80(sp)
 40043d8:	d8c01c17 	ldw	r3,112(sp)
 40043dc:	d8801b17 	ldw	r2,108(sp)
 40043e0:	dd802704 	addi	r22,sp,156
 40043e4:	283e6b0e 	bge	r5,zero,4003d94 <___svfprintf_internal_r+0x1700>
 40043e8:	003efd06 	br	4003fe0 <___svfprintf_internal_r+0x194c>
 40043ec:	d9801a04 	addi	r6,sp,104
 40043f0:	900b883a 	mov	r5,r18
 40043f4:	9809883a 	mov	r4,r19
 40043f8:	4007d3c0 	call	4007d3c <__ssprint_r>
 40043fc:	1039a61e 	bne	r2,zero,4002a98 <___svfprintf_internal_r+0x404>
 4004400:	d8c01c17 	ldw	r3,112(sp)
 4004404:	dd802704 	addi	r22,sp,156
 4004408:	003d0106 	br	4003810 <___svfprintf_internal_r+0x117c>
 400440c:	db000417 	ldw	r12,16(sp)
 4004410:	003a8706 	br	4002e30 <___svfprintf_internal_r+0x79c>
 4004414:	05400044 	movi	r21,1
 4004418:	a8abc83a 	sub	r21,r21,r2
 400441c:	00800b44 	movi	r2,45
 4004420:	d8801685 	stb	r2,90(sp)
 4004424:	003f7a06 	br	4004210 <___svfprintf_internal_r+0x1b7c>
 4004428:	d8801804 	addi	r2,sp,96
 400442c:	d8800315 	stw	r2,12(sp)
 4004430:	d9400917 	ldw	r5,36(sp)
 4004434:	d8801504 	addi	r2,sp,84
 4004438:	40c00044 	addi	r3,r8,1
 400443c:	d8800215 	stw	r2,8(sp)
 4004440:	d8801404 	addi	r2,sp,80
 4004444:	d8c00015 	stw	r3,0(sp)
 4004448:	d8800115 	stw	r2,4(sp)
 400444c:	01c00084 	movi	r7,2
 4004450:	a00d883a 	mov	r6,r20
 4004454:	9809883a 	mov	r4,r19
 4004458:	db001115 	stw	r12,68(sp)
 400445c:	da000815 	stw	r8,32(sp)
 4004460:	d8c00715 	stw	r3,28(sp)
 4004464:	40049440 	call	4004944 <_dtoa_r>
 4004468:	d8c00717 	ldw	r3,28(sp)
 400446c:	da000817 	ldw	r8,32(sp)
 4004470:	db001117 	ldw	r12,68(sp)
 4004474:	1023883a 	mov	r17,r2
 4004478:	e08011d8 	cmpnei	r2,fp,71
 400447c:	103e8226 	beq	r2,zero,4003e88 <___svfprintf_internal_r+0x17f4>
 4004480:	88d3883a 	add	r9,r17,r3
 4004484:	003f1f06 	br	4004104 <___svfprintf_internal_r+0x1a70>
 4004488:	1000821e 	bne	r2,zero,4004694 <___svfprintf_internal_r+0x2000>
 400448c:	05000044 	movi	r20,1
 4004490:	05400044 	movi	r21,1
 4004494:	003e9306 	br	4003ee4 <___svfprintf_internal_r+0x1850>
 4004498:	d8800e17 	ldw	r2,56(sp)
 400449c:	db401343 	ldbu	r13,77(sp)
 40044a0:	0011883a 	mov	r8,zero
 40044a4:	d8800615 	stw	r2,24(sp)
 40044a8:	003ad106 	br	4002ff0 <___svfprintf_internal_r+0x95c>
 40044ac:	d9801a04 	addi	r6,sp,104
 40044b0:	900b883a 	mov	r5,r18
 40044b4:	9809883a 	mov	r4,r19
 40044b8:	4007d3c0 	call	4007d3c <__ssprint_r>
 40044bc:	1039761e 	bne	r2,zero,4002a98 <___svfprintf_internal_r+0x404>
 40044c0:	d8c01c17 	ldw	r3,112(sp)
 40044c4:	dd802704 	addi	r22,sp,156
 40044c8:	a83cce0e 	bge	r21,zero,4003804 <___svfprintf_internal_r+0x1170>
 40044cc:	003d9d06 	br	4003b44 <___svfprintf_internal_r+0x14b0>
 40044d0:	d9801a04 	addi	r6,sp,104
 40044d4:	900b883a 	mov	r5,r18
 40044d8:	9809883a 	mov	r4,r19
 40044dc:	4007d3c0 	call	4007d3c <__ssprint_r>
 40044e0:	10396d1e 	bne	r2,zero,4002a98 <___svfprintf_internal_r+0x404>
 40044e4:	d8801417 	ldw	r2,80(sp)
 40044e8:	d9000817 	ldw	r4,32(sp)
 40044ec:	d8c01c17 	ldw	r3,112(sp)
 40044f0:	dd802704 	addi	r22,sp,156
 40044f4:	2085c83a 	sub	r2,r4,r2
 40044f8:	003ce806 	br	400389c <___svfprintf_internal_r+0x1208>
 40044fc:	02000184 	movi	r8,6
 4004500:	003e4006 	br	4003e04 <___svfprintf_internal_r+0x1770>
 4004504:	4029883a 	mov	r20,r8
 4004508:	d8c00615 	stw	r3,24(sp)
 400450c:	402b883a 	mov	r21,r8
 4004510:	00391706 	br	4002970 <___svfprintf_internal_r+0x2dc>
 4004514:	d8800817 	ldw	r2,32(sp)
 4004518:	d8c00c17 	ldw	r3,48(sp)
 400451c:	10eb883a 	add	r21,r2,r3
 4004520:	d8800717 	ldw	r2,28(sp)
 4004524:	00800316 	blt	zero,r2,4004534 <___svfprintf_internal_r+0x1ea0>
 4004528:	d8800717 	ldw	r2,28(sp)
 400452c:	a8abc83a 	sub	r21,r21,r2
 4004530:	ad400044 	addi	r21,r21,1
 4004534:	a829883a 	mov	r20,r21
 4004538:	a8003e16 	blt	r21,zero,4004634 <___svfprintf_internal_r+0x1fa0>
 400453c:	070019c4 	movi	fp,103
 4004540:	003e6806 	br	4003ee4 <___svfprintf_internal_r+0x1850>
 4004544:	d9401345 	stb	r5,77(sp)
 4004548:	003b1b06 	br	40031b8 <___svfprintf_internal_r+0xb24>
 400454c:	d9401345 	stb	r5,77(sp)
 4004550:	003a6c06 	br	4002f04 <___svfprintf_internal_r+0x870>
 4004554:	d9401345 	stb	r5,77(sp)
 4004558:	003a5306 	br	4002ea8 <___svfprintf_internal_r+0x814>
 400455c:	d9401345 	stb	r5,77(sp)
 4004560:	003ae306 	br	40030f0 <___svfprintf_internal_r+0xa5c>
 4004564:	d9401345 	stb	r5,77(sp)
 4004568:	00399a06 	br	4002bd4 <___svfprintf_internal_r+0x540>
 400456c:	d9401345 	stb	r5,77(sp)
 4004570:	003a1a06 	br	4002ddc <___svfprintf_internal_r+0x748>
 4004574:	900f883a 	mov	r7,r18
 4004578:	8025883a 	mov	r18,r16
 400457c:	dc000717 	ldw	r16,28(sp)
 4004580:	10800044 	addi	r2,r2,1
 4004584:	1f07883a 	add	r3,r3,fp
 4004588:	b1c00015 	stw	r7,0(r22)
 400458c:	b7000115 	stw	fp,4(r22)
 4004590:	d8c01c15 	stw	r3,112(sp)
 4004594:	d8801b15 	stw	r2,108(sp)
 4004598:	11000208 	cmpgei	r4,r2,8
 400459c:	203dfc26 	beq	r4,zero,4003d90 <___svfprintf_internal_r+0x16fc>
 40045a0:	d9801a04 	addi	r6,sp,104
 40045a4:	900b883a 	mov	r5,r18
 40045a8:	9809883a 	mov	r4,r19
 40045ac:	4007d3c0 	call	4007d3c <__ssprint_r>
 40045b0:	1039391e 	bne	r2,zero,4002a98 <___svfprintf_internal_r+0x404>
 40045b4:	d8c01c17 	ldw	r3,112(sp)
 40045b8:	d8801b17 	ldw	r2,108(sp)
 40045bc:	dd802704 	addi	r22,sp,156
 40045c0:	003df406 	br	4003d94 <___svfprintf_internal_r+0x1700>
 40045c4:	d9000917 	ldw	r4,36(sp)
 40045c8:	000d883a 	mov	r6,zero
 40045cc:	000f883a 	mov	r7,zero
 40045d0:	a00b883a 	mov	r5,r20
 40045d4:	d8c01115 	stw	r3,68(sp)
 40045d8:	da000815 	stw	r8,32(sp)
 40045dc:	db000715 	stw	r12,28(sp)
 40045e0:	400f1dc0 	call	400f1dc <__eqdf2>
 40045e4:	db000717 	ldw	r12,28(sp)
 40045e8:	da000817 	ldw	r8,32(sp)
 40045ec:	d8c01117 	ldw	r3,68(sp)
 40045f0:	103ec226 	beq	r2,zero,40040fc <___svfprintf_internal_r+0x1a68>
 40045f4:	00800044 	movi	r2,1
 40045f8:	1205c83a 	sub	r2,r2,r8
 40045fc:	d8801415 	stw	r2,80(sp)
 4004600:	003ebf06 	br	4004100 <___svfprintf_internal_r+0x1a6c>
 4004604:	00800c04 	movi	r2,48
 4004608:	ad400c04 	addi	r21,r21,48
 400460c:	d88016c5 	stb	r2,91(sp)
 4004610:	00800104 	movi	r2,4
 4004614:	dd401705 	stb	r21,92(sp)
 4004618:	d8801015 	stw	r2,64(sp)
 400461c:	003f2b06 	br	40042cc <___svfprintf_internal_r+0x1c38>
 4004620:	d8800717 	ldw	r2,28(sp)
 4004624:	d8c00c17 	ldw	r3,48(sp)
 4004628:	10eb883a 	add	r21,r2,r3
 400462c:	a829883a 	mov	r20,r21
 4004630:	a83fc20e 	bge	r21,zero,400453c <___svfprintf_internal_r+0x1ea8>
 4004634:	0029883a 	mov	r20,zero
 4004638:	003fc006 	br	400453c <___svfprintf_internal_r+0x1ea8>
 400463c:	00bfffc4 	movi	r2,-1
 4004640:	d8800515 	stw	r2,20(sp)
 4004644:	00391706 	br	4002aa4 <___svfprintf_internal_r+0x410>
 4004648:	6080004c 	andi	r2,r12,1
 400464c:	d8800715 	stw	r2,28(sp)
 4004650:	103f231e 	bne	r2,zero,40042e0 <___svfprintf_internal_r+0x1c4c>
 4004654:	a829883a 	mov	r20,r21
 4004658:	a83e220e 	bge	r21,zero,4003ee4 <___svfprintf_internal_r+0x1850>
 400465c:	0029883a 	mov	r20,zero
 4004660:	003e2006 	br	4003ee4 <___svfprintf_internal_r+0x1850>
 4004664:	d8800a17 	ldw	r2,40(sp)
 4004668:	10001616 	blt	r2,zero,40046c4 <___svfprintf_internal_r+0x2030>
 400466c:	db401343 	ldbu	r13,77(sp)
 4004670:	e0801210 	cmplti	r2,fp,72
 4004674:	1000101e 	bne	r2,zero,40046b8 <___svfprintf_internal_r+0x2024>
 4004678:	04410074 	movhi	r17,1025
 400467c:	8c488704 	addi	r17,r17,8732
 4004680:	00398306 	br	4002c90 <___svfprintf_internal_r+0x5fc>
 4004684:	d8800c17 	ldw	r2,48(sp)
 4004688:	18ab883a 	add	r21,r3,r2
 400468c:	aa2b883a 	add	r21,r21,r8
 4004690:	003ff006 	br	4004654 <___svfprintf_internal_r+0x1fc0>
 4004694:	d8800c17 	ldw	r2,48(sp)
 4004698:	15400044 	addi	r21,r2,1
 400469c:	aa2b883a 	add	r21,r21,r8
 40046a0:	003fec06 	br	4004654 <___svfprintf_internal_r+0x1fc0>
 40046a4:	8025883a 	mov	r18,r16
 40046a8:	0038fb06 	br	4002a98 <___svfprintf_internal_r+0x404>
 40046ac:	b005883a 	mov	r2,r22
 40046b0:	39c89504 	addi	r7,r7,8788
 40046b4:	003e6e06 	br	4004070 <___svfprintf_internal_r+0x19dc>
 40046b8:	04410074 	movhi	r17,1025
 40046bc:	8c488604 	addi	r17,r17,8728
 40046c0:	00397306 	br	4002c90 <___svfprintf_internal_r+0x5fc>
 40046c4:	00800b44 	movi	r2,45
 40046c8:	d8801345 	stb	r2,77(sp)
 40046cc:	03400b44 	movi	r13,45
 40046d0:	003fe706 	br	4004670 <___svfprintf_internal_r+0x1fdc>
 40046d4:	d8c00617 	ldw	r3,24(sp)
 40046d8:	1a000017 	ldw	r8,0(r3)
 40046dc:	18c00104 	addi	r3,r3,4
 40046e0:	4000010e 	bge	r8,zero,40046e8 <___svfprintf_internal_r+0x2054>
 40046e4:	023fffc4 	movi	r8,-1
 40046e8:	bf000043 	ldbu	fp,1(r23)
 40046ec:	d8c00615 	stw	r3,24(sp)
 40046f0:	102f883a 	mov	r23,r2
 40046f4:	e2c03fcc 	andi	r11,fp,255
 40046f8:	5ac0201c 	xori	r11,r11,128
 40046fc:	5affe004 	addi	r11,r11,-128
 4004700:	00382206 	br	400278c <___svfprintf_internal_r+0xf8>
 4004704:	00800084 	movi	r2,2
 4004708:	d8801015 	stw	r2,64(sp)
 400470c:	003eef06 	br	40042cc <___svfprintf_internal_r+0x1c38>
 4004710:	00800304 	movi	r2,12
 4004714:	98800015 	stw	r2,0(r19)
 4004718:	00bfffc4 	movi	r2,-1
 400471c:	d8800515 	stw	r2,20(sp)
 4004720:	0038e006 	br	4002aa4 <___svfprintf_internal_r+0x410>

04004724 <quorem>:
 4004724:	defff204 	addi	sp,sp,-56
 4004728:	dc400515 	stw	r17,20(sp)
 400472c:	20800417 	ldw	r2,16(r4)
 4004730:	2c400417 	ldw	r17,16(r5)
 4004734:	dfc00d15 	stw	ra,52(sp)
 4004738:	df000c15 	stw	fp,48(sp)
 400473c:	ddc00b15 	stw	r23,44(sp)
 4004740:	dd800a15 	stw	r22,40(sp)
 4004744:	dd400915 	stw	r21,36(sp)
 4004748:	dd000815 	stw	r20,32(sp)
 400474c:	dcc00715 	stw	r19,28(sp)
 4004750:	dc800615 	stw	r18,24(sp)
 4004754:	dc000415 	stw	r16,16(sp)
 4004758:	d9000115 	stw	r4,4(sp)
 400475c:	d9400215 	stw	r5,8(sp)
 4004760:	14407616 	blt	r2,r17,400493c <quorem+0x218>
 4004764:	8c7fffc4 	addi	r17,r17,-1
 4004768:	882a90ba 	slli	r21,r17,2
 400476c:	2f000504 	addi	fp,r5,20
 4004770:	25800504 	addi	r22,r4,20
 4004774:	e565883a 	add	r18,fp,r21
 4004778:	b545883a 	add	r2,r22,r21
 400477c:	95c00017 	ldw	r23,0(r18)
 4004780:	15000017 	ldw	r20,0(r2)
 4004784:	dd800015 	stw	r22,0(sp)
 4004788:	bdc00044 	addi	r23,r23,1
 400478c:	b80b883a 	mov	r5,r23
 4004790:	a009883a 	mov	r4,r20
 4004794:	d8800315 	stw	r2,12(sp)
 4004798:	4001d640 	call	4001d64 <__udivsi3>
 400479c:	1021883a 	mov	r16,r2
 40047a0:	a5c02f36 	bltu	r20,r23,4004860 <quorem+0x13c>
 40047a4:	e029883a 	mov	r20,fp
 40047a8:	002b883a 	mov	r21,zero
 40047ac:	002f883a 	mov	r23,zero
 40047b0:	a4c00017 	ldw	r19,0(r20)
 40047b4:	800b883a 	mov	r5,r16
 40047b8:	b5800104 	addi	r22,r22,4
 40047bc:	993fffcc 	andi	r4,r19,65535
 40047c0:	4001e240 	call	4001e24 <__mulsi3>
 40047c4:	9808d43a 	srli	r4,r19,16
 40047c8:	800b883a 	mov	r5,r16
 40047cc:	156b883a 	add	r21,r2,r21
 40047d0:	4001e240 	call	4001e24 <__mulsi3>
 40047d4:	b0ffff17 	ldw	r3,-4(r22)
 40047d8:	a80ad43a 	srli	r5,r21,16
 40047dc:	a93fffcc 	andi	r4,r21,65535
 40047e0:	19bfffcc 	andi	r6,r3,65535
 40047e4:	b909c83a 	sub	r4,r23,r4
 40047e8:	2189883a 	add	r4,r4,r6
 40047ec:	1806d43a 	srli	r3,r3,16
 40047f0:	1145883a 	add	r2,r2,r5
 40047f4:	200bd43a 	srai	r5,r4,16
 40047f8:	11bfffcc 	andi	r6,r2,65535
 40047fc:	1987c83a 	sub	r3,r3,r6
 4004800:	1947883a 	add	r3,r3,r5
 4004804:	180a943a 	slli	r5,r3,16
 4004808:	213fffcc 	andi	r4,r4,65535
 400480c:	a5000104 	addi	r20,r20,4
 4004810:	2908b03a 	or	r4,r5,r4
 4004814:	b13fff15 	stw	r4,-4(r22)
 4004818:	102ad43a 	srli	r21,r2,16
 400481c:	182fd43a 	srai	r23,r3,16
 4004820:	953fe32e 	bgeu	r18,r20,40047b0 <quorem+0x8c>
 4004824:	d8c00317 	ldw	r3,12(sp)
 4004828:	18800017 	ldw	r2,0(r3)
 400482c:	10000c1e 	bne	r2,zero,4004860 <quorem+0x13c>
 4004830:	d8800017 	ldw	r2,0(sp)
 4004834:	1d7fff04 	addi	r21,r3,-4
 4004838:	15400436 	bltu	r2,r21,400484c <quorem+0x128>
 400483c:	00000606 	br	4004858 <quorem+0x134>
 4004840:	d8800017 	ldw	r2,0(sp)
 4004844:	8c7fffc4 	addi	r17,r17,-1
 4004848:	1540032e 	bgeu	r2,r21,4004858 <quorem+0x134>
 400484c:	a8800017 	ldw	r2,0(r21)
 4004850:	ad7fff04 	addi	r21,r21,-4
 4004854:	103ffa26 	beq	r2,zero,4004840 <quorem+0x11c>
 4004858:	d8800117 	ldw	r2,4(sp)
 400485c:	14400415 	stw	r17,16(r2)
 4004860:	d9400217 	ldw	r5,8(sp)
 4004864:	d9000117 	ldw	r4,4(sp)
 4004868:	40075100 	call	4007510 <__mcmp>
 400486c:	10002616 	blt	r2,zero,4004908 <quorem+0x1e4>
 4004870:	d9400017 	ldw	r5,0(sp)
 4004874:	84000044 	addi	r16,r16,1
 4004878:	0007883a 	mov	r3,zero
 400487c:	e1000017 	ldw	r4,0(fp)
 4004880:	29800017 	ldw	r6,0(r5)
 4004884:	29400104 	addi	r5,r5,4
 4004888:	20bfffcc 	andi	r2,r4,65535
 400488c:	1887c83a 	sub	r3,r3,r2
 4004890:	30bfffcc 	andi	r2,r6,65535
 4004894:	1885883a 	add	r2,r3,r2
 4004898:	2008d43a 	srli	r4,r4,16
 400489c:	3006d43a 	srli	r3,r6,16
 40048a0:	100fd43a 	srai	r7,r2,16
 40048a4:	11bfffcc 	andi	r6,r2,65535
 40048a8:	1907c83a 	sub	r3,r3,r4
 40048ac:	19c7883a 	add	r3,r3,r7
 40048b0:	1804943a 	slli	r2,r3,16
 40048b4:	e7000104 	addi	fp,fp,4
 40048b8:	1807d43a 	srai	r3,r3,16
 40048bc:	1184b03a 	or	r2,r2,r6
 40048c0:	28bfff15 	stw	r2,-4(r5)
 40048c4:	973fed2e 	bgeu	r18,fp,400487c <quorem+0x158>
 40048c8:	880490ba 	slli	r2,r17,2
 40048cc:	d9000017 	ldw	r4,0(sp)
 40048d0:	2085883a 	add	r2,r4,r2
 40048d4:	10c00017 	ldw	r3,0(r2)
 40048d8:	18000b1e 	bne	r3,zero,4004908 <quorem+0x1e4>
 40048dc:	10bfff04 	addi	r2,r2,-4
 40048e0:	20800436 	bltu	r4,r2,40048f4 <quorem+0x1d0>
 40048e4:	00000606 	br	4004900 <quorem+0x1dc>
 40048e8:	d8c00017 	ldw	r3,0(sp)
 40048ec:	8c7fffc4 	addi	r17,r17,-1
 40048f0:	1880032e 	bgeu	r3,r2,4004900 <quorem+0x1dc>
 40048f4:	10c00017 	ldw	r3,0(r2)
 40048f8:	10bfff04 	addi	r2,r2,-4
 40048fc:	183ffa26 	beq	r3,zero,40048e8 <quorem+0x1c4>
 4004900:	d8800117 	ldw	r2,4(sp)
 4004904:	14400415 	stw	r17,16(r2)
 4004908:	8005883a 	mov	r2,r16
 400490c:	dfc00d17 	ldw	ra,52(sp)
 4004910:	df000c17 	ldw	fp,48(sp)
 4004914:	ddc00b17 	ldw	r23,44(sp)
 4004918:	dd800a17 	ldw	r22,40(sp)
 400491c:	dd400917 	ldw	r21,36(sp)
 4004920:	dd000817 	ldw	r20,32(sp)
 4004924:	dcc00717 	ldw	r19,28(sp)
 4004928:	dc800617 	ldw	r18,24(sp)
 400492c:	dc400517 	ldw	r17,20(sp)
 4004930:	dc000417 	ldw	r16,16(sp)
 4004934:	dec00e04 	addi	sp,sp,56
 4004938:	f800283a 	ret
 400493c:	0005883a 	mov	r2,zero
 4004940:	003ff206 	br	400490c <quorem+0x1e8>

04004944 <_dtoa_r>:
 4004944:	20801017 	ldw	r2,64(r4)
 4004948:	deffe204 	addi	sp,sp,-120
 400494c:	ddc01b15 	stw	r23,108(sp)
 4004950:	dcc01715 	stw	r19,92(sp)
 4004954:	dc801615 	stw	r18,88(sp)
 4004958:	dc401515 	stw	r17,84(sp)
 400495c:	dc001415 	stw	r16,80(sp)
 4004960:	dfc01d15 	stw	ra,116(sp)
 4004964:	df001c15 	stw	fp,112(sp)
 4004968:	dd801a15 	stw	r22,104(sp)
 400496c:	dd401915 	stw	r21,100(sp)
 4004970:	dd001815 	stw	r20,96(sp)
 4004974:	d9c00215 	stw	r7,8(sp)
 4004978:	dc002017 	ldw	r16,128(sp)
 400497c:	202f883a 	mov	r23,r4
 4004980:	3025883a 	mov	r18,r6
 4004984:	2827883a 	mov	r19,r5
 4004988:	3023883a 	mov	r17,r6
 400498c:	10000826 	beq	r2,zero,40049b0 <_dtoa_r+0x6c>
 4004990:	21801117 	ldw	r6,68(r4)
 4004994:	00c00044 	movi	r3,1
 4004998:	100b883a 	mov	r5,r2
 400499c:	1986983a 	sll	r3,r3,r6
 40049a0:	11800115 	stw	r6,4(r2)
 40049a4:	10c00215 	stw	r3,8(r2)
 40049a8:	4006b000 	call	4006b00 <_Bfree>
 40049ac:	b8001015 	stw	zero,64(r23)
 40049b0:	90018816 	blt	r18,zero,4004fd4 <_dtoa_r+0x690>
 40049b4:	80000015 	stw	zero,0(r16)
 40049b8:	909ffc2c 	andhi	r2,r18,32752
 40049bc:	00dffc34 	movhi	r3,32752
 40049c0:	10c18d26 	beq	r2,r3,4004ff8 <_dtoa_r+0x6b4>
 40049c4:	000d883a 	mov	r6,zero
 40049c8:	000f883a 	mov	r7,zero
 40049cc:	9809883a 	mov	r4,r19
 40049d0:	880b883a 	mov	r5,r17
 40049d4:	400f1dc0 	call	400f1dc <__eqdf2>
 40049d8:	1000191e 	bne	r2,zero,4004a40 <_dtoa_r+0xfc>
 40049dc:	d8c01f17 	ldw	r3,124(sp)
 40049e0:	00800044 	movi	r2,1
 40049e4:	18800015 	stw	r2,0(r3)
 40049e8:	d8802117 	ldw	r2,132(sp)
 40049ec:	1002f926 	beq	r2,zero,40055d4 <_dtoa_r+0xc90>
 40049f0:	d9002117 	ldw	r4,132(sp)
 40049f4:	00810074 	movhi	r2,1025
 40049f8:	10889444 	addi	r2,r2,8785
 40049fc:	00c10074 	movhi	r3,1025
 4004a00:	20800015 	stw	r2,0(r4)
 4004a04:	18889404 	addi	r2,r3,8784
 4004a08:	d8800115 	stw	r2,4(sp)
 4004a0c:	d8800117 	ldw	r2,4(sp)
 4004a10:	dfc01d17 	ldw	ra,116(sp)
 4004a14:	df001c17 	ldw	fp,112(sp)
 4004a18:	ddc01b17 	ldw	r23,108(sp)
 4004a1c:	dd801a17 	ldw	r22,104(sp)
 4004a20:	dd401917 	ldw	r21,100(sp)
 4004a24:	dd001817 	ldw	r20,96(sp)
 4004a28:	dcc01717 	ldw	r19,92(sp)
 4004a2c:	dc801617 	ldw	r18,88(sp)
 4004a30:	dc401517 	ldw	r17,84(sp)
 4004a34:	dc001417 	ldw	r16,80(sp)
 4004a38:	dec01e04 	addi	sp,sp,120
 4004a3c:	f800283a 	ret
 4004a40:	d8801204 	addi	r2,sp,72
 4004a44:	9020d53a 	srli	r16,r18,20
 4004a48:	d8800015 	stw	r2,0(sp)
 4004a4c:	d9c01304 	addi	r7,sp,76
 4004a50:	980b883a 	mov	r5,r19
 4004a54:	880d883a 	mov	r6,r17
 4004a58:	b809883a 	mov	r4,r23
 4004a5c:	40078f80 	call	40078f8 <__d2b>
 4004a60:	1039883a 	mov	fp,r2
 4004a64:	8001771e 	bne	r16,zero,4005044 <_dtoa_r+0x700>
 4004a68:	dd001217 	ldw	r20,72(sp)
 4004a6c:	dc001317 	ldw	r16,76(sp)
 4004a70:	a421883a 	add	r16,r20,r16
 4004a74:	80810c84 	addi	r2,r16,1074
 4004a78:	10c00850 	cmplti	r3,r2,33
 4004a7c:	1802e51e 	bne	r3,zero,4005614 <_dtoa_r+0xcd0>
 4004a80:	01001004 	movi	r4,64
 4004a84:	2085c83a 	sub	r2,r4,r2
 4004a88:	81010484 	addi	r4,r16,1042
 4004a8c:	90a4983a 	sll	r18,r18,r2
 4004a90:	9908d83a 	srl	r4,r19,r4
 4004a94:	9108b03a 	or	r4,r18,r4
 4004a98:	40106180 	call	4010618 <__floatunsidf>
 4004a9c:	1009883a 	mov	r4,r2
 4004aa0:	017f8434 	movhi	r5,65040
 4004aa4:	00800044 	movi	r2,1
 4004aa8:	194b883a 	add	r5,r3,r5
 4004aac:	843fffc4 	addi	r16,r16,-1
 4004ab0:	d8800a15 	stw	r2,40(sp)
 4004ab4:	000d883a 	mov	r6,zero
 4004ab8:	01cffe34 	movhi	r7,16376
 4004abc:	400fbd80 	call	400fbd8 <__subdf3>
 4004ac0:	0198dbf4 	movhi	r6,25455
 4004ac4:	01cff4f4 	movhi	r7,16339
 4004ac8:	3190d844 	addi	r6,r6,17249
 4004acc:	39e1e9c4 	addi	r7,r7,-30809
 4004ad0:	1009883a 	mov	r4,r2
 4004ad4:	180b883a 	mov	r5,r3
 4004ad8:	400f42c0 	call	400f42c <__muldf3>
 4004adc:	01a2d874 	movhi	r6,35681
 4004ae0:	01cff1f4 	movhi	r7,16327
 4004ae4:	31b22cc4 	addi	r6,r6,-14157
 4004ae8:	39e28a04 	addi	r7,r7,-30168
 4004aec:	180b883a 	mov	r5,r3
 4004af0:	1009883a 	mov	r4,r2
 4004af4:	400dfbc0 	call	400dfbc <__adddf3>
 4004af8:	8009883a 	mov	r4,r16
 4004afc:	102b883a 	mov	r21,r2
 4004b00:	1825883a 	mov	r18,r3
 4004b04:	40105600 	call	4010560 <__floatsidf>
 4004b08:	019427f4 	movhi	r6,20639
 4004b0c:	01cff4f4 	movhi	r7,16339
 4004b10:	319e7ec4 	addi	r6,r6,31227
 4004b14:	39d104c4 	addi	r7,r7,17427
 4004b18:	1009883a 	mov	r4,r2
 4004b1c:	180b883a 	mov	r5,r3
 4004b20:	400f42c0 	call	400f42c <__muldf3>
 4004b24:	100d883a 	mov	r6,r2
 4004b28:	180f883a 	mov	r7,r3
 4004b2c:	a809883a 	mov	r4,r21
 4004b30:	900b883a 	mov	r5,r18
 4004b34:	400dfbc0 	call	400dfbc <__adddf3>
 4004b38:	1009883a 	mov	r4,r2
 4004b3c:	180b883a 	mov	r5,r3
 4004b40:	1025883a 	mov	r18,r2
 4004b44:	182d883a 	mov	r22,r3
 4004b48:	40104e00 	call	40104e0 <__fixdfsi>
 4004b4c:	000d883a 	mov	r6,zero
 4004b50:	000f883a 	mov	r7,zero
 4004b54:	9009883a 	mov	r4,r18
 4004b58:	b00b883a 	mov	r5,r22
 4004b5c:	102b883a 	mov	r21,r2
 4004b60:	d8800315 	stw	r2,12(sp)
 4004b64:	400f3440 	call	400f344 <__ledf2>
 4004b68:	10028f16 	blt	r2,zero,40055a8 <_dtoa_r+0xc64>
 4004b6c:	dc800317 	ldw	r18,12(sp)
 4004b70:	a421c83a 	sub	r16,r20,r16
 4004b74:	85bfffc4 	addi	r22,r16,-1
 4004b78:	908005e8 	cmpgeui	r2,r18,23
 4004b7c:	1002821e 	bne	r2,zero,4005588 <_dtoa_r+0xc44>
 4004b80:	900690fa 	slli	r3,r18,3
 4004b84:	00810074 	movhi	r2,1025
 4004b88:	1088dd04 	addi	r2,r2,9076
 4004b8c:	10c5883a 	add	r2,r2,r3
 4004b90:	11800017 	ldw	r6,0(r2)
 4004b94:	11c00117 	ldw	r7,4(r2)
 4004b98:	9809883a 	mov	r4,r19
 4004b9c:	880b883a 	mov	r5,r17
 4004ba0:	400f3440 	call	400f344 <__ledf2>
 4004ba4:	1002550e 	bge	r2,zero,40054fc <_dtoa_r+0xbb8>
 4004ba8:	90bfffc4 	addi	r2,r18,-1
 4004bac:	d8800315 	stw	r2,12(sp)
 4004bb0:	d8000915 	stw	zero,36(sp)
 4004bb4:	b0027716 	blt	r22,zero,4005594 <_dtoa_r+0xc50>
 4004bb8:	d8000615 	stw	zero,24(sp)
 4004bbc:	d8800317 	ldw	r2,12(sp)
 4004bc0:	1002510e 	bge	r2,zero,4005508 <_dtoa_r+0xbc4>
 4004bc4:	d8800317 	ldw	r2,12(sp)
 4004bc8:	d8c00617 	ldw	r3,24(sp)
 4004bcc:	d8000315 	stw	zero,12(sp)
 4004bd0:	d8800415 	stw	r2,16(sp)
 4004bd4:	1887c83a 	sub	r3,r3,r2
 4004bd8:	d8c00615 	stw	r3,24(sp)
 4004bdc:	0087c83a 	sub	r3,zero,r2
 4004be0:	d8c00815 	stw	r3,32(sp)
 4004be4:	d8c00217 	ldw	r3,8(sp)
 4004be8:	188002a8 	cmpgeui	r2,r3,10
 4004bec:	10024d1e 	bne	r2,zero,4005524 <_dtoa_r+0xbe0>
 4004bf0:	18800190 	cmplti	r2,r3,6
 4004bf4:	10028b1e 	bne	r2,zero,4005624 <_dtoa_r+0xce0>
 4004bf8:	18bfff04 	addi	r2,r3,-4
 4004bfc:	d8800215 	stw	r2,8(sp)
 4004c00:	0021883a 	mov	r16,zero
 4004c04:	d8c00217 	ldw	r3,8(sp)
 4004c08:	18800120 	cmpeqi	r2,r3,4
 4004c0c:	10035d1e 	bne	r2,zero,4005984 <_dtoa_r+0x1040>
 4004c10:	18800160 	cmpeqi	r2,r3,5
 4004c14:	10031b1e 	bne	r2,zero,4005884 <_dtoa_r+0xf40>
 4004c18:	188000a0 	cmpeqi	r2,r3,2
 4004c1c:	10024d26 	beq	r2,zero,4005554 <_dtoa_r+0xc10>
 4004c20:	d8000715 	stw	zero,28(sp)
 4004c24:	d8801e17 	ldw	r2,120(sp)
 4004c28:	0083260e 	bge	zero,r2,40058c4 <_dtoa_r+0xf80>
 4004c2c:	d8800b15 	stw	r2,44(sp)
 4004c30:	d8800515 	stw	r2,20(sp)
 4004c34:	100d883a 	mov	r6,r2
 4004c38:	b8001115 	stw	zero,68(r23)
 4004c3c:	30800610 	cmplti	r2,r6,24
 4004c40:	1004f11e 	bne	r2,zero,4006008 <_dtoa_r+0x16c4>
 4004c44:	00c00044 	movi	r3,1
 4004c48:	00800104 	movi	r2,4
 4004c4c:	1085883a 	add	r2,r2,r2
 4004c50:	11000504 	addi	r4,r2,20
 4004c54:	180b883a 	mov	r5,r3
 4004c58:	18c00044 	addi	r3,r3,1
 4004c5c:	313ffb2e 	bgeu	r6,r4,4004c4c <_dtoa_r+0x308>
 4004c60:	b9401115 	stw	r5,68(r23)
 4004c64:	b809883a 	mov	r4,r23
 4004c68:	4006a5c0 	call	4006a5c <_Balloc>
 4004c6c:	d8800115 	stw	r2,4(sp)
 4004c70:	1004de26 	beq	r2,zero,4005fec <_dtoa_r+0x16a8>
 4004c74:	d8800117 	ldw	r2,4(sp)
 4004c78:	b8801015 	stw	r2,64(r23)
 4004c7c:	d8800517 	ldw	r2,20(sp)
 4004c80:	108003e8 	cmpgeui	r2,r2,15
 4004c84:	1001021e 	bne	r2,zero,4005090 <_dtoa_r+0x74c>
 4004c88:	80010126 	beq	r16,zero,4005090 <_dtoa_r+0x74c>
 4004c8c:	d9000417 	ldw	r4,16(sp)
 4004c90:	01038b0e 	bge	zero,r4,4005ac0 <_dtoa_r+0x117c>
 4004c94:	208003cc 	andi	r2,r4,15
 4004c98:	100690fa 	slli	r3,r2,3
 4004c9c:	2029d13a 	srai	r20,r4,4
 4004ca0:	00810074 	movhi	r2,1025
 4004ca4:	1088dd04 	addi	r2,r2,9076
 4004ca8:	10c5883a 	add	r2,r2,r3
 4004cac:	a0c0040c 	andi	r3,r20,16
 4004cb0:	12800017 	ldw	r10,0(r2)
 4004cb4:	12400117 	ldw	r9,4(r2)
 4004cb8:	18032c26 	beq	r3,zero,400596c <_dtoa_r+0x1028>
 4004cbc:	00810074 	movhi	r2,1025
 4004cc0:	1088d304 	addi	r2,r2,9036
 4004cc4:	11800817 	ldw	r6,32(r2)
 4004cc8:	11c00917 	ldw	r7,36(r2)
 4004ccc:	9809883a 	mov	r4,r19
 4004cd0:	880b883a 	mov	r5,r17
 4004cd4:	da400e15 	stw	r9,56(sp)
 4004cd8:	da800d15 	stw	r10,52(sp)
 4004cdc:	400e8ac0 	call	400e8ac <__divdf3>
 4004ce0:	da800d17 	ldw	r10,52(sp)
 4004ce4:	da400e17 	ldw	r9,56(sp)
 4004ce8:	a50003cc 	andi	r20,r20,15
 4004cec:	d8800c15 	stw	r2,48(sp)
 4004cf0:	1825883a 	mov	r18,r3
 4004cf4:	054000c4 	movi	r21,3
 4004cf8:	a0001126 	beq	r20,zero,4004d40 <_dtoa_r+0x3fc>
 4004cfc:	04010074 	movhi	r16,1025
 4004d00:	8408d304 	addi	r16,r16,9036
 4004d04:	5009883a 	mov	r4,r10
 4004d08:	480b883a 	mov	r5,r9
 4004d0c:	a180004c 	andi	r6,r20,1
 4004d10:	30000626 	beq	r6,zero,4004d2c <_dtoa_r+0x3e8>
 4004d14:	81800017 	ldw	r6,0(r16)
 4004d18:	81c00117 	ldw	r7,4(r16)
 4004d1c:	ad400044 	addi	r21,r21,1
 4004d20:	400f42c0 	call	400f42c <__muldf3>
 4004d24:	1009883a 	mov	r4,r2
 4004d28:	180b883a 	mov	r5,r3
 4004d2c:	a029d07a 	srai	r20,r20,1
 4004d30:	84000204 	addi	r16,r16,8
 4004d34:	a03ff51e 	bne	r20,zero,4004d0c <_dtoa_r+0x3c8>
 4004d38:	2015883a 	mov	r10,r4
 4004d3c:	2813883a 	mov	r9,r5
 4004d40:	d9000c17 	ldw	r4,48(sp)
 4004d44:	900b883a 	mov	r5,r18
 4004d48:	500d883a 	mov	r6,r10
 4004d4c:	480f883a 	mov	r7,r9
 4004d50:	400e8ac0 	call	400e8ac <__divdf3>
 4004d54:	1021883a 	mov	r16,r2
 4004d58:	1825883a 	mov	r18,r3
 4004d5c:	d8800917 	ldw	r2,36(sp)
 4004d60:	10000626 	beq	r2,zero,4004d7c <_dtoa_r+0x438>
 4004d64:	000d883a 	mov	r6,zero
 4004d68:	01cffc34 	movhi	r7,16368
 4004d6c:	8009883a 	mov	r4,r16
 4004d70:	900b883a 	mov	r5,r18
 4004d74:	400f3440 	call	400f344 <__ledf2>
 4004d78:	10044416 	blt	r2,zero,4005e8c <_dtoa_r+0x1548>
 4004d7c:	a809883a 	mov	r4,r21
 4004d80:	40105600 	call	4010560 <__floatsidf>
 4004d84:	800d883a 	mov	r6,r16
 4004d88:	900f883a 	mov	r7,r18
 4004d8c:	1009883a 	mov	r4,r2
 4004d90:	180b883a 	mov	r5,r3
 4004d94:	400f42c0 	call	400f42c <__muldf3>
 4004d98:	000d883a 	mov	r6,zero
 4004d9c:	01d00734 	movhi	r7,16412
 4004da0:	1009883a 	mov	r4,r2
 4004da4:	180b883a 	mov	r5,r3
 4004da8:	400dfbc0 	call	400dfbc <__adddf3>
 4004dac:	1029883a 	mov	r20,r2
 4004db0:	00bf3034 	movhi	r2,64704
 4004db4:	1885883a 	add	r2,r3,r2
 4004db8:	d8800c15 	stw	r2,48(sp)
 4004dbc:	d8800517 	ldw	r2,20(sp)
 4004dc0:	10032226 	beq	r2,zero,4005a4c <_dtoa_r+0x1108>
 4004dc4:	d8800417 	ldw	r2,16(sp)
 4004dc8:	d8801115 	stw	r2,68(sp)
 4004dcc:	d8800517 	ldw	r2,20(sp)
 4004dd0:	d8800d15 	stw	r2,52(sp)
 4004dd4:	d8800d17 	ldw	r2,52(sp)
 4004dd8:	900b883a 	mov	r5,r18
 4004ddc:	8009883a 	mov	r4,r16
 4004de0:	10bfffc4 	addi	r2,r2,-1
 4004de4:	100690fa 	slli	r3,r2,3
 4004de8:	00810074 	movhi	r2,1025
 4004dec:	1088dd04 	addi	r2,r2,9076
 4004df0:	10c5883a 	add	r2,r2,r3
 4004df4:	12800017 	ldw	r10,0(r2)
 4004df8:	12c00117 	ldw	r11,4(r2)
 4004dfc:	da800f15 	stw	r10,60(sp)
 4004e00:	dac00e15 	stw	r11,56(sp)
 4004e04:	40104e00 	call	40104e0 <__fixdfsi>
 4004e08:	1009883a 	mov	r4,r2
 4004e0c:	10800c04 	addi	r2,r2,48
 4004e10:	d8801015 	stw	r2,64(sp)
 4004e14:	40105600 	call	4010560 <__floatsidf>
 4004e18:	8009883a 	mov	r4,r16
 4004e1c:	100d883a 	mov	r6,r2
 4004e20:	180f883a 	mov	r7,r3
 4004e24:	900b883a 	mov	r5,r18
 4004e28:	400fbd80 	call	400fbd8 <__subdf3>
 4004e2c:	d9000117 	ldw	r4,4(sp)
 4004e30:	dac00e17 	ldw	r11,56(sp)
 4004e34:	da800f17 	ldw	r10,60(sp)
 4004e38:	1825883a 	mov	r18,r3
 4004e3c:	d8c00717 	ldw	r3,28(sp)
 4004e40:	25400044 	addi	r21,r4,1
 4004e44:	1021883a 	mov	r16,r2
 4004e48:	500d883a 	mov	r6,r10
 4004e4c:	580f883a 	mov	r7,r11
 4004e50:	1803b626 	beq	r3,zero,4005d2c <_dtoa_r+0x13e8>
 4004e54:	0009883a 	mov	r4,zero
 4004e58:	014ff834 	movhi	r5,16352
 4004e5c:	400e8ac0 	call	400e8ac <__divdf3>
 4004e60:	d9c00c17 	ldw	r7,48(sp)
 4004e64:	a00d883a 	mov	r6,r20
 4004e68:	1009883a 	mov	r4,r2
 4004e6c:	180b883a 	mov	r5,r3
 4004e70:	400fbd80 	call	400fbd8 <__subdf3>
 4004e74:	d9000117 	ldw	r4,4(sp)
 4004e78:	1029883a 	mov	r20,r2
 4004e7c:	d8801017 	ldw	r2,64(sp)
 4004e80:	800d883a 	mov	r6,r16
 4004e84:	900f883a 	mov	r7,r18
 4004e88:	20800005 	stb	r2,0(r4)
 4004e8c:	180b883a 	mov	r5,r3
 4004e90:	a009883a 	mov	r4,r20
 4004e94:	d8c00c15 	stw	r3,48(sp)
 4004e98:	400f25c0 	call	400f25c <__gedf2>
 4004e9c:	0083e716 	blt	zero,r2,4005e3c <_dtoa_r+0x14f8>
 4004ea0:	0005883a 	mov	r2,zero
 4004ea4:	dd800e15 	stw	r22,56(sp)
 4004ea8:	dc400f15 	stw	r17,60(sp)
 4004eac:	dd800d17 	ldw	r22,52(sp)
 4004eb0:	dc400c17 	ldw	r17,48(sp)
 4004eb4:	ddc00d15 	stw	r23,52(sp)
 4004eb8:	dcc00c15 	stw	r19,48(sp)
 4004ebc:	1027883a 	mov	r19,r2
 4004ec0:	00002606 	br	4004f5c <_dtoa_r+0x618>
 4004ec4:	9cc00044 	addi	r19,r19,1
 4004ec8:	9d806d0e 	bge	r19,r22,4005080 <_dtoa_r+0x73c>
 4004ecc:	a009883a 	mov	r4,r20
 4004ed0:	880b883a 	mov	r5,r17
 4004ed4:	000d883a 	mov	r6,zero
 4004ed8:	01d00934 	movhi	r7,16420
 4004edc:	400f42c0 	call	400f42c <__muldf3>
 4004ee0:	000d883a 	mov	r6,zero
 4004ee4:	01d00934 	movhi	r7,16420
 4004ee8:	8009883a 	mov	r4,r16
 4004eec:	900b883a 	mov	r5,r18
 4004ef0:	1029883a 	mov	r20,r2
 4004ef4:	1823883a 	mov	r17,r3
 4004ef8:	400f42c0 	call	400f42c <__muldf3>
 4004efc:	180b883a 	mov	r5,r3
 4004f00:	1009883a 	mov	r4,r2
 4004f04:	1821883a 	mov	r16,r3
 4004f08:	1025883a 	mov	r18,r2
 4004f0c:	40104e00 	call	40104e0 <__fixdfsi>
 4004f10:	1009883a 	mov	r4,r2
 4004f14:	102f883a 	mov	r23,r2
 4004f18:	40105600 	call	4010560 <__floatsidf>
 4004f1c:	9009883a 	mov	r4,r18
 4004f20:	800b883a 	mov	r5,r16
 4004f24:	100d883a 	mov	r6,r2
 4004f28:	180f883a 	mov	r7,r3
 4004f2c:	400fbd80 	call	400fbd8 <__subdf3>
 4004f30:	ad400044 	addi	r21,r21,1
 4004f34:	ba000c04 	addi	r8,r23,48
 4004f38:	aa3fffc5 	stb	r8,-1(r21)
 4004f3c:	a00d883a 	mov	r6,r20
 4004f40:	880f883a 	mov	r7,r17
 4004f44:	1009883a 	mov	r4,r2
 4004f48:	180b883a 	mov	r5,r3
 4004f4c:	1021883a 	mov	r16,r2
 4004f50:	1825883a 	mov	r18,r3
 4004f54:	400f3440 	call	400f344 <__ledf2>
 4004f58:	10040516 	blt	r2,zero,4005f70 <_dtoa_r+0x162c>
 4004f5c:	800d883a 	mov	r6,r16
 4004f60:	900f883a 	mov	r7,r18
 4004f64:	0009883a 	mov	r4,zero
 4004f68:	014ffc34 	movhi	r5,16368
 4004f6c:	400fbd80 	call	400fbd8 <__subdf3>
 4004f70:	a00d883a 	mov	r6,r20
 4004f74:	880f883a 	mov	r7,r17
 4004f78:	1009883a 	mov	r4,r2
 4004f7c:	180b883a 	mov	r5,r3
 4004f80:	400f3440 	call	400f344 <__ledf2>
 4004f84:	103fcf0e 	bge	r2,zero,4004ec4 <_dtoa_r+0x580>
 4004f88:	d8801117 	ldw	r2,68(sp)
 4004f8c:	ddc00d17 	ldw	r23,52(sp)
 4004f90:	d9000117 	ldw	r4,4(sp)
 4004f94:	10800044 	addi	r2,r2,1
 4004f98:	d8800415 	stw	r2,16(sp)
 4004f9c:	a829883a 	mov	r20,r21
 4004fa0:	00000106 	br	4004fa8 <_dtoa_r+0x664>
 4004fa4:	a103da26 	beq	r20,r4,4005f10 <_dtoa_r+0x15cc>
 4004fa8:	a0ffffc3 	ldbu	r3,-1(r20)
 4004fac:	a02b883a 	mov	r21,r20
 4004fb0:	a53fffc4 	addi	r20,r20,-1
 4004fb4:	18803fcc 	andi	r2,r3,255
 4004fb8:	1080201c 	xori	r2,r2,128
 4004fbc:	10bfe004 	addi	r2,r2,-128
 4004fc0:	10800e60 	cmpeqi	r2,r2,57
 4004fc4:	103ff71e 	bne	r2,zero,4004fa4 <_dtoa_r+0x660>
 4004fc8:	18c00044 	addi	r3,r3,1
 4004fcc:	a0c00005 	stb	r3,0(r20)
 4004fd0:	00013f06 	br	40054d0 <_dtoa_r+0xb8c>
 4004fd4:	04600034 	movhi	r17,32768
 4004fd8:	8c7fffc4 	addi	r17,r17,-1
 4004fdc:	9462703a 	and	r17,r18,r17
 4004fe0:	00800044 	movi	r2,1
 4004fe4:	8825883a 	mov	r18,r17
 4004fe8:	80800015 	stw	r2,0(r16)
 4004fec:	00dffc34 	movhi	r3,32752
 4004ff0:	909ffc2c 	andhi	r2,r18,32752
 4004ff4:	10fe731e 	bne	r2,r3,40049c4 <_dtoa_r+0x80>
 4004ff8:	d9001f17 	ldw	r4,124(sp)
 4004ffc:	00800434 	movhi	r2,16
 4005000:	10bfffc4 	addi	r2,r2,-1
 4005004:	9084703a 	and	r2,r18,r2
 4005008:	00c9c3c4 	movi	r3,9999
 400500c:	20c00015 	stw	r3,0(r4)
 4005010:	14e6b03a 	or	r19,r2,r19
 4005014:	9800141e 	bne	r19,zero,4005068 <_dtoa_r+0x724>
 4005018:	d8802117 	ldw	r2,132(sp)
 400501c:	10041226 	beq	r2,zero,4006068 <_dtoa_r+0x1724>
 4005020:	00810074 	movhi	r2,1025
 4005024:	1007883a 	mov	r3,r2
 4005028:	18c89e04 	addi	r3,r3,8824
 400502c:	00810074 	movhi	r2,1025
 4005030:	d8c00115 	stw	r3,4(sp)
 4005034:	1088a004 	addi	r2,r2,8832
 4005038:	d8c02117 	ldw	r3,132(sp)
 400503c:	18800015 	stw	r2,0(r3)
 4005040:	003e7206 	br	4004a0c <_dtoa_r+0xc8>
 4005044:	01400434 	movhi	r5,16
 4005048:	297fffc4 	addi	r5,r5,-1
 400504c:	894a703a 	and	r5,r17,r5
 4005050:	dd001217 	ldw	r20,72(sp)
 4005054:	9809883a 	mov	r4,r19
 4005058:	294ffc34 	orhi	r5,r5,16368
 400505c:	843f0044 	addi	r16,r16,-1023
 4005060:	d8000a15 	stw	zero,40(sp)
 4005064:	003e9306 	br	4004ab4 <_dtoa_r+0x170>
 4005068:	d8802117 	ldw	r2,132(sp)
 400506c:	1001fe1e 	bne	r2,zero,4005868 <_dtoa_r+0xf24>
 4005070:	00810074 	movhi	r2,1025
 4005074:	10889d04 	addi	r2,r2,8820
 4005078:	d8800115 	stw	r2,4(sp)
 400507c:	003e6306 	br	4004a0c <_dtoa_r+0xc8>
 4005080:	dd800e17 	ldw	r22,56(sp)
 4005084:	ddc00d17 	ldw	r23,52(sp)
 4005088:	dc400f17 	ldw	r17,60(sp)
 400508c:	dcc00c17 	ldw	r19,48(sp)
 4005090:	d8801317 	ldw	r2,76(sp)
 4005094:	10006e16 	blt	r2,zero,4005250 <_dtoa_r+0x90c>
 4005098:	d9000417 	ldw	r4,16(sp)
 400509c:	20c003c8 	cmpgei	r3,r4,15
 40050a0:	18006b1e 	bne	r3,zero,4005250 <_dtoa_r+0x90c>
 40050a4:	200690fa 	slli	r3,r4,3
 40050a8:	00810074 	movhi	r2,1025
 40050ac:	1088dd04 	addi	r2,r2,9076
 40050b0:	10c5883a 	add	r2,r2,r3
 40050b4:	14000017 	ldw	r16,0(r2)
 40050b8:	14800117 	ldw	r18,4(r2)
 40050bc:	d8801e17 	ldw	r2,120(sp)
 40050c0:	1000150e 	bge	r2,zero,4005118 <_dtoa_r+0x7d4>
 40050c4:	d8800517 	ldw	r2,20(sp)
 40050c8:	00801316 	blt	zero,r2,4005118 <_dtoa_r+0x7d4>
 40050cc:	d8800517 	ldw	r2,20(sp)
 40050d0:	1002721e 	bne	r2,zero,4005a9c <_dtoa_r+0x1158>
 40050d4:	8009883a 	mov	r4,r16
 40050d8:	000d883a 	mov	r6,zero
 40050dc:	01d00534 	movhi	r7,16404
 40050e0:	900b883a 	mov	r5,r18
 40050e4:	400f42c0 	call	400f42c <__muldf3>
 40050e8:	100d883a 	mov	r6,r2
 40050ec:	180f883a 	mov	r7,r3
 40050f0:	9809883a 	mov	r4,r19
 40050f4:	880b883a 	mov	r5,r17
 40050f8:	400f3440 	call	400f344 <__ledf2>
 40050fc:	0029883a 	mov	r20,zero
 4005100:	0021883a 	mov	r16,zero
 4005104:	00820216 	blt	zero,r2,4005910 <_dtoa_r+0xfcc>
 4005108:	d8801e17 	ldw	r2,120(sp)
 400510c:	dd400117 	ldw	r21,4(sp)
 4005110:	00a2303a 	nor	r17,zero,r2
 4005114:	00020406 	br	4005928 <_dtoa_r+0xfe4>
 4005118:	800d883a 	mov	r6,r16
 400511c:	900f883a 	mov	r7,r18
 4005120:	9809883a 	mov	r4,r19
 4005124:	880b883a 	mov	r5,r17
 4005128:	400e8ac0 	call	400e8ac <__divdf3>
 400512c:	180b883a 	mov	r5,r3
 4005130:	1009883a 	mov	r4,r2
 4005134:	40104e00 	call	40104e0 <__fixdfsi>
 4005138:	1009883a 	mov	r4,r2
 400513c:	102b883a 	mov	r21,r2
 4005140:	40105600 	call	4010560 <__floatsidf>
 4005144:	800d883a 	mov	r6,r16
 4005148:	900f883a 	mov	r7,r18
 400514c:	1009883a 	mov	r4,r2
 4005150:	180b883a 	mov	r5,r3
 4005154:	400f42c0 	call	400f42c <__muldf3>
 4005158:	100d883a 	mov	r6,r2
 400515c:	9809883a 	mov	r4,r19
 4005160:	880b883a 	mov	r5,r17
 4005164:	180f883a 	mov	r7,r3
 4005168:	400fbd80 	call	400fbd8 <__subdf3>
 400516c:	d9800117 	ldw	r6,4(sp)
 4005170:	dd800517 	ldw	r22,20(sp)
 4005174:	1009883a 	mov	r4,r2
 4005178:	a8800c04 	addi	r2,r21,48
 400517c:	30800005 	stb	r2,0(r6)
 4005180:	b0800060 	cmpeqi	r2,r22,1
 4005184:	180b883a 	mov	r5,r3
 4005188:	35000044 	addi	r20,r6,1
 400518c:	10029f1e 	bne	r2,zero,4005c0c <_dtoa_r+0x12c8>
 4005190:	04400044 	movi	r17,1
 4005194:	ddc00215 	stw	r23,8(sp)
 4005198:	00001c06 	br	400520c <_dtoa_r+0x8c8>
 400519c:	800d883a 	mov	r6,r16
 40051a0:	900f883a 	mov	r7,r18
 40051a4:	a809883a 	mov	r4,r21
 40051a8:	980b883a 	mov	r5,r19
 40051ac:	400e8ac0 	call	400e8ac <__divdf3>
 40051b0:	180b883a 	mov	r5,r3
 40051b4:	1009883a 	mov	r4,r2
 40051b8:	40104e00 	call	40104e0 <__fixdfsi>
 40051bc:	1009883a 	mov	r4,r2
 40051c0:	102f883a 	mov	r23,r2
 40051c4:	40105600 	call	4010560 <__floatsidf>
 40051c8:	800d883a 	mov	r6,r16
 40051cc:	900f883a 	mov	r7,r18
 40051d0:	1009883a 	mov	r4,r2
 40051d4:	180b883a 	mov	r5,r3
 40051d8:	400f42c0 	call	400f42c <__muldf3>
 40051dc:	a809883a 	mov	r4,r21
 40051e0:	980b883a 	mov	r5,r19
 40051e4:	100d883a 	mov	r6,r2
 40051e8:	180f883a 	mov	r7,r3
 40051ec:	400fbd80 	call	400fbd8 <__subdf3>
 40051f0:	b9000c04 	addi	r4,r23,48
 40051f4:	a1000005 	stb	r4,0(r20)
 40051f8:	8c400044 	addi	r17,r17,1
 40051fc:	a5000044 	addi	r20,r20,1
 4005200:	1009883a 	mov	r4,r2
 4005204:	180b883a 	mov	r5,r3
 4005208:	8d827e26 	beq	r17,r22,4005c04 <_dtoa_r+0x12c0>
 400520c:	000d883a 	mov	r6,zero
 4005210:	01d00934 	movhi	r7,16420
 4005214:	400f42c0 	call	400f42c <__muldf3>
 4005218:	000d883a 	mov	r6,zero
 400521c:	000f883a 	mov	r7,zero
 4005220:	1009883a 	mov	r4,r2
 4005224:	180b883a 	mov	r5,r3
 4005228:	102b883a 	mov	r21,r2
 400522c:	1827883a 	mov	r19,r3
 4005230:	400f1dc0 	call	400f1dc <__eqdf2>
 4005234:	103fd91e 	bne	r2,zero,400519c <_dtoa_r+0x858>
 4005238:	d8800417 	ldw	r2,16(sp)
 400523c:	ddc00217 	ldw	r23,8(sp)
 4005240:	a02b883a 	mov	r21,r20
 4005244:	10800044 	addi	r2,r2,1
 4005248:	d8800415 	stw	r2,16(sp)
 400524c:	0000a006 	br	40054d0 <_dtoa_r+0xb8c>
 4005250:	d8c00717 	ldw	r3,28(sp)
 4005254:	1800e326 	beq	r3,zero,40055e4 <_dtoa_r+0xca0>
 4005258:	d8c00217 	ldw	r3,8(sp)
 400525c:	18c00088 	cmpgei	r3,r3,2
 4005260:	1801e026 	beq	r3,zero,40059e4 <_dtoa_r+0x10a0>
 4005264:	d8800517 	ldw	r2,20(sp)
 4005268:	153fffc4 	addi	r20,r2,-1
 400526c:	d8800817 	ldw	r2,32(sp)
 4005270:	1501bc0e 	bge	r2,r20,4005964 <_dtoa_r+0x1020>
 4005274:	d8800817 	ldw	r2,32(sp)
 4005278:	d8c00317 	ldw	r3,12(sp)
 400527c:	dd000815 	stw	r20,32(sp)
 4005280:	a085c83a 	sub	r2,r20,r2
 4005284:	1885883a 	add	r2,r3,r2
 4005288:	d8800315 	stw	r2,12(sp)
 400528c:	0029883a 	mov	r20,zero
 4005290:	d8800517 	ldw	r2,20(sp)
 4005294:	10028b16 	blt	r2,zero,4005cc4 <_dtoa_r+0x1380>
 4005298:	d8c00617 	ldw	r3,24(sp)
 400529c:	b0ad883a 	add	r22,r22,r2
 40052a0:	1885883a 	add	r2,r3,r2
 40052a4:	1825883a 	mov	r18,r3
 40052a8:	d8800615 	stw	r2,24(sp)
 40052ac:	01400044 	movi	r5,1
 40052b0:	b809883a 	mov	r4,r23
 40052b4:	4006ecc0 	call	4006ecc <__i2b>
 40052b8:	1021883a 	mov	r16,r2
 40052bc:	0480080e 	bge	zero,r18,40052e0 <_dtoa_r+0x99c>
 40052c0:	0580070e 	bge	zero,r22,40052e0 <_dtoa_r+0x99c>
 40052c4:	9005883a 	mov	r2,r18
 40052c8:	b4819e16 	blt	r22,r18,4005944 <_dtoa_r+0x1000>
 40052cc:	d8c00617 	ldw	r3,24(sp)
 40052d0:	90a5c83a 	sub	r18,r18,r2
 40052d4:	b0adc83a 	sub	r22,r22,r2
 40052d8:	1887c83a 	sub	r3,r3,r2
 40052dc:	d8c00615 	stw	r3,24(sp)
 40052e0:	d8800817 	ldw	r2,32(sp)
 40052e4:	10001426 	beq	r2,zero,4005338 <_dtoa_r+0x9f4>
 40052e8:	d8800717 	ldw	r2,28(sp)
 40052ec:	1001ee26 	beq	r2,zero,4005aa8 <_dtoa_r+0x1164>
 40052f0:	05000e0e 	bge	zero,r20,400532c <_dtoa_r+0x9e8>
 40052f4:	800b883a 	mov	r5,r16
 40052f8:	a00d883a 	mov	r6,r20
 40052fc:	b809883a 	mov	r4,r23
 4005300:	40072400 	call	4007240 <__pow5mult>
 4005304:	e00d883a 	mov	r6,fp
 4005308:	100b883a 	mov	r5,r2
 400530c:	b809883a 	mov	r4,r23
 4005310:	1021883a 	mov	r16,r2
 4005314:	4006f7c0 	call	4006f7c <__multiply>
 4005318:	102b883a 	mov	r21,r2
 400531c:	e00b883a 	mov	r5,fp
 4005320:	b809883a 	mov	r4,r23
 4005324:	4006b000 	call	4006b00 <_Bfree>
 4005328:	a839883a 	mov	fp,r21
 400532c:	d8800817 	ldw	r2,32(sp)
 4005330:	150dc83a 	sub	r6,r2,r20
 4005334:	15025e1e 	bne	r2,r20,4005cb0 <_dtoa_r+0x136c>
 4005338:	01400044 	movi	r5,1
 400533c:	b809883a 	mov	r4,r23
 4005340:	4006ecc0 	call	4006ecc <__i2b>
 4005344:	d9800317 	ldw	r6,12(sp)
 4005348:	1029883a 	mov	r20,r2
 400534c:	0180b716 	blt	zero,r6,400562c <_dtoa_r+0xce8>
 4005350:	d8800217 	ldw	r2,8(sp)
 4005354:	10800088 	cmpgei	r2,r2,2
 4005358:	10014d26 	beq	r2,zero,4005890 <_dtoa_r+0xf4c>
 400535c:	0023883a 	mov	r17,zero
 4005360:	d8c00317 	ldw	r3,12(sp)
 4005364:	00800044 	movi	r2,1
 4005368:	1800b81e 	bne	r3,zero,400564c <_dtoa_r+0xd08>
 400536c:	1585883a 	add	r2,r2,r22
 4005370:	108007cc 	andi	r2,r2,31
 4005374:	1000a526 	beq	r2,zero,400560c <_dtoa_r+0xcc8>
 4005378:	00c00804 	movi	r3,32
 400537c:	1887c83a 	sub	r3,r3,r2
 4005380:	19000150 	cmplti	r4,r3,5
 4005384:	20033c1e 	bne	r4,zero,4006078 <_dtoa_r+0x1734>
 4005388:	00c00704 	movi	r3,28
 400538c:	1885c83a 	sub	r2,r3,r2
 4005390:	d8c00617 	ldw	r3,24(sp)
 4005394:	90a5883a 	add	r18,r18,r2
 4005398:	b0ad883a 	add	r22,r22,r2
 400539c:	1887883a 	add	r3,r3,r2
 40053a0:	d8c00615 	stw	r3,24(sp)
 40053a4:	d8800617 	ldw	r2,24(sp)
 40053a8:	00809216 	blt	zero,r2,40055f4 <_dtoa_r+0xcb0>
 40053ac:	0580050e 	bge	zero,r22,40053c4 <_dtoa_r+0xa80>
 40053b0:	a00b883a 	mov	r5,r20
 40053b4:	b00d883a 	mov	r6,r22
 40053b8:	b809883a 	mov	r4,r23
 40053bc:	40073880 	call	4007388 <__lshift>
 40053c0:	1029883a 	mov	r20,r2
 40053c4:	d8800917 	ldw	r2,36(sp)
 40053c8:	1001151e 	bne	r2,zero,4005820 <_dtoa_r+0xedc>
 40053cc:	d8800517 	ldw	r2,20(sp)
 40053d0:	0081020e 	bge	zero,r2,40057dc <_dtoa_r+0xe98>
 40053d4:	d8800717 	ldw	r2,28(sp)
 40053d8:	1000af1e 	bne	r2,zero,4005698 <_dtoa_r+0xd54>
 40053dc:	d8800417 	ldw	r2,16(sp)
 40053e0:	10800044 	addi	r2,r2,1
 40053e4:	d8800415 	stw	r2,16(sp)
 40053e8:	dc800517 	ldw	r18,20(sp)
 40053ec:	dd400117 	ldw	r21,4(sp)
 40053f0:	04400044 	movi	r17,1
 40053f4:	00000706 	br	4005414 <_dtoa_r+0xad0>
 40053f8:	e00b883a 	mov	r5,fp
 40053fc:	000f883a 	mov	r7,zero
 4005400:	01800284 	movi	r6,10
 4005404:	b809883a 	mov	r4,r23
 4005408:	4006b240 	call	4006b24 <__multadd>
 400540c:	1039883a 	mov	fp,r2
 4005410:	8c400044 	addi	r17,r17,1
 4005414:	a00b883a 	mov	r5,r20
 4005418:	e009883a 	mov	r4,fp
 400541c:	40047240 	call	4004724 <quorem>
 4005420:	14c00c04 	addi	r19,r2,48
 4005424:	ac45883a 	add	r2,r21,r17
 4005428:	14ffffc5 	stb	r19,-1(r2)
 400542c:	8cbff216 	blt	r17,r18,40053f8 <_dtoa_r+0xab4>
 4005430:	d8800517 	ldw	r2,20(sp)
 4005434:	0081510e 	bge	zero,r2,400597c <_dtoa_r+0x1038>
 4005438:	d8c00117 	ldw	r3,4(sp)
 400543c:	0023883a 	mov	r17,zero
 4005440:	18ab883a 	add	r21,r3,r2
 4005444:	e00b883a 	mov	r5,fp
 4005448:	01800044 	movi	r6,1
 400544c:	b809883a 	mov	r4,r23
 4005450:	40073880 	call	4007388 <__lshift>
 4005454:	1009883a 	mov	r4,r2
 4005458:	a00b883a 	mov	r5,r20
 400545c:	1039883a 	mov	fp,r2
 4005460:	40075100 	call	4007510 <__mcmp>
 4005464:	a93fffc3 	ldbu	r4,-1(r21)
 4005468:	0081490e 	bge	zero,r2,4005990 <_dtoa_r+0x104c>
 400546c:	d9400117 	ldw	r5,4(sp)
 4005470:	00000306 	br	4005480 <_dtoa_r+0xb3c>
 4005474:	19415426 	beq	r3,r5,40059c8 <_dtoa_r+0x1084>
 4005478:	193fffc3 	ldbu	r4,-1(r3)
 400547c:	182b883a 	mov	r21,r3
 4005480:	20803fcc 	andi	r2,r4,255
 4005484:	1080201c 	xori	r2,r2,128
 4005488:	10bfe004 	addi	r2,r2,-128
 400548c:	10800e60 	cmpeqi	r2,r2,57
 4005490:	a8ffffc4 	addi	r3,r21,-1
 4005494:	103ff71e 	bne	r2,zero,4005474 <_dtoa_r+0xb30>
 4005498:	21000044 	addi	r4,r4,1
 400549c:	19000005 	stb	r4,0(r3)
 40054a0:	a00b883a 	mov	r5,r20
 40054a4:	b809883a 	mov	r4,r23
 40054a8:	4006b000 	call	4006b00 <_Bfree>
 40054ac:	80000826 	beq	r16,zero,40054d0 <_dtoa_r+0xb8c>
 40054b0:	88000426 	beq	r17,zero,40054c4 <_dtoa_r+0xb80>
 40054b4:	8c000326 	beq	r17,r16,40054c4 <_dtoa_r+0xb80>
 40054b8:	880b883a 	mov	r5,r17
 40054bc:	b809883a 	mov	r4,r23
 40054c0:	4006b000 	call	4006b00 <_Bfree>
 40054c4:	800b883a 	mov	r5,r16
 40054c8:	b809883a 	mov	r4,r23
 40054cc:	4006b000 	call	4006b00 <_Bfree>
 40054d0:	e00b883a 	mov	r5,fp
 40054d4:	b809883a 	mov	r4,r23
 40054d8:	4006b000 	call	4006b00 <_Bfree>
 40054dc:	d8801f17 	ldw	r2,124(sp)
 40054e0:	d8c00417 	ldw	r3,16(sp)
 40054e4:	a8000005 	stb	zero,0(r21)
 40054e8:	10c00015 	stw	r3,0(r2)
 40054ec:	d8802117 	ldw	r2,132(sp)
 40054f0:	103d4626 	beq	r2,zero,4004a0c <_dtoa_r+0xc8>
 40054f4:	15400015 	stw	r21,0(r2)
 40054f8:	003d4406 	br	4004a0c <_dtoa_r+0xc8>
 40054fc:	d8000915 	stw	zero,36(sp)
 4005500:	b0002416 	blt	r22,zero,4005594 <_dtoa_r+0xc50>
 4005504:	d8000615 	stw	zero,24(sp)
 4005508:	d8800317 	ldw	r2,12(sp)
 400550c:	d8c00217 	ldw	r3,8(sp)
 4005510:	d8000815 	stw	zero,32(sp)
 4005514:	b0ad883a 	add	r22,r22,r2
 4005518:	d8800415 	stw	r2,16(sp)
 400551c:	188002a8 	cmpgeui	r2,r3,10
 4005520:	103db326 	beq	r2,zero,4004bf0 <_dtoa_r+0x2ac>
 4005524:	00800044 	movi	r2,1
 4005528:	d8800715 	stw	r2,28(sp)
 400552c:	00bfffc4 	movi	r2,-1
 4005530:	04000044 	movi	r16,1
 4005534:	d8000215 	stw	zero,8(sp)
 4005538:	d8800515 	stw	r2,20(sp)
 400553c:	d8001e15 	stw	zero,120(sp)
 4005540:	d8800517 	ldw	r2,20(sp)
 4005544:	b8001115 	stw	zero,68(r23)
 4005548:	000b883a 	mov	r5,zero
 400554c:	d8800b15 	stw	r2,44(sp)
 4005550:	003dc406 	br	4004c64 <_dtoa_r+0x320>
 4005554:	188000e0 	cmpeqi	r2,r3,3
 4005558:	d8000715 	stw	zero,28(sp)
 400555c:	1002ac26 	beq	r2,zero,4006010 <_dtoa_r+0x16cc>
 4005560:	d8801e17 	ldw	r2,120(sp)
 4005564:	d8c00417 	ldw	r3,16(sp)
 4005568:	10c5883a 	add	r2,r2,r3
 400556c:	d8800b15 	stw	r2,44(sp)
 4005570:	10800044 	addi	r2,r2,1
 4005574:	d8800515 	stw	r2,20(sp)
 4005578:	100d883a 	mov	r6,r2
 400557c:	00bdae16 	blt	zero,r2,4004c38 <_dtoa_r+0x2f4>
 4005580:	01800044 	movi	r6,1
 4005584:	003dac06 	br	4004c38 <_dtoa_r+0x2f4>
 4005588:	00800044 	movi	r2,1
 400558c:	d8800915 	stw	r2,36(sp)
 4005590:	b03d890e 	bge	r22,zero,4004bb8 <_dtoa_r+0x274>
 4005594:	00800044 	movi	r2,1
 4005598:	1405c83a 	sub	r2,r2,r16
 400559c:	d8800615 	stw	r2,24(sp)
 40055a0:	002d883a 	mov	r22,zero
 40055a4:	003d8506 	br	4004bbc <_dtoa_r+0x278>
 40055a8:	a809883a 	mov	r4,r21
 40055ac:	40105600 	call	4010560 <__floatsidf>
 40055b0:	900d883a 	mov	r6,r18
 40055b4:	b00f883a 	mov	r7,r22
 40055b8:	1009883a 	mov	r4,r2
 40055bc:	180b883a 	mov	r5,r3
 40055c0:	400f1dc0 	call	400f1dc <__eqdf2>
 40055c4:	103d6926 	beq	r2,zero,4004b6c <_dtoa_r+0x228>
 40055c8:	a8bfffc4 	addi	r2,r21,-1
 40055cc:	d8800315 	stw	r2,12(sp)
 40055d0:	003d6606 	br	4004b6c <_dtoa_r+0x228>
 40055d4:	00810074 	movhi	r2,1025
 40055d8:	10889404 	addi	r2,r2,8784
 40055dc:	d8800115 	stw	r2,4(sp)
 40055e0:	003d0a06 	br	4004a0c <_dtoa_r+0xc8>
 40055e4:	dd000817 	ldw	r20,32(sp)
 40055e8:	dc800617 	ldw	r18,24(sp)
 40055ec:	0021883a 	mov	r16,zero
 40055f0:	003f3206 	br	40052bc <_dtoa_r+0x978>
 40055f4:	e00b883a 	mov	r5,fp
 40055f8:	100d883a 	mov	r6,r2
 40055fc:	b809883a 	mov	r4,r23
 4005600:	40073880 	call	4007388 <__lshift>
 4005604:	1039883a 	mov	fp,r2
 4005608:	003f6806 	br	40053ac <_dtoa_r+0xa68>
 400560c:	00800704 	movi	r2,28
 4005610:	003f5f06 	br	4005390 <_dtoa_r+0xa4c>
 4005614:	01000804 	movi	r4,32
 4005618:	2089c83a 	sub	r4,r4,r2
 400561c:	9908983a 	sll	r4,r19,r4
 4005620:	003d1d06 	br	4004a98 <_dtoa_r+0x154>
 4005624:	04000044 	movi	r16,1
 4005628:	003d7606 	br	4004c04 <_dtoa_r+0x2c0>
 400562c:	100b883a 	mov	r5,r2
 4005630:	b809883a 	mov	r4,r23
 4005634:	40072400 	call	4007240 <__pow5mult>
 4005638:	d8c00217 	ldw	r3,8(sp)
 400563c:	1029883a 	mov	r20,r2
 4005640:	18c00090 	cmplti	r3,r3,2
 4005644:	1801511e 	bne	r3,zero,4005b8c <_dtoa_r+0x1248>
 4005648:	0023883a 	mov	r17,zero
 400564c:	a0800417 	ldw	r2,16(r20)
 4005650:	10800104 	addi	r2,r2,4
 4005654:	100490ba 	slli	r2,r2,2
 4005658:	a085883a 	add	r2,r20,r2
 400565c:	11000017 	ldw	r4,0(r2)
 4005660:	4006db80 	call	4006db8 <__hi0bits>
 4005664:	00c00804 	movi	r3,32
 4005668:	1885c83a 	sub	r2,r3,r2
 400566c:	003f3f06 	br	400536c <_dtoa_r+0xa28>
 4005670:	800b883a 	mov	r5,r16
 4005674:	000f883a 	mov	r7,zero
 4005678:	01800284 	movi	r6,10
 400567c:	b809883a 	mov	r4,r23
 4005680:	4006b240 	call	4006b24 <__multadd>
 4005684:	1021883a 	mov	r16,r2
 4005688:	d8800b17 	ldw	r2,44(sp)
 400568c:	00824b0e 	bge	zero,r2,4005fbc <_dtoa_r+0x1678>
 4005690:	dd400415 	stw	r21,16(sp)
 4005694:	d8800515 	stw	r2,20(sp)
 4005698:	0480ac16 	blt	zero,r18,400594c <_dtoa_r+0x1008>
 400569c:	8801731e 	bne	r17,zero,4005c6c <_dtoa_r+0x1328>
 40056a0:	8025883a 	mov	r18,r16
 40056a4:	dd800117 	ldw	r22,4(sp)
 40056a8:	d9000517 	ldw	r4,20(sp)
 40056ac:	98c0004c 	andi	r3,r19,1
 40056b0:	b0bfffc4 	addi	r2,r22,-1
 40056b4:	1105883a 	add	r2,r2,r4
 40056b8:	d8800515 	stw	r2,20(sp)
 40056bc:	d8800217 	ldw	r2,8(sp)
 40056c0:	d8c00815 	stw	r3,32(sp)
 40056c4:	1884b03a 	or	r2,r3,r2
 40056c8:	d8800715 	stw	r2,28(sp)
 40056cc:	00002906 	br	4005774 <_dtoa_r+0xe30>
 40056d0:	e009883a 	mov	r4,fp
 40056d4:	40075100 	call	4007510 <__mcmp>
 40056d8:	980b883a 	mov	r5,r19
 40056dc:	b809883a 	mov	r4,r23
 40056e0:	d8800315 	stw	r2,12(sp)
 40056e4:	4006b000 	call	4006b00 <_Bfree>
 40056e8:	d8800317 	ldw	r2,12(sp)
 40056ec:	1000021e 	bne	r2,zero,40056f8 <_dtoa_r+0xdb4>
 40056f0:	d8c00717 	ldw	r3,28(sp)
 40056f4:	18022326 	beq	r3,zero,4005f84 <_dtoa_r+0x1640>
 40056f8:	b4c00044 	addi	r19,r22,1
 40056fc:	88012916 	blt	r17,zero,4005ba4 <_dtoa_r+0x1260>
 4005700:	d8c00217 	ldw	r3,8(sp)
 4005704:	88e2b03a 	or	r17,r17,r3
 4005708:	d8c00817 	ldw	r3,32(sp)
 400570c:	1c62b03a 	or	r17,r3,r17
 4005710:	88012426 	beq	r17,zero,4005ba4 <_dtoa_r+0x1260>
 4005714:	00816f16 	blt	zero,r2,4005cd4 <_dtoa_r+0x1390>
 4005718:	d8800517 	ldw	r2,20(sp)
 400571c:	b5400005 	stb	r21,0(r22)
 4005720:	15817926 	beq	r2,r22,4005d08 <_dtoa_r+0x13c4>
 4005724:	e00b883a 	mov	r5,fp
 4005728:	000f883a 	mov	r7,zero
 400572c:	01800284 	movi	r6,10
 4005730:	b809883a 	mov	r4,r23
 4005734:	4006b240 	call	4006b24 <__multadd>
 4005738:	1039883a 	mov	fp,r2
 400573c:	800b883a 	mov	r5,r16
 4005740:	000f883a 	mov	r7,zero
 4005744:	01800284 	movi	r6,10
 4005748:	b809883a 	mov	r4,r23
 400574c:	84801f26 	beq	r16,r18,40057cc <_dtoa_r+0xe88>
 4005750:	4006b240 	call	4006b24 <__multadd>
 4005754:	900b883a 	mov	r5,r18
 4005758:	000f883a 	mov	r7,zero
 400575c:	01800284 	movi	r6,10
 4005760:	b809883a 	mov	r4,r23
 4005764:	1021883a 	mov	r16,r2
 4005768:	4006b240 	call	4006b24 <__multadd>
 400576c:	1025883a 	mov	r18,r2
 4005770:	982d883a 	mov	r22,r19
 4005774:	a00b883a 	mov	r5,r20
 4005778:	e009883a 	mov	r4,fp
 400577c:	40047240 	call	4004724 <quorem>
 4005780:	800b883a 	mov	r5,r16
 4005784:	e009883a 	mov	r4,fp
 4005788:	102b883a 	mov	r21,r2
 400578c:	d8800615 	stw	r2,24(sp)
 4005790:	40075100 	call	4007510 <__mcmp>
 4005794:	a00b883a 	mov	r5,r20
 4005798:	900d883a 	mov	r6,r18
 400579c:	b809883a 	mov	r4,r23
 40057a0:	1023883a 	mov	r17,r2
 40057a4:	40075680 	call	4007568 <__mdiff>
 40057a8:	1027883a 	mov	r19,r2
 40057ac:	10800317 	ldw	r2,12(r2)
 40057b0:	ad400c04 	addi	r21,r21,48
 40057b4:	980b883a 	mov	r5,r19
 40057b8:	103fc526 	beq	r2,zero,40056d0 <_dtoa_r+0xd8c>
 40057bc:	b809883a 	mov	r4,r23
 40057c0:	4006b000 	call	4006b00 <_Bfree>
 40057c4:	00800044 	movi	r2,1
 40057c8:	003fcb06 	br	40056f8 <_dtoa_r+0xdb4>
 40057cc:	4006b240 	call	4006b24 <__multadd>
 40057d0:	1021883a 	mov	r16,r2
 40057d4:	1025883a 	mov	r18,r2
 40057d8:	003fe506 	br	4005770 <_dtoa_r+0xe2c>
 40057dc:	d8800217 	ldw	r2,8(sp)
 40057e0:	108000d0 	cmplti	r2,r2,3
 40057e4:	10003e26 	beq	r2,zero,40058e0 <_dtoa_r+0xf9c>
 40057e8:	d8800717 	ldw	r2,28(sp)
 40057ec:	103faa1e 	bne	r2,zero,4005698 <_dtoa_r+0xd54>
 40057f0:	a00b883a 	mov	r5,r20
 40057f4:	e009883a 	mov	r4,fp
 40057f8:	40047240 	call	4004724 <quorem>
 40057fc:	14c00c04 	addi	r19,r2,48
 4005800:	d8800117 	ldw	r2,4(sp)
 4005804:	0023883a 	mov	r17,zero
 4005808:	15400044 	addi	r21,r2,1
 400580c:	14c00005 	stb	r19,0(r2)
 4005810:	d8800417 	ldw	r2,16(sp)
 4005814:	10800044 	addi	r2,r2,1
 4005818:	d8800415 	stw	r2,16(sp)
 400581c:	003f0906 	br	4005444 <_dtoa_r+0xb00>
 4005820:	a00b883a 	mov	r5,r20
 4005824:	e009883a 	mov	r4,fp
 4005828:	40075100 	call	4007510 <__mcmp>
 400582c:	103ee70e 	bge	r2,zero,40053cc <_dtoa_r+0xa88>
 4005830:	e00b883a 	mov	r5,fp
 4005834:	000f883a 	mov	r7,zero
 4005838:	01800284 	movi	r6,10
 400583c:	b809883a 	mov	r4,r23
 4005840:	4006b240 	call	4006b24 <__multadd>
 4005844:	d8c00417 	ldw	r3,16(sp)
 4005848:	1039883a 	mov	fp,r2
 400584c:	d8800717 	ldw	r2,28(sp)
 4005850:	1d7fffc4 	addi	r21,r3,-1
 4005854:	103f861e 	bne	r2,zero,4005670 <_dtoa_r+0xd2c>
 4005858:	d8800b17 	ldw	r2,44(sp)
 400585c:	0081d20e 	bge	zero,r2,4005fa8 <_dtoa_r+0x1664>
 4005860:	d8800515 	stw	r2,20(sp)
 4005864:	003ee006 	br	40053e8 <_dtoa_r+0xaa4>
 4005868:	00810074 	movhi	r2,1025
 400586c:	1007883a 	mov	r3,r2
 4005870:	18c89d04 	addi	r3,r3,8820
 4005874:	00810074 	movhi	r2,1025
 4005878:	d8c00115 	stw	r3,4(sp)
 400587c:	10889dc4 	addi	r2,r2,8823
 4005880:	003ded06 	br	4005038 <_dtoa_r+0x6f4>
 4005884:	00800044 	movi	r2,1
 4005888:	d8800715 	stw	r2,28(sp)
 400588c:	003f3406 	br	4005560 <_dtoa_r+0xc1c>
 4005890:	983eb21e 	bne	r19,zero,400535c <_dtoa_r+0xa18>
 4005894:	00800434 	movhi	r2,16
 4005898:	10bfffc4 	addi	r2,r2,-1
 400589c:	8884703a 	and	r2,r17,r2
 40058a0:	103eae1e 	bne	r2,zero,400535c <_dtoa_r+0xa18>
 40058a4:	8c5ffc2c 	andhi	r17,r17,32752
 40058a8:	883eac26 	beq	r17,zero,400535c <_dtoa_r+0xa18>
 40058ac:	d8800617 	ldw	r2,24(sp)
 40058b0:	b5800044 	addi	r22,r22,1
 40058b4:	04400044 	movi	r17,1
 40058b8:	10800044 	addi	r2,r2,1
 40058bc:	d8800615 	stw	r2,24(sp)
 40058c0:	003ea706 	br	4005360 <_dtoa_r+0xa1c>
 40058c4:	00800044 	movi	r2,1
 40058c8:	d8800515 	stw	r2,20(sp)
 40058cc:	d8801e15 	stw	r2,120(sp)
 40058d0:	003f1b06 	br	4005540 <_dtoa_r+0xbfc>
 40058d4:	d8800b17 	ldw	r2,44(sp)
 40058d8:	dd400415 	stw	r21,16(sp)
 40058dc:	d8800515 	stw	r2,20(sp)
 40058e0:	d8800517 	ldw	r2,20(sp)
 40058e4:	103e081e 	bne	r2,zero,4005108 <_dtoa_r+0x7c4>
 40058e8:	a00b883a 	mov	r5,r20
 40058ec:	b809883a 	mov	r4,r23
 40058f0:	000f883a 	mov	r7,zero
 40058f4:	01800144 	movi	r6,5
 40058f8:	4006b240 	call	4006b24 <__multadd>
 40058fc:	100b883a 	mov	r5,r2
 4005900:	e009883a 	mov	r4,fp
 4005904:	1029883a 	mov	r20,r2
 4005908:	40075100 	call	4007510 <__mcmp>
 400590c:	00bdfe0e 	bge	zero,r2,4005108 <_dtoa_r+0x7c4>
 4005910:	d8c00117 	ldw	r3,4(sp)
 4005914:	00800c44 	movi	r2,49
 4005918:	18800005 	stb	r2,0(r3)
 400591c:	d8800417 	ldw	r2,16(sp)
 4005920:	1d400044 	addi	r21,r3,1
 4005924:	14400044 	addi	r17,r2,1
 4005928:	a00b883a 	mov	r5,r20
 400592c:	b809883a 	mov	r4,r23
 4005930:	4006b000 	call	4006b00 <_Bfree>
 4005934:	88800044 	addi	r2,r17,1
 4005938:	d8800415 	stw	r2,16(sp)
 400593c:	803ee11e 	bne	r16,zero,40054c4 <_dtoa_r+0xb80>
 4005940:	003ee306 	br	40054d0 <_dtoa_r+0xb8c>
 4005944:	b005883a 	mov	r2,r22
 4005948:	003e6006 	br	40052cc <_dtoa_r+0x988>
 400594c:	800b883a 	mov	r5,r16
 4005950:	900d883a 	mov	r6,r18
 4005954:	b809883a 	mov	r4,r23
 4005958:	40073880 	call	4007388 <__lshift>
 400595c:	1021883a 	mov	r16,r2
 4005960:	003f4e06 	br	400569c <_dtoa_r+0xd58>
 4005964:	1529c83a 	sub	r20,r2,r20
 4005968:	003e4906 	br	4005290 <_dtoa_r+0x94c>
 400596c:	dcc00c15 	stw	r19,48(sp)
 4005970:	8825883a 	mov	r18,r17
 4005974:	05400084 	movi	r21,2
 4005978:	003cdf06 	br	4004cf8 <_dtoa_r+0x3b4>
 400597c:	00800044 	movi	r2,1
 4005980:	003ead06 	br	4005438 <_dtoa_r+0xaf4>
 4005984:	00800044 	movi	r2,1
 4005988:	d8800715 	stw	r2,28(sp)
 400598c:	003ca506 	br	4004c24 <_dtoa_r+0x2e0>
 4005990:	1000021e 	bne	r2,zero,400599c <_dtoa_r+0x1058>
 4005994:	98c0004c 	andi	r3,r19,1
 4005998:	183eb41e 	bne	r3,zero,400546c <_dtoa_r+0xb28>
 400599c:	2005883a 	mov	r2,r4
 40059a0:	00000206 	br	40059ac <_dtoa_r+0x1068>
 40059a4:	a8bfff83 	ldbu	r2,-2(r21)
 40059a8:	182b883a 	mov	r21,r3
 40059ac:	10803fcc 	andi	r2,r2,255
 40059b0:	1080201c 	xori	r2,r2,128
 40059b4:	10bfe004 	addi	r2,r2,-128
 40059b8:	10800c18 	cmpnei	r2,r2,48
 40059bc:	a8ffffc4 	addi	r3,r21,-1
 40059c0:	103ff826 	beq	r2,zero,40059a4 <_dtoa_r+0x1060>
 40059c4:	003eb606 	br	40054a0 <_dtoa_r+0xb5c>
 40059c8:	d8c00117 	ldw	r3,4(sp)
 40059cc:	00800c44 	movi	r2,49
 40059d0:	18800005 	stb	r2,0(r3)
 40059d4:	d8800417 	ldw	r2,16(sp)
 40059d8:	10800044 	addi	r2,r2,1
 40059dc:	d8800415 	stw	r2,16(sp)
 40059e0:	003eaf06 	br	40054a0 <_dtoa_r+0xb5c>
 40059e4:	d8c00a17 	ldw	r3,40(sp)
 40059e8:	18011826 	beq	r3,zero,4005e4c <_dtoa_r+0x1508>
 40059ec:	d8c00617 	ldw	r3,24(sp)
 40059f0:	10810cc4 	addi	r2,r2,1075
 40059f4:	b0ad883a 	add	r22,r22,r2
 40059f8:	1885883a 	add	r2,r3,r2
 40059fc:	dd000817 	ldw	r20,32(sp)
 4005a00:	1825883a 	mov	r18,r3
 4005a04:	d8800615 	stw	r2,24(sp)
 4005a08:	003e2806 	br	40052ac <_dtoa_r+0x968>
 4005a0c:	a809883a 	mov	r4,r21
 4005a10:	40105600 	call	4010560 <__floatsidf>
 4005a14:	800d883a 	mov	r6,r16
 4005a18:	900f883a 	mov	r7,r18
 4005a1c:	1009883a 	mov	r4,r2
 4005a20:	180b883a 	mov	r5,r3
 4005a24:	400f42c0 	call	400f42c <__muldf3>
 4005a28:	000d883a 	mov	r6,zero
 4005a2c:	01d00734 	movhi	r7,16412
 4005a30:	1009883a 	mov	r4,r2
 4005a34:	180b883a 	mov	r5,r3
 4005a38:	400dfbc0 	call	400dfbc <__adddf3>
 4005a3c:	1029883a 	mov	r20,r2
 4005a40:	00bf3034 	movhi	r2,64704
 4005a44:	1885883a 	add	r2,r3,r2
 4005a48:	d8800c15 	stw	r2,48(sp)
 4005a4c:	8009883a 	mov	r4,r16
 4005a50:	900b883a 	mov	r5,r18
 4005a54:	000d883a 	mov	r6,zero
 4005a58:	01d00534 	movhi	r7,16404
 4005a5c:	400fbd80 	call	400fbd8 <__subdf3>
 4005a60:	dd400c17 	ldw	r21,48(sp)
 4005a64:	a00d883a 	mov	r6,r20
 4005a68:	1009883a 	mov	r4,r2
 4005a6c:	a80f883a 	mov	r7,r21
 4005a70:	180b883a 	mov	r5,r3
 4005a74:	1025883a 	mov	r18,r2
 4005a78:	1821883a 	mov	r16,r3
 4005a7c:	400f25c0 	call	400f25c <__gedf2>
 4005a80:	00812f16 	blt	zero,r2,4005f40 <_dtoa_r+0x15fc>
 4005a84:	a9e0003c 	xorhi	r7,r21,32768
 4005a88:	a00d883a 	mov	r6,r20
 4005a8c:	9009883a 	mov	r4,r18
 4005a90:	800b883a 	mov	r5,r16
 4005a94:	400f3440 	call	400f344 <__ledf2>
 4005a98:	103d7d0e 	bge	r2,zero,4005090 <_dtoa_r+0x74c>
 4005a9c:	0029883a 	mov	r20,zero
 4005aa0:	0021883a 	mov	r16,zero
 4005aa4:	003d9806 	br	4005108 <_dtoa_r+0x7c4>
 4005aa8:	d9800817 	ldw	r6,32(sp)
 4005aac:	e00b883a 	mov	r5,fp
 4005ab0:	b809883a 	mov	r4,r23
 4005ab4:	40072400 	call	4007240 <__pow5mult>
 4005ab8:	1039883a 	mov	fp,r2
 4005abc:	003e1e06 	br	4005338 <_dtoa_r+0x9f4>
 4005ac0:	d8800417 	ldw	r2,16(sp)
 4005ac4:	1000ed26 	beq	r2,zero,4005e7c <_dtoa_r+0x1538>
 4005ac8:	00a9c83a 	sub	r20,zero,r2
 4005acc:	a08003cc 	andi	r2,r20,15
 4005ad0:	100690fa 	slli	r3,r2,3
 4005ad4:	00810074 	movhi	r2,1025
 4005ad8:	1088dd04 	addi	r2,r2,9076
 4005adc:	10c5883a 	add	r2,r2,r3
 4005ae0:	11800017 	ldw	r6,0(r2)
 4005ae4:	11c00117 	ldw	r7,4(r2)
 4005ae8:	a029d13a 	srai	r20,r20,4
 4005aec:	9809883a 	mov	r4,r19
 4005af0:	880b883a 	mov	r5,r17
 4005af4:	400f42c0 	call	400f42c <__muldf3>
 4005af8:	1021883a 	mov	r16,r2
 4005afc:	1825883a 	mov	r18,r3
 4005b00:	a0013826 	beq	r20,zero,4005fe4 <_dtoa_r+0x16a0>
 4005b04:	02010074 	movhi	r8,1025
 4005b08:	05400084 	movi	r21,2
 4005b0c:	4208d304 	addi	r8,r8,9036
 4005b10:	1009883a 	mov	r4,r2
 4005b14:	9805883a 	mov	r2,r19
 4005b18:	180b883a 	mov	r5,r3
 4005b1c:	dc000c15 	stw	r16,48(sp)
 4005b20:	8827883a 	mov	r19,r17
 4005b24:	0007883a 	mov	r3,zero
 4005b28:	a823883a 	mov	r17,r21
 4005b2c:	4021883a 	mov	r16,r8
 4005b30:	102b883a 	mov	r21,r2
 4005b34:	a180004c 	andi	r6,r20,1
 4005b38:	30000726 	beq	r6,zero,4005b58 <_dtoa_r+0x1214>
 4005b3c:	81800017 	ldw	r6,0(r16)
 4005b40:	81c00117 	ldw	r7,4(r16)
 4005b44:	8c400044 	addi	r17,r17,1
 4005b48:	400f42c0 	call	400f42c <__muldf3>
 4005b4c:	180b883a 	mov	r5,r3
 4005b50:	1009883a 	mov	r4,r2
 4005b54:	00c00044 	movi	r3,1
 4005b58:	a029d07a 	srai	r20,r20,1
 4005b5c:	84000204 	addi	r16,r16,8
 4005b60:	a03ff41e 	bne	r20,zero,4005b34 <_dtoa_r+0x11f0>
 4005b64:	a805883a 	mov	r2,r21
 4005b68:	18c03fcc 	andi	r3,r3,255
 4005b6c:	882b883a 	mov	r21,r17
 4005b70:	dc000c17 	ldw	r16,48(sp)
 4005b74:	9823883a 	mov	r17,r19
 4005b78:	1027883a 	mov	r19,r2
 4005b7c:	183c7726 	beq	r3,zero,4004d5c <_dtoa_r+0x418>
 4005b80:	2021883a 	mov	r16,r4
 4005b84:	2825883a 	mov	r18,r5
 4005b88:	003c7406 	br	4004d5c <_dtoa_r+0x418>
 4005b8c:	983eae1e 	bne	r19,zero,4005648 <_dtoa_r+0xd04>
 4005b90:	00800434 	movhi	r2,16
 4005b94:	10bfffc4 	addi	r2,r2,-1
 4005b98:	8884703a 	and	r2,r17,r2
 4005b9c:	103f4126 	beq	r2,zero,40058a4 <_dtoa_r+0xf60>
 4005ba0:	003ea906 	br	4005648 <_dtoa_r+0xd04>
 4005ba4:	9807883a 	mov	r3,r19
 4005ba8:	a827883a 	mov	r19,r21
 4005bac:	182b883a 	mov	r21,r3
 4005bb0:	d8c00417 	ldw	r3,16(sp)
 4005bb4:	18c00044 	addi	r3,r3,1
 4005bb8:	d8c00415 	stw	r3,16(sp)
 4005bbc:	00800d0e 	bge	zero,r2,4005bf4 <_dtoa_r+0x12b0>
 4005bc0:	e00b883a 	mov	r5,fp
 4005bc4:	b809883a 	mov	r4,r23
 4005bc8:	01800044 	movi	r6,1
 4005bcc:	40073880 	call	4007388 <__lshift>
 4005bd0:	a00b883a 	mov	r5,r20
 4005bd4:	1009883a 	mov	r4,r2
 4005bd8:	1039883a 	mov	fp,r2
 4005bdc:	40075100 	call	4007510 <__mcmp>
 4005be0:	0080df0e 	bge	zero,r2,4005f60 <_dtoa_r+0x161c>
 4005be4:	98c00e60 	cmpeqi	r3,r19,57
 4005be8:	1800ce1e 	bne	r3,zero,4005f24 <_dtoa_r+0x15e0>
 4005bec:	d8800617 	ldw	r2,24(sp)
 4005bf0:	14c00c44 	addi	r19,r2,49
 4005bf4:	8023883a 	mov	r17,r16
 4005bf8:	b4c00005 	stb	r19,0(r22)
 4005bfc:	9021883a 	mov	r16,r18
 4005c00:	003e2706 	br	40054a0 <_dtoa_r+0xb5c>
 4005c04:	b82b883a 	mov	r21,r23
 4005c08:	ddc00217 	ldw	r23,8(sp)
 4005c0c:	200d883a 	mov	r6,r4
 4005c10:	280f883a 	mov	r7,r5
 4005c14:	400dfbc0 	call	400dfbc <__adddf3>
 4005c18:	180b883a 	mov	r5,r3
 4005c1c:	800d883a 	mov	r6,r16
 4005c20:	900f883a 	mov	r7,r18
 4005c24:	1009883a 	mov	r4,r2
 4005c28:	1823883a 	mov	r17,r3
 4005c2c:	1027883a 	mov	r19,r2
 4005c30:	400f25c0 	call	400f25c <__gedf2>
 4005c34:	d8c00417 	ldw	r3,16(sp)
 4005c38:	18c00044 	addi	r3,r3,1
 4005c3c:	d8c00415 	stw	r3,16(sp)
 4005c40:	00808c16 	blt	zero,r2,4005e74 <_dtoa_r+0x1530>
 4005c44:	800d883a 	mov	r6,r16
 4005c48:	900f883a 	mov	r7,r18
 4005c4c:	9809883a 	mov	r4,r19
 4005c50:	880b883a 	mov	r5,r17
 4005c54:	400f1dc0 	call	400f1dc <__eqdf2>
 4005c58:	1000021e 	bne	r2,zero,4005c64 <_dtoa_r+0x1320>
 4005c5c:	ad40004c 	andi	r21,r21,1
 4005c60:	a800841e 	bne	r21,zero,4005e74 <_dtoa_r+0x1530>
 4005c64:	a02b883a 	mov	r21,r20
 4005c68:	003e1906 	br	40054d0 <_dtoa_r+0xb8c>
 4005c6c:	81400117 	ldw	r5,4(r16)
 4005c70:	b809883a 	mov	r4,r23
 4005c74:	4006a5c0 	call	4006a5c <_Balloc>
 4005c78:	1023883a 	mov	r17,r2
 4005c7c:	1000f326 	beq	r2,zero,400604c <_dtoa_r+0x1708>
 4005c80:	81800417 	ldw	r6,16(r16)
 4005c84:	81400304 	addi	r5,r16,12
 4005c88:	11000304 	addi	r4,r2,12
 4005c8c:	31800084 	addi	r6,r6,2
 4005c90:	300c90ba 	slli	r6,r6,2
 4005c94:	400695c0 	call	400695c <memcpy>
 4005c98:	01800044 	movi	r6,1
 4005c9c:	880b883a 	mov	r5,r17
 4005ca0:	b809883a 	mov	r4,r23
 4005ca4:	40073880 	call	4007388 <__lshift>
 4005ca8:	1025883a 	mov	r18,r2
 4005cac:	003e7d06 	br	40056a4 <_dtoa_r+0xd60>
 4005cb0:	e00b883a 	mov	r5,fp
 4005cb4:	b809883a 	mov	r4,r23
 4005cb8:	40072400 	call	4007240 <__pow5mult>
 4005cbc:	1039883a 	mov	fp,r2
 4005cc0:	003d9d06 	br	4005338 <_dtoa_r+0x9f4>
 4005cc4:	d8800617 	ldw	r2,24(sp)
 4005cc8:	d8c00517 	ldw	r3,20(sp)
 4005ccc:	10e5c83a 	sub	r18,r2,r3
 4005cd0:	003d7606 	br	40052ac <_dtoa_r+0x968>
 4005cd4:	d8c00417 	ldw	r3,16(sp)
 4005cd8:	9805883a 	mov	r2,r19
 4005cdc:	a827883a 	mov	r19,r21
 4005ce0:	18c00044 	addi	r3,r3,1
 4005ce4:	102b883a 	mov	r21,r2
 4005ce8:	d8c00415 	stw	r3,16(sp)
 4005cec:	98800e58 	cmpnei	r2,r19,57
 4005cf0:	10008c26 	beq	r2,zero,4005f24 <_dtoa_r+0x15e0>
 4005cf4:	98c00044 	addi	r3,r19,1
 4005cf8:	8023883a 	mov	r17,r16
 4005cfc:	b0c00005 	stb	r3,0(r22)
 4005d00:	9021883a 	mov	r16,r18
 4005d04:	003de606 	br	40054a0 <_dtoa_r+0xb5c>
 4005d08:	9805883a 	mov	r2,r19
 4005d0c:	a827883a 	mov	r19,r21
 4005d10:	102b883a 	mov	r21,r2
 4005d14:	d8800417 	ldw	r2,16(sp)
 4005d18:	8023883a 	mov	r17,r16
 4005d1c:	9021883a 	mov	r16,r18
 4005d20:	10800044 	addi	r2,r2,1
 4005d24:	d8800415 	stw	r2,16(sp)
 4005d28:	003dc606 	br	4005444 <_dtoa_r+0xb00>
 4005d2c:	d9400c17 	ldw	r5,48(sp)
 4005d30:	a009883a 	mov	r4,r20
 4005d34:	400f42c0 	call	400f42c <__muldf3>
 4005d38:	d9800d17 	ldw	r6,52(sp)
 4005d3c:	d9400117 	ldw	r5,4(sp)
 4005d40:	d9001017 	ldw	r4,64(sp)
 4005d44:	d8800c15 	stw	r2,48(sp)
 4005d48:	d8c00d15 	stw	r3,52(sp)
 4005d4c:	29000005 	stb	r4,0(r5)
 4005d50:	31000058 	cmpnei	r4,r6,1
 4005d54:	29a9883a 	add	r20,r5,r6
 4005d58:	2000a026 	beq	r4,zero,4005fdc <_dtoa_r+0x1698>
 4005d5c:	dc400e15 	stw	r17,56(sp)
 4005d60:	8009883a 	mov	r4,r16
 4005d64:	900b883a 	mov	r5,r18
 4005d68:	a823883a 	mov	r17,r21
 4005d6c:	000d883a 	mov	r6,zero
 4005d70:	01d00934 	movhi	r7,16420
 4005d74:	400f42c0 	call	400f42c <__muldf3>
 4005d78:	180b883a 	mov	r5,r3
 4005d7c:	1009883a 	mov	r4,r2
 4005d80:	1825883a 	mov	r18,r3
 4005d84:	102b883a 	mov	r21,r2
 4005d88:	40104e00 	call	40104e0 <__fixdfsi>
 4005d8c:	1009883a 	mov	r4,r2
 4005d90:	1021883a 	mov	r16,r2
 4005d94:	40105600 	call	4010560 <__floatsidf>
 4005d98:	a809883a 	mov	r4,r21
 4005d9c:	900b883a 	mov	r5,r18
 4005da0:	100d883a 	mov	r6,r2
 4005da4:	180f883a 	mov	r7,r3
 4005da8:	8c400044 	addi	r17,r17,1
 4005dac:	84000c04 	addi	r16,r16,48
 4005db0:	400fbd80 	call	400fbd8 <__subdf3>
 4005db4:	8c3fffc5 	stb	r16,-1(r17)
 4005db8:	1009883a 	mov	r4,r2
 4005dbc:	180b883a 	mov	r5,r3
 4005dc0:	a47fea1e 	bne	r20,r17,4005d6c <_dtoa_r+0x1428>
 4005dc4:	dc400e17 	ldw	r17,56(sp)
 4005dc8:	1021883a 	mov	r16,r2
 4005dcc:	1825883a 	mov	r18,r3
 4005dd0:	d9000c17 	ldw	r4,48(sp)
 4005dd4:	d9400d17 	ldw	r5,52(sp)
 4005dd8:	000d883a 	mov	r6,zero
 4005ddc:	01cff834 	movhi	r7,16352
 4005de0:	400dfbc0 	call	400dfbc <__adddf3>
 4005de4:	800d883a 	mov	r6,r16
 4005de8:	900f883a 	mov	r7,r18
 4005dec:	1009883a 	mov	r4,r2
 4005df0:	180b883a 	mov	r5,r3
 4005df4:	400f3440 	call	400f344 <__ledf2>
 4005df8:	10005416 	blt	r2,zero,4005f4c <_dtoa_r+0x1608>
 4005dfc:	d9800c17 	ldw	r6,48(sp)
 4005e00:	d9c00d17 	ldw	r7,52(sp)
 4005e04:	0009883a 	mov	r4,zero
 4005e08:	014ff834 	movhi	r5,16352
 4005e0c:	400fbd80 	call	400fbd8 <__subdf3>
 4005e10:	800d883a 	mov	r6,r16
 4005e14:	900f883a 	mov	r7,r18
 4005e18:	1009883a 	mov	r4,r2
 4005e1c:	180b883a 	mov	r5,r3
 4005e20:	400f25c0 	call	400f25c <__gedf2>
 4005e24:	00bc9a0e 	bge	zero,r2,4005090 <_dtoa_r+0x74c>
 4005e28:	a0bfffc7 	ldb	r2,-1(r20)
 4005e2c:	a02b883a 	mov	r21,r20
 4005e30:	a53fffc4 	addi	r20,r20,-1
 4005e34:	10800c20 	cmpeqi	r2,r2,48
 4005e38:	103ffb1e 	bne	r2,zero,4005e28 <_dtoa_r+0x14e4>
 4005e3c:	d8801117 	ldw	r2,68(sp)
 4005e40:	10800044 	addi	r2,r2,1
 4005e44:	d8800415 	stw	r2,16(sp)
 4005e48:	003da106 	br	40054d0 <_dtoa_r+0xb8c>
 4005e4c:	d8c01217 	ldw	r3,72(sp)
 4005e50:	d9000617 	ldw	r4,24(sp)
 4005e54:	00800d84 	movi	r2,54
 4005e58:	10c5c83a 	sub	r2,r2,r3
 4005e5c:	b0ad883a 	add	r22,r22,r2
 4005e60:	2085883a 	add	r2,r4,r2
 4005e64:	dd000817 	ldw	r20,32(sp)
 4005e68:	2025883a 	mov	r18,r4
 4005e6c:	d8800615 	stw	r2,24(sp)
 4005e70:	003d0e06 	br	40052ac <_dtoa_r+0x968>
 4005e74:	d9000117 	ldw	r4,4(sp)
 4005e78:	003c4b06 	br	4004fa8 <_dtoa_r+0x664>
 4005e7c:	9821883a 	mov	r16,r19
 4005e80:	8825883a 	mov	r18,r17
 4005e84:	05400084 	movi	r21,2
 4005e88:	003bb406 	br	4004d5c <_dtoa_r+0x418>
 4005e8c:	d8800517 	ldw	r2,20(sp)
 4005e90:	103ede26 	beq	r2,zero,4005a0c <_dtoa_r+0x10c8>
 4005e94:	d8800b17 	ldw	r2,44(sp)
 4005e98:	00bc7d0e 	bge	zero,r2,4005090 <_dtoa_r+0x74c>
 4005e9c:	900b883a 	mov	r5,r18
 4005ea0:	8009883a 	mov	r4,r16
 4005ea4:	000d883a 	mov	r6,zero
 4005ea8:	01d00934 	movhi	r7,16420
 4005eac:	400f42c0 	call	400f42c <__muldf3>
 4005eb0:	a9000044 	addi	r4,r21,1
 4005eb4:	1021883a 	mov	r16,r2
 4005eb8:	1825883a 	mov	r18,r3
 4005ebc:	40105600 	call	4010560 <__floatsidf>
 4005ec0:	800d883a 	mov	r6,r16
 4005ec4:	900f883a 	mov	r7,r18
 4005ec8:	1009883a 	mov	r4,r2
 4005ecc:	180b883a 	mov	r5,r3
 4005ed0:	400f42c0 	call	400f42c <__muldf3>
 4005ed4:	1009883a 	mov	r4,r2
 4005ed8:	000d883a 	mov	r6,zero
 4005edc:	01d00734 	movhi	r7,16412
 4005ee0:	180b883a 	mov	r5,r3
 4005ee4:	400dfbc0 	call	400dfbc <__adddf3>
 4005ee8:	d9000417 	ldw	r4,16(sp)
 4005eec:	1029883a 	mov	r20,r2
 4005ef0:	00bf3034 	movhi	r2,64704
 4005ef4:	1887883a 	add	r3,r3,r2
 4005ef8:	d8800b17 	ldw	r2,44(sp)
 4005efc:	213fffc4 	addi	r4,r4,-1
 4005f00:	d9001115 	stw	r4,68(sp)
 4005f04:	d8c00c15 	stw	r3,48(sp)
 4005f08:	d8800d15 	stw	r2,52(sp)
 4005f0c:	003bb106 	br	4004dd4 <_dtoa_r+0x490>
 4005f10:	d8800417 	ldw	r2,16(sp)
 4005f14:	00c00c44 	movi	r3,49
 4005f18:	10800044 	addi	r2,r2,1
 4005f1c:	d8800415 	stw	r2,16(sp)
 4005f20:	003c2a06 	br	4004fcc <_dtoa_r+0x688>
 4005f24:	00800e44 	movi	r2,57
 4005f28:	8023883a 	mov	r17,r16
 4005f2c:	d9400117 	ldw	r5,4(sp)
 4005f30:	b0800005 	stb	r2,0(r22)
 4005f34:	9021883a 	mov	r16,r18
 4005f38:	01000e44 	movi	r4,57
 4005f3c:	003d5006 	br	4005480 <_dtoa_r+0xb3c>
 4005f40:	0029883a 	mov	r20,zero
 4005f44:	0021883a 	mov	r16,zero
 4005f48:	003e7106 	br	4005910 <_dtoa_r+0xfcc>
 4005f4c:	d8801117 	ldw	r2,68(sp)
 4005f50:	d9000117 	ldw	r4,4(sp)
 4005f54:	10800044 	addi	r2,r2,1
 4005f58:	d8800415 	stw	r2,16(sp)
 4005f5c:	003c1206 	br	4004fa8 <_dtoa_r+0x664>
 4005f60:	103f241e 	bne	r2,zero,4005bf4 <_dtoa_r+0x12b0>
 4005f64:	9880004c 	andi	r2,r19,1
 4005f68:	103f1e1e 	bne	r2,zero,4005be4 <_dtoa_r+0x12a0>
 4005f6c:	003f2106 	br	4005bf4 <_dtoa_r+0x12b0>
 4005f70:	d8801117 	ldw	r2,68(sp)
 4005f74:	ddc00d17 	ldw	r23,52(sp)
 4005f78:	10800044 	addi	r2,r2,1
 4005f7c:	d8800415 	stw	r2,16(sp)
 4005f80:	003d5306 	br	40054d0 <_dtoa_r+0xb8c>
 4005f84:	d8c00417 	ldw	r3,16(sp)
 4005f88:	a8800e60 	cmpeqi	r2,r21,57
 4005f8c:	a827883a 	mov	r19,r21
 4005f90:	18c00044 	addi	r3,r3,1
 4005f94:	d8c00415 	stw	r3,16(sp)
 4005f98:	b5400044 	addi	r21,r22,1
 4005f9c:	103fe11e 	bne	r2,zero,4005f24 <_dtoa_r+0x15e0>
 4005fa0:	047f1216 	blt	zero,r17,4005bec <_dtoa_r+0x12a8>
 4005fa4:	003f1306 	br	4005bf4 <_dtoa_r+0x12b0>
 4005fa8:	d8800217 	ldw	r2,8(sp)
 4005fac:	108000c8 	cmpgei	r2,r2,3
 4005fb0:	103e481e 	bne	r2,zero,40058d4 <_dtoa_r+0xf90>
 4005fb4:	dd400415 	stw	r21,16(sp)
 4005fb8:	003e0d06 	br	40057f0 <_dtoa_r+0xeac>
 4005fbc:	d8800217 	ldw	r2,8(sp)
 4005fc0:	108000c8 	cmpgei	r2,r2,3
 4005fc4:	103e431e 	bne	r2,zero,40058d4 <_dtoa_r+0xf90>
 4005fc8:	d8800b17 	ldw	r2,44(sp)
 4005fcc:	dd400415 	stw	r21,16(sp)
 4005fd0:	d8800515 	stw	r2,20(sp)
 4005fd4:	04bdb10e 	bge	zero,r18,400569c <_dtoa_r+0xd58>
 4005fd8:	003e5c06 	br	400594c <_dtoa_r+0x1008>
 4005fdc:	a829883a 	mov	r20,r21
 4005fe0:	003f7b06 	br	4005dd0 <_dtoa_r+0x148c>
 4005fe4:	05400084 	movi	r21,2
 4005fe8:	003b5c06 	br	4004d5c <_dtoa_r+0x418>
 4005fec:	01c10074 	movhi	r7,1025
 4005ff0:	01010074 	movhi	r4,1025
 4005ff4:	39c8a104 	addi	r7,r7,8836
 4005ff8:	000d883a 	mov	r6,zero
 4005ffc:	01406a84 	movi	r5,426
 4006000:	2108a604 	addi	r4,r4,8856
 4006004:	40090000 	call	4009000 <__assert_func>
 4006008:	000b883a 	mov	r5,zero
 400600c:	003b1506 	br	4004c64 <_dtoa_r+0x320>
 4006010:	b8001115 	stw	zero,68(r23)
 4006014:	000b883a 	mov	r5,zero
 4006018:	b809883a 	mov	r4,r23
 400601c:	4006a5c0 	call	4006a5c <_Balloc>
 4006020:	d8800115 	stw	r2,4(sp)
 4006024:	103ff126 	beq	r2,zero,4005fec <_dtoa_r+0x16a8>
 4006028:	d8800117 	ldw	r2,4(sp)
 400602c:	d8001e15 	stw	zero,120(sp)
 4006030:	b8801015 	stw	r2,64(r23)
 4006034:	00bfffc4 	movi	r2,-1
 4006038:	d8800515 	stw	r2,20(sp)
 400603c:	d8800b15 	stw	r2,44(sp)
 4006040:	00800044 	movi	r2,1
 4006044:	d8800715 	stw	r2,28(sp)
 4006048:	003c1106 	br	4005090 <_dtoa_r+0x74c>
 400604c:	01c10074 	movhi	r7,1025
 4006050:	01010074 	movhi	r4,1025
 4006054:	39c8a104 	addi	r7,r7,8836
 4006058:	000d883a 	mov	r6,zero
 400605c:	0140ba84 	movi	r5,746
 4006060:	2108a604 	addi	r4,r4,8856
 4006064:	40090000 	call	4009000 <__assert_func>
 4006068:	00810074 	movhi	r2,1025
 400606c:	10889e04 	addi	r2,r2,8824
 4006070:	d8800115 	stw	r2,4(sp)
 4006074:	003a6506 	br	4004a0c <_dtoa_r+0xc8>
 4006078:	18c00120 	cmpeqi	r3,r3,4
 400607c:	183cc91e 	bne	r3,zero,40053a4 <_dtoa_r+0xa60>
 4006080:	00c00f04 	movi	r3,60
 4006084:	1885c83a 	sub	r2,r3,r2
 4006088:	003cc106 	br	4005390 <_dtoa_r+0xa4c>

0400608c <__localeconv_l>:
 400608c:	20803c04 	addi	r2,r4,240
 4006090:	f800283a 	ret

04006094 <_localeconv_r>:
 4006094:	00810074 	movhi	r2,1025
 4006098:	108c2104 	addi	r2,r2,12420
 400609c:	f800283a 	ret

040060a0 <localeconv>:
 40060a0:	00810074 	movhi	r2,1025
 40060a4:	108c2104 	addi	r2,r2,12420
 40060a8:	f800283a 	ret

040060ac <_malloc_r>:
 40060ac:	defff604 	addi	sp,sp,-40
 40060b0:	dc400115 	stw	r17,4(sp)
 40060b4:	2c4002c4 	addi	r17,r5,11
 40060b8:	dc800215 	stw	r18,8(sp)
 40060bc:	dfc00915 	stw	ra,36(sp)
 40060c0:	df000815 	stw	fp,32(sp)
 40060c4:	ddc00715 	stw	r23,28(sp)
 40060c8:	dd800615 	stw	r22,24(sp)
 40060cc:	dd400515 	stw	r21,20(sp)
 40060d0:	dd000415 	stw	r20,16(sp)
 40060d4:	dcc00315 	stw	r19,12(sp)
 40060d8:	dc000015 	stw	r16,0(sp)
 40060dc:	888005e8 	cmpgeui	r2,r17,23
 40060e0:	2025883a 	mov	r18,r4
 40060e4:	10001b1e 	bne	r2,zero,4006154 <_malloc_r+0xa8>
 40060e8:	29400468 	cmpgeui	r5,r5,17
 40060ec:	2800821e 	bne	r5,zero,40062f8 <_malloc_r+0x24c>
 40060f0:	40110ac0 	call	40110ac <__malloc_lock>
 40060f4:	04400404 	movi	r17,16
 40060f8:	00800604 	movi	r2,24
 40060fc:	01c00084 	movi	r7,2
 4006100:	04c10074 	movhi	r19,1025
 4006104:	9ccae304 	addi	r19,r19,11148
 4006108:	9885883a 	add	r2,r19,r2
 400610c:	14000117 	ldw	r16,4(r2)
 4006110:	10fffe04 	addi	r3,r2,-8
 4006114:	80c08b26 	beq	r16,r3,4006344 <_malloc_r+0x298>
 4006118:	80800117 	ldw	r2,4(r16)
 400611c:	81000317 	ldw	r4,12(r16)
 4006120:	00ffff04 	movi	r3,-4
 4006124:	10c4703a 	and	r2,r2,r3
 4006128:	81400217 	ldw	r5,8(r16)
 400612c:	8085883a 	add	r2,r16,r2
 4006130:	10c00117 	ldw	r3,4(r2)
 4006134:	29000315 	stw	r4,12(r5)
 4006138:	21400215 	stw	r5,8(r4)
 400613c:	18c00054 	ori	r3,r3,1
 4006140:	10c00115 	stw	r3,4(r2)
 4006144:	9009883a 	mov	r4,r18
 4006148:	40110d00 	call	40110d0 <__malloc_unlock>
 400614c:	80800204 	addi	r2,r16,8
 4006150:	00006c06 	br	4006304 <_malloc_r+0x258>
 4006154:	00bffe04 	movi	r2,-8
 4006158:	88a2703a 	and	r17,r17,r2
 400615c:	88006616 	blt	r17,zero,40062f8 <_malloc_r+0x24c>
 4006160:	89406536 	bltu	r17,r5,40062f8 <_malloc_r+0x24c>
 4006164:	40110ac0 	call	40110ac <__malloc_lock>
 4006168:	88807e28 	cmpgeui	r2,r17,504
 400616c:	10012226 	beq	r2,zero,40065f8 <_malloc_r+0x54c>
 4006170:	8804d27a 	srli	r2,r17,9
 4006174:	10006f26 	beq	r2,zero,4006334 <_malloc_r+0x288>
 4006178:	10c00168 	cmpgeui	r3,r2,5
 400617c:	1800fe1e 	bne	r3,zero,4006578 <_malloc_r+0x4cc>
 4006180:	8804d1ba 	srli	r2,r17,6
 4006184:	11c00e44 	addi	r7,r2,57
 4006188:	380890fa 	slli	r4,r7,3
 400618c:	12000e04 	addi	r8,r2,56
 4006190:	04c10074 	movhi	r19,1025
 4006194:	9ccae304 	addi	r19,r19,11148
 4006198:	9909883a 	add	r4,r19,r4
 400619c:	24000117 	ldw	r16,4(r4)
 40061a0:	213ffe04 	addi	r4,r4,-8
 40061a4:	24000b26 	beq	r4,r16,40061d4 <_malloc_r+0x128>
 40061a8:	01bfff04 	movi	r6,-4
 40061ac:	00000306 	br	40061bc <_malloc_r+0x110>
 40061b0:	1800d60e 	bge	r3,zero,400650c <_malloc_r+0x460>
 40061b4:	84000317 	ldw	r16,12(r16)
 40061b8:	24000626 	beq	r4,r16,40061d4 <_malloc_r+0x128>
 40061bc:	80800117 	ldw	r2,4(r16)
 40061c0:	1184703a 	and	r2,r2,r6
 40061c4:	1447c83a 	sub	r3,r2,r17
 40061c8:	19400408 	cmpgei	r5,r3,16
 40061cc:	283ff826 	beq	r5,zero,40061b0 <_malloc_r+0x104>
 40061d0:	400f883a 	mov	r7,r8
 40061d4:	9c000417 	ldw	r16,16(r19)
 40061d8:	02410074 	movhi	r9,1025
 40061dc:	4a4ae504 	addi	r9,r9,11156
 40061e0:	82405f26 	beq	r16,r9,4006360 <_malloc_r+0x2b4>
 40061e4:	80c00117 	ldw	r3,4(r16)
 40061e8:	00bfff04 	movi	r2,-4
 40061ec:	1884703a 	and	r2,r3,r2
 40061f0:	1447c83a 	sub	r3,r2,r17
 40061f4:	19000410 	cmplti	r4,r3,16
 40061f8:	20010a26 	beq	r4,zero,4006624 <_malloc_r+0x578>
 40061fc:	9a400515 	stw	r9,20(r19)
 4006200:	9a400415 	stw	r9,16(r19)
 4006204:	1800ff0e 	bge	r3,zero,4006604 <_malloc_r+0x558>
 4006208:	10c08028 	cmpgeui	r3,r2,512
 400620c:	1800c11e 	bne	r3,zero,4006514 <_malloc_r+0x468>
 4006210:	1006d0fa 	srli	r3,r2,3
 4006214:	1008d17a 	srli	r4,r2,5
 4006218:	00800044 	movi	r2,1
 400621c:	18c00044 	addi	r3,r3,1
 4006220:	180690fa 	slli	r3,r3,3
 4006224:	99400117 	ldw	r5,4(r19)
 4006228:	1104983a 	sll	r2,r2,r4
 400622c:	98c7883a 	add	r3,r19,r3
 4006230:	19000017 	ldw	r4,0(r3)
 4006234:	1144b03a 	or	r2,r2,r5
 4006238:	197ffe04 	addi	r5,r3,-8
 400623c:	81400315 	stw	r5,12(r16)
 4006240:	81000215 	stw	r4,8(r16)
 4006244:	98800115 	stw	r2,4(r19)
 4006248:	1c000015 	stw	r16,0(r3)
 400624c:	24000315 	stw	r16,12(r4)
 4006250:	3807d0ba 	srai	r3,r7,2
 4006254:	01000044 	movi	r4,1
 4006258:	20c8983a 	sll	r4,r4,r3
 400625c:	11004536 	bltu	r2,r4,4006374 <_malloc_r+0x2c8>
 4006260:	2086703a 	and	r3,r4,r2
 4006264:	18000a1e 	bne	r3,zero,4006290 <_malloc_r+0x1e4>
 4006268:	00ffff04 	movi	r3,-4
 400626c:	2109883a 	add	r4,r4,r4
 4006270:	38ce703a 	and	r7,r7,r3
 4006274:	2086703a 	and	r3,r4,r2
 4006278:	39c00104 	addi	r7,r7,4
 400627c:	1800041e 	bne	r3,zero,4006290 <_malloc_r+0x1e4>
 4006280:	2109883a 	add	r4,r4,r4
 4006284:	2086703a 	and	r3,r4,r2
 4006288:	39c00104 	addi	r7,r7,4
 400628c:	183ffc26 	beq	r3,zero,4006280 <_malloc_r+0x1d4>
 4006290:	02bfff04 	movi	r10,-4
 4006294:	381690fa 	slli	r11,r7,3
 4006298:	3819883a 	mov	r12,r7
 400629c:	9ad7883a 	add	r11,r19,r11
 40062a0:	5811883a 	mov	r8,r11
 40062a4:	40800317 	ldw	r2,12(r8)
 40062a8:	4080bc26 	beq	r8,r2,400659c <_malloc_r+0x4f0>
 40062ac:	10c00117 	ldw	r3,4(r2)
 40062b0:	1021883a 	mov	r16,r2
 40062b4:	10800317 	ldw	r2,12(r2)
 40062b8:	1a86703a 	and	r3,r3,r10
 40062bc:	1c4bc83a 	sub	r5,r3,r17
 40062c0:	29800410 	cmplti	r6,r5,16
 40062c4:	3000ba26 	beq	r6,zero,40065b0 <_malloc_r+0x504>
 40062c8:	283ff716 	blt	r5,zero,40062a8 <_malloc_r+0x1fc>
 40062cc:	80c7883a 	add	r3,r16,r3
 40062d0:	19400117 	ldw	r5,4(r3)
 40062d4:	81800217 	ldw	r6,8(r16)
 40062d8:	9009883a 	mov	r4,r18
 40062dc:	29400054 	ori	r5,r5,1
 40062e0:	19400115 	stw	r5,4(r3)
 40062e4:	30800315 	stw	r2,12(r6)
 40062e8:	11800215 	stw	r6,8(r2)
 40062ec:	40110d00 	call	40110d0 <__malloc_unlock>
 40062f0:	80800204 	addi	r2,r16,8
 40062f4:	00000306 	br	4006304 <_malloc_r+0x258>
 40062f8:	00800304 	movi	r2,12
 40062fc:	90800015 	stw	r2,0(r18)
 4006300:	0005883a 	mov	r2,zero
 4006304:	dfc00917 	ldw	ra,36(sp)
 4006308:	df000817 	ldw	fp,32(sp)
 400630c:	ddc00717 	ldw	r23,28(sp)
 4006310:	dd800617 	ldw	r22,24(sp)
 4006314:	dd400517 	ldw	r21,20(sp)
 4006318:	dd000417 	ldw	r20,16(sp)
 400631c:	dcc00317 	ldw	r19,12(sp)
 4006320:	dc800217 	ldw	r18,8(sp)
 4006324:	dc400117 	ldw	r17,4(sp)
 4006328:	dc000017 	ldw	r16,0(sp)
 400632c:	dec00a04 	addi	sp,sp,40
 4006330:	f800283a 	ret
 4006334:	01008004 	movi	r4,512
 4006338:	01c01004 	movi	r7,64
 400633c:	02000fc4 	movi	r8,63
 4006340:	003f9306 	br	4006190 <_malloc_r+0xe4>
 4006344:	14000317 	ldw	r16,12(r2)
 4006348:	39c00084 	addi	r7,r7,2
 400634c:	143f721e 	bne	r2,r16,4006118 <_malloc_r+0x6c>
 4006350:	9c000417 	ldw	r16,16(r19)
 4006354:	02410074 	movhi	r9,1025
 4006358:	4a4ae504 	addi	r9,r9,11156
 400635c:	827fa11e 	bne	r16,r9,40061e4 <_malloc_r+0x138>
 4006360:	3807d0ba 	srai	r3,r7,2
 4006364:	01000044 	movi	r4,1
 4006368:	98800117 	ldw	r2,4(r19)
 400636c:	20c8983a 	sll	r4,r4,r3
 4006370:	113fbb2e 	bgeu	r2,r4,4006260 <_malloc_r+0x1b4>
 4006374:	9c000217 	ldw	r16,8(r19)
 4006378:	00bfff04 	movi	r2,-4
 400637c:	85400117 	ldw	r21,4(r16)
 4006380:	a8ac703a 	and	r22,r21,r2
 4006384:	b4400336 	bltu	r22,r17,4006394 <_malloc_r+0x2e8>
 4006388:	b445c83a 	sub	r2,r22,r17
 400638c:	10c00408 	cmpgei	r3,r2,16
 4006390:	1800541e 	bne	r3,zero,40064e4 <_malloc_r+0x438>
 4006394:	00810074 	movhi	r2,1025
 4006398:	108cae17 	ldw	r2,12984(r2)
 400639c:	00c10074 	movhi	r3,1025
 40063a0:	1d4fa617 	ldw	r21,16024(r3)
 40063a4:	10bfffd8 	cmpnei	r2,r2,-1
 40063a8:	85b9883a 	add	fp,r16,r22
 40063ac:	8d6b883a 	add	r21,r17,r21
 40063b0:	1000d626 	beq	r2,zero,400670c <_malloc_r+0x660>
 40063b4:	ad4403c4 	addi	r21,r21,4111
 40063b8:	00bc0004 	movi	r2,-4096
 40063bc:	a8aa703a 	and	r21,r21,r2
 40063c0:	a80b883a 	mov	r5,r21
 40063c4:	9009883a 	mov	r4,r18
 40063c8:	4007c4c0 	call	4007c4c <_sbrk_r>
 40063cc:	102f883a 	mov	r23,r2
 40063d0:	10bfffd8 	cmpnei	r2,r2,-1
 40063d4:	1000a826 	beq	r2,zero,4006678 <_malloc_r+0x5cc>
 40063d8:	bf00a636 	bltu	r23,fp,4006674 <_malloc_r+0x5c8>
 40063dc:	00810074 	movhi	r2,1025
 40063e0:	1510b917 	ldw	r20,17124(r2)
 40063e4:	ad29883a 	add	r20,r21,r20
 40063e8:	1510b915 	stw	r20,17124(r2)
 40063ec:	a007883a 	mov	r3,r20
 40063f0:	e5c0ec26 	beq	fp,r23,40067a4 <_malloc_r+0x6f8>
 40063f4:	00810074 	movhi	r2,1025
 40063f8:	108cae17 	ldw	r2,12984(r2)
 40063fc:	10bfffd8 	cmpnei	r2,r2,-1
 4006400:	1000ef26 	beq	r2,zero,40067c0 <_malloc_r+0x714>
 4006404:	bf39c83a 	sub	fp,r23,fp
 4006408:	e0c7883a 	add	r3,fp,r3
 400640c:	00810074 	movhi	r2,1025
 4006410:	10d0b915 	stw	r3,17124(r2)
 4006414:	bf0001cc 	andi	fp,r23,7
 4006418:	e000c526 	beq	fp,zero,4006730 <_malloc_r+0x684>
 400641c:	bf2fc83a 	sub	r23,r23,fp
 4006420:	bdc00204 	addi	r23,r23,8
 4006424:	05040204 	movi	r20,4104
 4006428:	a729c83a 	sub	r20,r20,fp
 400642c:	bd6b883a 	add	r21,r23,r21
 4006430:	a569c83a 	sub	r20,r20,r21
 4006434:	a503ffcc 	andi	r20,r20,4095
 4006438:	a00b883a 	mov	r5,r20
 400643c:	9009883a 	mov	r4,r18
 4006440:	4007c4c0 	call	4007c4c <_sbrk_r>
 4006444:	10ffffe0 	cmpeqi	r3,r2,-1
 4006448:	1800f31e 	bne	r3,zero,4006818 <_malloc_r+0x76c>
 400644c:	15c5c83a 	sub	r2,r2,r23
 4006450:	152b883a 	add	r21,r2,r20
 4006454:	00810074 	movhi	r2,1025
 4006458:	1150b917 	ldw	r5,17124(r2)
 400645c:	9dc00215 	stw	r23,8(r19)
 4006460:	ad400054 	ori	r21,r21,1
 4006464:	a169883a 	add	r20,r20,r5
 4006468:	1510b915 	stw	r20,17124(r2)
 400646c:	bd400115 	stw	r21,4(r23)
 4006470:	84c0d626 	beq	r16,r19,40067cc <_malloc_r+0x720>
 4006474:	b0800428 	cmpgeui	r2,r22,16
 4006478:	1000d626 	beq	r2,zero,40067d4 <_malloc_r+0x728>
 400647c:	80c00117 	ldw	r3,4(r16)
 4006480:	013ffe04 	movi	r4,-8
 4006484:	b0bffd04 	addi	r2,r22,-12
 4006488:	1104703a 	and	r2,r2,r4
 400648c:	18c0004c 	andi	r3,r3,1
 4006490:	1886b03a 	or	r3,r3,r2
 4006494:	80c00115 	stw	r3,4(r16)
 4006498:	01000144 	movi	r4,5
 400649c:	8087883a 	add	r3,r16,r2
 40064a0:	19000115 	stw	r4,4(r3)
 40064a4:	19000215 	stw	r4,8(r3)
 40064a8:	10800428 	cmpgeui	r2,r2,16
 40064ac:	1000df1e 	bne	r2,zero,400682c <_malloc_r+0x780>
 40064b0:	bd400117 	ldw	r21,4(r23)
 40064b4:	b821883a 	mov	r16,r23
 40064b8:	00810074 	movhi	r2,1025
 40064bc:	108fa517 	ldw	r2,16020(r2)
 40064c0:	1500022e 	bgeu	r2,r20,40064cc <_malloc_r+0x420>
 40064c4:	00810074 	movhi	r2,1025
 40064c8:	150fa515 	stw	r20,16020(r2)
 40064cc:	00810074 	movhi	r2,1025
 40064d0:	108fa417 	ldw	r2,16016(r2)
 40064d4:	15006a2e 	bgeu	r2,r20,4006680 <_malloc_r+0x5d4>
 40064d8:	00810074 	movhi	r2,1025
 40064dc:	150fa415 	stw	r20,16016(r2)
 40064e0:	00006706 	br	4006680 <_malloc_r+0x5d4>
 40064e4:	88c00054 	ori	r3,r17,1
 40064e8:	80c00115 	stw	r3,4(r16)
 40064ec:	8463883a 	add	r17,r16,r17
 40064f0:	10800054 	ori	r2,r2,1
 40064f4:	9c400215 	stw	r17,8(r19)
 40064f8:	88800115 	stw	r2,4(r17)
 40064fc:	9009883a 	mov	r4,r18
 4006500:	40110d00 	call	40110d0 <__malloc_unlock>
 4006504:	80800204 	addi	r2,r16,8
 4006508:	003f7e06 	br	4006304 <_malloc_r+0x258>
 400650c:	81000317 	ldw	r4,12(r16)
 4006510:	003f0506 	br	4006128 <_malloc_r+0x7c>
 4006514:	1006d27a 	srli	r3,r2,9
 4006518:	19000168 	cmpgeui	r4,r3,5
 400651c:	20005026 	beq	r4,zero,4006660 <_malloc_r+0x5b4>
 4006520:	19000568 	cmpgeui	r4,r3,21
 4006524:	20008c1e 	bne	r4,zero,4006758 <_malloc_r+0x6ac>
 4006528:	19401704 	addi	r5,r3,92
 400652c:	280a90fa 	slli	r5,r5,3
 4006530:	190016c4 	addi	r4,r3,91
 4006534:	994b883a 	add	r5,r19,r5
 4006538:	28c00017 	ldw	r3,0(r5)
 400653c:	297ffe04 	addi	r5,r5,-8
 4006540:	28c07426 	beq	r5,r3,4006714 <_malloc_r+0x668>
 4006544:	01bfff04 	movi	r6,-4
 4006548:	19000117 	ldw	r4,4(r3)
 400654c:	2188703a 	and	r4,r4,r6
 4006550:	1100022e 	bgeu	r2,r4,400655c <_malloc_r+0x4b0>
 4006554:	18c00217 	ldw	r3,8(r3)
 4006558:	28fffb1e 	bne	r5,r3,4006548 <_malloc_r+0x49c>
 400655c:	19400317 	ldw	r5,12(r3)
 4006560:	98800117 	ldw	r2,4(r19)
 4006564:	81400315 	stw	r5,12(r16)
 4006568:	80c00215 	stw	r3,8(r16)
 400656c:	2c000215 	stw	r16,8(r5)
 4006570:	1c000315 	stw	r16,12(r3)
 4006574:	003f3606 	br	4006250 <_malloc_r+0x1a4>
 4006578:	10c00568 	cmpgeui	r3,r2,21
 400657c:	18004a26 	beq	r3,zero,40066a8 <_malloc_r+0x5fc>
 4006580:	10c01568 	cmpgeui	r3,r2,85
 4006584:	18007b1e 	bne	r3,zero,4006774 <_malloc_r+0x6c8>
 4006588:	8804d33a 	srli	r2,r17,12
 400658c:	11c01bc4 	addi	r7,r2,111
 4006590:	380890fa 	slli	r4,r7,3
 4006594:	12001b84 	addi	r8,r2,110
 4006598:	003efd06 	br	4006190 <_malloc_r+0xe4>
 400659c:	63000044 	addi	r12,r12,1
 40065a0:	608000cc 	andi	r2,r12,3
 40065a4:	42000204 	addi	r8,r8,8
 40065a8:	103f3e1e 	bne	r2,zero,40062a4 <_malloc_r+0x1f8>
 40065ac:	00004506 	br	40066c4 <_malloc_r+0x618>
 40065b0:	81000217 	ldw	r4,8(r16)
 40065b4:	89800054 	ori	r6,r17,1
 40065b8:	81800115 	stw	r6,4(r16)
 40065bc:	20800315 	stw	r2,12(r4)
 40065c0:	11000215 	stw	r4,8(r2)
 40065c4:	8463883a 	add	r17,r16,r17
 40065c8:	9c400515 	stw	r17,20(r19)
 40065cc:	9c400415 	stw	r17,16(r19)
 40065d0:	28800054 	ori	r2,r5,1
 40065d4:	88800115 	stw	r2,4(r17)
 40065d8:	8a400315 	stw	r9,12(r17)
 40065dc:	8a400215 	stw	r9,8(r17)
 40065e0:	80c7883a 	add	r3,r16,r3
 40065e4:	19400015 	stw	r5,0(r3)
 40065e8:	9009883a 	mov	r4,r18
 40065ec:	40110d00 	call	40110d0 <__malloc_unlock>
 40065f0:	80800204 	addi	r2,r16,8
 40065f4:	003f4306 	br	4006304 <_malloc_r+0x258>
 40065f8:	880ed0fa 	srli	r7,r17,3
 40065fc:	88800204 	addi	r2,r17,8
 4006600:	003ebf06 	br	4006100 <_malloc_r+0x54>
 4006604:	8085883a 	add	r2,r16,r2
 4006608:	10c00117 	ldw	r3,4(r2)
 400660c:	9009883a 	mov	r4,r18
 4006610:	18c00054 	ori	r3,r3,1
 4006614:	10c00115 	stw	r3,4(r2)
 4006618:	40110d00 	call	40110d0 <__malloc_unlock>
 400661c:	80800204 	addi	r2,r16,8
 4006620:	003f3806 	br	4006304 <_malloc_r+0x258>
 4006624:	89000054 	ori	r4,r17,1
 4006628:	81000115 	stw	r4,4(r16)
 400662c:	8463883a 	add	r17,r16,r17
 4006630:	9c400515 	stw	r17,20(r19)
 4006634:	9c400415 	stw	r17,16(r19)
 4006638:	19000054 	ori	r4,r3,1
 400663c:	89000115 	stw	r4,4(r17)
 4006640:	8085883a 	add	r2,r16,r2
 4006644:	8a400315 	stw	r9,12(r17)
 4006648:	8a400215 	stw	r9,8(r17)
 400664c:	10c00015 	stw	r3,0(r2)
 4006650:	9009883a 	mov	r4,r18
 4006654:	40110d00 	call	40110d0 <__malloc_unlock>
 4006658:	80800204 	addi	r2,r16,8
 400665c:	003f2906 	br	4006304 <_malloc_r+0x258>
 4006660:	1006d1ba 	srli	r3,r2,6
 4006664:	19400e44 	addi	r5,r3,57
 4006668:	280a90fa 	slli	r5,r5,3
 400666c:	19000e04 	addi	r4,r3,56
 4006670:	003fb006 	br	4006534 <_malloc_r+0x488>
 4006674:	84c04626 	beq	r16,r19,4006790 <_malloc_r+0x6e4>
 4006678:	9c000217 	ldw	r16,8(r19)
 400667c:	85400117 	ldw	r21,4(r16)
 4006680:	00bfff04 	movi	r2,-4
 4006684:	a8aa703a 	and	r21,r21,r2
 4006688:	ac45c83a 	sub	r2,r21,r17
 400668c:	ac400236 	bltu	r21,r17,4006698 <_malloc_r+0x5ec>
 4006690:	10c00408 	cmpgei	r3,r2,16
 4006694:	183f931e 	bne	r3,zero,40064e4 <_malloc_r+0x438>
 4006698:	9009883a 	mov	r4,r18
 400669c:	40110d00 	call	40110d0 <__malloc_unlock>
 40066a0:	0005883a 	mov	r2,zero
 40066a4:	003f1706 	br	4006304 <_malloc_r+0x258>
 40066a8:	11c01704 	addi	r7,r2,92
 40066ac:	380890fa 	slli	r4,r7,3
 40066b0:	120016c4 	addi	r8,r2,91
 40066b4:	003eb606 	br	4006190 <_malloc_r+0xe4>
 40066b8:	58800217 	ldw	r2,8(r11)
 40066bc:	39ffffc4 	addi	r7,r7,-1
 40066c0:	12c0701e 	bne	r2,r11,4006884 <_malloc_r+0x7d8>
 40066c4:	388000cc 	andi	r2,r7,3
 40066c8:	5afffe04 	addi	r11,r11,-8
 40066cc:	103ffa1e 	bne	r2,zero,40066b8 <_malloc_r+0x60c>
 40066d0:	98c00117 	ldw	r3,4(r19)
 40066d4:	0104303a 	nor	r2,zero,r4
 40066d8:	10c4703a 	and	r2,r2,r3
 40066dc:	98800115 	stw	r2,4(r19)
 40066e0:	2109883a 	add	r4,r4,r4
 40066e4:	113f2336 	bltu	r2,r4,4006374 <_malloc_r+0x2c8>
 40066e8:	203f2226 	beq	r4,zero,4006374 <_malloc_r+0x2c8>
 40066ec:	2086703a 	and	r3,r4,r2
 40066f0:	1800041e 	bne	r3,zero,4006704 <_malloc_r+0x658>
 40066f4:	2109883a 	add	r4,r4,r4
 40066f8:	2086703a 	and	r3,r4,r2
 40066fc:	63000104 	addi	r12,r12,4
 4006700:	183ffc26 	beq	r3,zero,40066f4 <_malloc_r+0x648>
 4006704:	600f883a 	mov	r7,r12
 4006708:	003ee206 	br	4006294 <_malloc_r+0x1e8>
 400670c:	ad400404 	addi	r21,r21,16
 4006710:	003f2b06 	br	40063c0 <_malloc_r+0x314>
 4006714:	2009d0ba 	srai	r4,r4,2
 4006718:	00800044 	movi	r2,1
 400671c:	99800117 	ldw	r6,4(r19)
 4006720:	1104983a 	sll	r2,r2,r4
 4006724:	1184b03a 	or	r2,r2,r6
 4006728:	98800115 	stw	r2,4(r19)
 400672c:	003f8d06 	br	4006564 <_malloc_r+0x4b8>
 4006730:	bd69883a 	add	r20,r23,r21
 4006734:	0529c83a 	sub	r20,zero,r20
 4006738:	a503ffcc 	andi	r20,r20,4095
 400673c:	a00b883a 	mov	r5,r20
 4006740:	9009883a 	mov	r4,r18
 4006744:	4007c4c0 	call	4007c4c <_sbrk_r>
 4006748:	10ffffe0 	cmpeqi	r3,r2,-1
 400674c:	183f3f26 	beq	r3,zero,400644c <_malloc_r+0x3a0>
 4006750:	0029883a 	mov	r20,zero
 4006754:	003f3f06 	br	4006454 <_malloc_r+0x3a8>
 4006758:	19001568 	cmpgeui	r4,r3,85
 400675c:	2000201e 	bne	r4,zero,40067e0 <_malloc_r+0x734>
 4006760:	1006d33a 	srli	r3,r2,12
 4006764:	19401bc4 	addi	r5,r3,111
 4006768:	280a90fa 	slli	r5,r5,3
 400676c:	19001b84 	addi	r4,r3,110
 4006770:	003f7006 	br	4006534 <_malloc_r+0x488>
 4006774:	10c05568 	cmpgeui	r3,r2,341
 4006778:	1800201e 	bne	r3,zero,40067fc <_malloc_r+0x750>
 400677c:	8804d3fa 	srli	r2,r17,15
 4006780:	11c01e04 	addi	r7,r2,120
 4006784:	380890fa 	slli	r4,r7,3
 4006788:	12001dc4 	addi	r8,r2,119
 400678c:	003e8006 	br	4006190 <_malloc_r+0xe4>
 4006790:	00810074 	movhi	r2,1025
 4006794:	10d0b917 	ldw	r3,17124(r2)
 4006798:	a8c7883a 	add	r3,r21,r3
 400679c:	10d0b915 	stw	r3,17124(r2)
 40067a0:	003f1406 	br	40063f4 <_malloc_r+0x348>
 40067a4:	e083ffcc 	andi	r2,fp,4095
 40067a8:	103f121e 	bne	r2,zero,40063f4 <_malloc_r+0x348>
 40067ac:	9c000217 	ldw	r16,8(r19)
 40067b0:	b56b883a 	add	r21,r22,r21
 40067b4:	ad400054 	ori	r21,r21,1
 40067b8:	85400115 	stw	r21,4(r16)
 40067bc:	003f3e06 	br	40064b8 <_malloc_r+0x40c>
 40067c0:	00810074 	movhi	r2,1025
 40067c4:	15ccae15 	stw	r23,12984(r2)
 40067c8:	003f1206 	br	4006414 <_malloc_r+0x368>
 40067cc:	b821883a 	mov	r16,r23
 40067d0:	003f3906 	br	40064b8 <_malloc_r+0x40c>
 40067d4:	00800044 	movi	r2,1
 40067d8:	b8800115 	stw	r2,4(r23)
 40067dc:	003fae06 	br	4006698 <_malloc_r+0x5ec>
 40067e0:	19005568 	cmpgeui	r4,r3,341
 40067e4:	2000191e 	bne	r4,zero,400684c <_malloc_r+0x7a0>
 40067e8:	1006d3fa 	srli	r3,r2,15
 40067ec:	19401e04 	addi	r5,r3,120
 40067f0:	280a90fa 	slli	r5,r5,3
 40067f4:	19001dc4 	addi	r4,r3,119
 40067f8:	003f4e06 	br	4006534 <_malloc_r+0x488>
 40067fc:	10815568 	cmpgeui	r2,r2,1365
 4006800:	1000191e 	bne	r2,zero,4006868 <_malloc_r+0x7bc>
 4006804:	8804d4ba 	srli	r2,r17,18
 4006808:	11c01f44 	addi	r7,r2,125
 400680c:	380890fa 	slli	r4,r7,3
 4006810:	12001f04 	addi	r8,r2,124
 4006814:	003e5e06 	br	4006190 <_malloc_r+0xe4>
 4006818:	e73ffe04 	addi	fp,fp,-8
 400681c:	af2b883a 	add	r21,r21,fp
 4006820:	adebc83a 	sub	r21,r21,r23
 4006824:	0029883a 	mov	r20,zero
 4006828:	003f0a06 	br	4006454 <_malloc_r+0x3a8>
 400682c:	81400204 	addi	r5,r16,8
 4006830:	9009883a 	mov	r4,r18
 4006834:	40092b00 	call	40092b0 <_free_r>
 4006838:	9c000217 	ldw	r16,8(r19)
 400683c:	00810074 	movhi	r2,1025
 4006840:	1510b917 	ldw	r20,17124(r2)
 4006844:	85400117 	ldw	r21,4(r16)
 4006848:	003f1b06 	br	40064b8 <_malloc_r+0x40c>
 400684c:	18c15568 	cmpgeui	r3,r3,1365
 4006850:	1800091e 	bne	r3,zero,4006878 <_malloc_r+0x7cc>
 4006854:	1006d4ba 	srli	r3,r2,18
 4006858:	19401f44 	addi	r5,r3,125
 400685c:	280a90fa 	slli	r5,r5,3
 4006860:	19001f04 	addi	r4,r3,124
 4006864:	003f3306 	br	4006534 <_malloc_r+0x488>
 4006868:	0100fe04 	movi	r4,1016
 400686c:	01c01fc4 	movi	r7,127
 4006870:	02001f84 	movi	r8,126
 4006874:	003e4606 	br	4006190 <_malloc_r+0xe4>
 4006878:	0140fe04 	movi	r5,1016
 400687c:	01001f84 	movi	r4,126
 4006880:	003f2c06 	br	4006534 <_malloc_r+0x488>
 4006884:	98800117 	ldw	r2,4(r19)
 4006888:	003f9506 	br	40066e0 <_malloc_r+0x634>

0400688c <memchr>:
 400688c:	208000cc 	andi	r2,r4,3
 4006890:	280f883a 	mov	r7,r5
 4006894:	10000e26 	beq	r2,zero,40068d0 <memchr+0x44>
 4006898:	30bfffc4 	addi	r2,r6,-1
 400689c:	30001726 	beq	r6,zero,40068fc <memchr+0x70>
 40068a0:	29803fcc 	andi	r6,r5,255
 40068a4:	00000606 	br	40068c0 <memchr+0x34>
 40068a8:	21000044 	addi	r4,r4,1
 40068ac:	20c000cc 	andi	r3,r4,3
 40068b0:	18000826 	beq	r3,zero,40068d4 <memchr+0x48>
 40068b4:	10bfffc4 	addi	r2,r2,-1
 40068b8:	10ffffe0 	cmpeqi	r3,r2,-1
 40068bc:	18000f1e 	bne	r3,zero,40068fc <memchr+0x70>
 40068c0:	20c00003 	ldbu	r3,0(r4)
 40068c4:	19bff81e 	bne	r3,r6,40068a8 <memchr+0x1c>
 40068c8:	2005883a 	mov	r2,r4
 40068cc:	f800283a 	ret
 40068d0:	3005883a 	mov	r2,r6
 40068d4:	10c00128 	cmpgeui	r3,r2,4
 40068d8:	18000a1e 	bne	r3,zero,4006904 <memchr+0x78>
 40068dc:	10001e26 	beq	r2,zero,4006958 <memchr+0xcc>
 40068e0:	2087883a 	add	r3,r4,r2
 40068e4:	39803fcc 	andi	r6,r7,255
 40068e8:	2005883a 	mov	r2,r4
 40068ec:	11000003 	ldbu	r4,0(r2)
 40068f0:	21bff626 	beq	r4,r6,40068cc <memchr+0x40>
 40068f4:	10800044 	addi	r2,r2,1
 40068f8:	18bffc1e 	bne	r3,r2,40068ec <memchr+0x60>
 40068fc:	0005883a 	mov	r2,zero
 4006900:	f800283a 	ret
 4006904:	29403fcc 	andi	r5,r5,255
 4006908:	280c923a 	slli	r6,r5,8
 400690c:	027fbff4 	movhi	r9,65279
 4006910:	02202074 	movhi	r8,32897
 4006914:	314ab03a 	or	r5,r6,r5
 4006918:	280c943a 	slli	r6,r5,16
 400691c:	4a7fbfc4 	addi	r9,r9,-257
 4006920:	42202004 	addi	r8,r8,-32640
 4006924:	314cb03a 	or	r6,r6,r5
 4006928:	20c00017 	ldw	r3,0(r4)
 400692c:	30c6f03a 	xor	r3,r6,r3
 4006930:	1a4b883a 	add	r5,r3,r9
 4006934:	00c6303a 	nor	r3,zero,r3
 4006938:	28c6703a 	and	r3,r5,r3
 400693c:	1a06703a 	and	r3,r3,r8
 4006940:	183fe71e 	bne	r3,zero,40068e0 <memchr+0x54>
 4006944:	10bfff04 	addi	r2,r2,-4
 4006948:	10c00128 	cmpgeui	r3,r2,4
 400694c:	21000104 	addi	r4,r4,4
 4006950:	183ff51e 	bne	r3,zero,4006928 <memchr+0x9c>
 4006954:	003fe106 	br	40068dc <memchr+0x50>
 4006958:	f800283a 	ret

0400695c <memcpy>:
 400695c:	30c00430 	cmpltui	r3,r6,16
 4006960:	2005883a 	mov	r2,r4
 4006964:	18002d1e 	bne	r3,zero,4006a1c <memcpy+0xc0>
 4006968:	2906b03a 	or	r3,r5,r4
 400696c:	18c000cc 	andi	r3,r3,3
 4006970:	1800351e 	bne	r3,zero,4006a48 <memcpy+0xec>
 4006974:	32fffc04 	addi	r11,r6,-16
 4006978:	5816d13a 	srli	r11,r11,4
 400697c:	280f883a 	mov	r7,r5
 4006980:	2007883a 	mov	r3,r4
 4006984:	5ac00044 	addi	r11,r11,1
 4006988:	5816913a 	slli	r11,r11,4
 400698c:	22d5883a 	add	r10,r4,r11
 4006990:	39000117 	ldw	r4,4(r7)
 4006994:	3a400017 	ldw	r9,0(r7)
 4006998:	3a000217 	ldw	r8,8(r7)
 400699c:	19000115 	stw	r4,4(r3)
 40069a0:	39000317 	ldw	r4,12(r7)
 40069a4:	1a400015 	stw	r9,0(r3)
 40069a8:	1a000215 	stw	r8,8(r3)
 40069ac:	19000315 	stw	r4,12(r3)
 40069b0:	18c00404 	addi	r3,r3,16
 40069b4:	39c00404 	addi	r7,r7,16
 40069b8:	50fff51e 	bne	r10,r3,4006990 <memcpy+0x34>
 40069bc:	3100030c 	andi	r4,r6,12
 40069c0:	2acb883a 	add	r5,r5,r11
 40069c4:	320003cc 	andi	r8,r6,15
 40069c8:	20002226 	beq	r4,zero,4006a54 <memcpy+0xf8>
 40069cc:	280f883a 	mov	r7,r5
 40069d0:	1813883a 	mov	r9,r3
 40069d4:	39c00104 	addi	r7,r7,4
 40069d8:	3abfff17 	ldw	r10,-4(r7)
 40069dc:	41c9c83a 	sub	r4,r8,r7
 40069e0:	2909883a 	add	r4,r5,r4
 40069e4:	4a800015 	stw	r10,0(r9)
 40069e8:	21000128 	cmpgeui	r4,r4,4
 40069ec:	4a400104 	addi	r9,r9,4
 40069f0:	203ff81e 	bne	r4,zero,40069d4 <memcpy+0x78>
 40069f4:	413fff04 	addi	r4,r8,-4
 40069f8:	2008d0ba 	srli	r4,r4,2
 40069fc:	318000cc 	andi	r6,r6,3
 4006a00:	31ffffc4 	addi	r7,r6,-1
 4006a04:	21000044 	addi	r4,r4,1
 4006a08:	200890ba 	slli	r4,r4,2
 4006a0c:	1907883a 	add	r3,r3,r4
 4006a10:	290b883a 	add	r5,r5,r4
 4006a14:	3000041e 	bne	r6,zero,4006a28 <memcpy+0xcc>
 4006a18:	f800283a 	ret
 4006a1c:	2007883a 	mov	r3,r4
 4006a20:	31ffffc4 	addi	r7,r6,-1
 4006a24:	303ffc26 	beq	r6,zero,4006a18 <memcpy+0xbc>
 4006a28:	39c00044 	addi	r7,r7,1
 4006a2c:	19cf883a 	add	r7,r3,r7
 4006a30:	29800003 	ldbu	r6,0(r5)
 4006a34:	18c00044 	addi	r3,r3,1
 4006a38:	29400044 	addi	r5,r5,1
 4006a3c:	19bfffc5 	stb	r6,-1(r3)
 4006a40:	38fffb1e 	bne	r7,r3,4006a30 <memcpy+0xd4>
 4006a44:	f800283a 	ret
 4006a48:	31ffffc4 	addi	r7,r6,-1
 4006a4c:	2007883a 	mov	r3,r4
 4006a50:	003ff506 	br	4006a28 <memcpy+0xcc>
 4006a54:	400d883a 	mov	r6,r8
 4006a58:	003ff106 	br	4006a20 <memcpy+0xc4>

04006a5c <_Balloc>:
 4006a5c:	20801317 	ldw	r2,76(r4)
 4006a60:	defffc04 	addi	sp,sp,-16
 4006a64:	dc400115 	stw	r17,4(sp)
 4006a68:	dc000015 	stw	r16,0(sp)
 4006a6c:	dfc00315 	stw	ra,12(sp)
 4006a70:	dc800215 	stw	r18,8(sp)
 4006a74:	2021883a 	mov	r16,r4
 4006a78:	2823883a 	mov	r17,r5
 4006a7c:	10000e26 	beq	r2,zero,4006ab8 <_Balloc+0x5c>
 4006a80:	880690ba 	slli	r3,r17,2
 4006a84:	10c7883a 	add	r3,r2,r3
 4006a88:	18800017 	ldw	r2,0(r3)
 4006a8c:	10001126 	beq	r2,zero,4006ad4 <_Balloc+0x78>
 4006a90:	11000017 	ldw	r4,0(r2)
 4006a94:	19000015 	stw	r4,0(r3)
 4006a98:	10000415 	stw	zero,16(r2)
 4006a9c:	10000315 	stw	zero,12(r2)
 4006aa0:	dfc00317 	ldw	ra,12(sp)
 4006aa4:	dc800217 	ldw	r18,8(sp)
 4006aa8:	dc400117 	ldw	r17,4(sp)
 4006aac:	dc000017 	ldw	r16,0(sp)
 4006ab0:	dec00404 	addi	sp,sp,16
 4006ab4:	f800283a 	ret
 4006ab8:	01800844 	movi	r6,33
 4006abc:	01400104 	movi	r5,4
 4006ac0:	40090780 	call	4009078 <_calloc_r>
 4006ac4:	80801315 	stw	r2,76(r16)
 4006ac8:	103fed1e 	bne	r2,zero,4006a80 <_Balloc+0x24>
 4006acc:	0005883a 	mov	r2,zero
 4006ad0:	003ff306 	br	4006aa0 <_Balloc+0x44>
 4006ad4:	04800044 	movi	r18,1
 4006ad8:	9464983a 	sll	r18,r18,r17
 4006adc:	01400044 	movi	r5,1
 4006ae0:	8009883a 	mov	r4,r16
 4006ae4:	91800144 	addi	r6,r18,5
 4006ae8:	300c90ba 	slli	r6,r6,2
 4006aec:	40090780 	call	4009078 <_calloc_r>
 4006af0:	103ff626 	beq	r2,zero,4006acc <_Balloc+0x70>
 4006af4:	14400115 	stw	r17,4(r2)
 4006af8:	14800215 	stw	r18,8(r2)
 4006afc:	003fe606 	br	4006a98 <_Balloc+0x3c>

04006b00 <_Bfree>:
 4006b00:	28000726 	beq	r5,zero,4006b20 <_Bfree+0x20>
 4006b04:	28c00117 	ldw	r3,4(r5)
 4006b08:	20801317 	ldw	r2,76(r4)
 4006b0c:	180690ba 	slli	r3,r3,2
 4006b10:	10c5883a 	add	r2,r2,r3
 4006b14:	10c00017 	ldw	r3,0(r2)
 4006b18:	28c00015 	stw	r3,0(r5)
 4006b1c:	11400015 	stw	r5,0(r2)
 4006b20:	f800283a 	ret

04006b24 <__multadd>:
 4006b24:	defff704 	addi	sp,sp,-36
 4006b28:	dc800215 	stw	r18,8(sp)
 4006b2c:	2c800417 	ldw	r18,16(r5)
 4006b30:	ddc00715 	stw	r23,28(sp)
 4006b34:	dd800615 	stw	r22,24(sp)
 4006b38:	dd400515 	stw	r21,20(sp)
 4006b3c:	dd000415 	stw	r20,16(sp)
 4006b40:	dcc00315 	stw	r19,12(sp)
 4006b44:	dc400115 	stw	r17,4(sp)
 4006b48:	dfc00815 	stw	ra,32(sp)
 4006b4c:	dc000015 	stw	r16,0(sp)
 4006b50:	2827883a 	mov	r19,r5
 4006b54:	2029883a 	mov	r20,r4
 4006b58:	302b883a 	mov	r21,r6
 4006b5c:	3823883a 	mov	r17,r7
 4006b60:	2d800504 	addi	r22,r5,20
 4006b64:	002f883a 	mov	r23,zero
 4006b68:	b4000017 	ldw	r16,0(r22)
 4006b6c:	a80b883a 	mov	r5,r21
 4006b70:	b5800104 	addi	r22,r22,4
 4006b74:	813fffcc 	andi	r4,r16,65535
 4006b78:	4001e240 	call	4001e24 <__mulsi3>
 4006b7c:	8008d43a 	srli	r4,r16,16
 4006b80:	a80b883a 	mov	r5,r21
 4006b84:	1461883a 	add	r16,r2,r17
 4006b88:	4001e240 	call	4001e24 <__mulsi3>
 4006b8c:	800ed43a 	srli	r7,r16,16
 4006b90:	843fffcc 	andi	r16,r16,65535
 4006b94:	bdc00044 	addi	r23,r23,1
 4006b98:	11c5883a 	add	r2,r2,r7
 4006b9c:	1006943a 	slli	r3,r2,16
 4006ba0:	1022d43a 	srli	r17,r2,16
 4006ba4:	1c21883a 	add	r16,r3,r16
 4006ba8:	b43fff15 	stw	r16,-4(r22)
 4006bac:	bcbfee16 	blt	r23,r18,4006b68 <__multadd+0x44>
 4006bb0:	88000826 	beq	r17,zero,4006bd4 <__multadd+0xb0>
 4006bb4:	98800217 	ldw	r2,8(r19)
 4006bb8:	9080120e 	bge	r18,r2,4006c04 <__multadd+0xe0>
 4006bbc:	90800144 	addi	r2,r18,5
 4006bc0:	100490ba 	slli	r2,r2,2
 4006bc4:	94800044 	addi	r18,r18,1
 4006bc8:	9885883a 	add	r2,r19,r2
 4006bcc:	14400015 	stw	r17,0(r2)
 4006bd0:	9c800415 	stw	r18,16(r19)
 4006bd4:	9805883a 	mov	r2,r19
 4006bd8:	dfc00817 	ldw	ra,32(sp)
 4006bdc:	ddc00717 	ldw	r23,28(sp)
 4006be0:	dd800617 	ldw	r22,24(sp)
 4006be4:	dd400517 	ldw	r21,20(sp)
 4006be8:	dd000417 	ldw	r20,16(sp)
 4006bec:	dcc00317 	ldw	r19,12(sp)
 4006bf0:	dc800217 	ldw	r18,8(sp)
 4006bf4:	dc400117 	ldw	r17,4(sp)
 4006bf8:	dc000017 	ldw	r16,0(sp)
 4006bfc:	dec00904 	addi	sp,sp,36
 4006c00:	f800283a 	ret
 4006c04:	99400117 	ldw	r5,4(r19)
 4006c08:	a009883a 	mov	r4,r20
 4006c0c:	29400044 	addi	r5,r5,1
 4006c10:	4006a5c0 	call	4006a5c <_Balloc>
 4006c14:	1021883a 	mov	r16,r2
 4006c18:	10001226 	beq	r2,zero,4006c64 <__multadd+0x140>
 4006c1c:	99800417 	ldw	r6,16(r19)
 4006c20:	99400304 	addi	r5,r19,12
 4006c24:	11000304 	addi	r4,r2,12
 4006c28:	31800084 	addi	r6,r6,2
 4006c2c:	300c90ba 	slli	r6,r6,2
 4006c30:	400695c0 	call	400695c <memcpy>
 4006c34:	98000926 	beq	r19,zero,4006c5c <__multadd+0x138>
 4006c38:	98c00117 	ldw	r3,4(r19)
 4006c3c:	a0801317 	ldw	r2,76(r20)
 4006c40:	180690ba 	slli	r3,r3,2
 4006c44:	10c5883a 	add	r2,r2,r3
 4006c48:	10c00017 	ldw	r3,0(r2)
 4006c4c:	98c00015 	stw	r3,0(r19)
 4006c50:	14c00015 	stw	r19,0(r2)
 4006c54:	8027883a 	mov	r19,r16
 4006c58:	003fd806 	br	4006bbc <__multadd+0x98>
 4006c5c:	8027883a 	mov	r19,r16
 4006c60:	003fd606 	br	4006bbc <__multadd+0x98>
 4006c64:	01c10074 	movhi	r7,1025
 4006c68:	01010074 	movhi	r4,1025
 4006c6c:	39c8a104 	addi	r7,r7,8836
 4006c70:	000d883a 	mov	r6,zero
 4006c74:	01402d44 	movi	r5,181
 4006c78:	2108b604 	addi	r4,r4,8920
 4006c7c:	40090000 	call	4009000 <__assert_func>

04006c80 <__s2b>:
 4006c80:	defff904 	addi	sp,sp,-28
 4006c84:	dc800215 	stw	r18,8(sp)
 4006c88:	dc000015 	stw	r16,0(sp)
 4006c8c:	2025883a 	mov	r18,r4
 4006c90:	2821883a 	mov	r16,r5
 4006c94:	39000204 	addi	r4,r7,8
 4006c98:	01400244 	movi	r5,9
 4006c9c:	dcc00315 	stw	r19,12(sp)
 4006ca0:	dc400115 	stw	r17,4(sp)
 4006ca4:	dfc00615 	stw	ra,24(sp)
 4006ca8:	3823883a 	mov	r17,r7
 4006cac:	dd400515 	stw	r21,20(sp)
 4006cb0:	dd000415 	stw	r20,16(sp)
 4006cb4:	3027883a 	mov	r19,r6
 4006cb8:	4001c700 	call	4001c70 <__divsi3>
 4006cbc:	88c00290 	cmplti	r3,r17,10
 4006cc0:	1800341e 	bne	r3,zero,4006d94 <__s2b+0x114>
 4006cc4:	00c00044 	movi	r3,1
 4006cc8:	000b883a 	mov	r5,zero
 4006ccc:	18c7883a 	add	r3,r3,r3
 4006cd0:	29400044 	addi	r5,r5,1
 4006cd4:	18bffd16 	blt	r3,r2,4006ccc <__s2b+0x4c>
 4006cd8:	9009883a 	mov	r4,r18
 4006cdc:	4006a5c0 	call	4006a5c <_Balloc>
 4006ce0:	100b883a 	mov	r5,r2
 4006ce4:	10002d26 	beq	r2,zero,4006d9c <__s2b+0x11c>
 4006ce8:	d8800717 	ldw	r2,28(sp)
 4006cec:	28800515 	stw	r2,20(r5)
 4006cf0:	00800044 	movi	r2,1
 4006cf4:	28800415 	stw	r2,16(r5)
 4006cf8:	98800290 	cmplti	r2,r19,10
 4006cfc:	1000221e 	bne	r2,zero,4006d88 <__s2b+0x108>
 4006d00:	85400244 	addi	r21,r16,9
 4006d04:	a829883a 	mov	r20,r21
 4006d08:	84e1883a 	add	r16,r16,r19
 4006d0c:	a1c00007 	ldb	r7,0(r20)
 4006d10:	01800284 	movi	r6,10
 4006d14:	9009883a 	mov	r4,r18
 4006d18:	39fff404 	addi	r7,r7,-48
 4006d1c:	4006b240 	call	4006b24 <__multadd>
 4006d20:	a5000044 	addi	r20,r20,1
 4006d24:	100b883a 	mov	r5,r2
 4006d28:	a43ff81e 	bne	r20,r16,4006d0c <__s2b+0x8c>
 4006d2c:	9c3ffe04 	addi	r16,r19,-8
 4006d30:	ac21883a 	add	r16,r21,r16
 4006d34:	9c400a0e 	bge	r19,r17,4006d60 <__s2b+0xe0>
 4006d38:	8ce3c83a 	sub	r17,r17,r19
 4006d3c:	8463883a 	add	r17,r16,r17
 4006d40:	81c00007 	ldb	r7,0(r16)
 4006d44:	01800284 	movi	r6,10
 4006d48:	9009883a 	mov	r4,r18
 4006d4c:	39fff404 	addi	r7,r7,-48
 4006d50:	4006b240 	call	4006b24 <__multadd>
 4006d54:	84000044 	addi	r16,r16,1
 4006d58:	100b883a 	mov	r5,r2
 4006d5c:	8c3ff81e 	bne	r17,r16,4006d40 <__s2b+0xc0>
 4006d60:	2805883a 	mov	r2,r5
 4006d64:	dfc00617 	ldw	ra,24(sp)
 4006d68:	dd400517 	ldw	r21,20(sp)
 4006d6c:	dd000417 	ldw	r20,16(sp)
 4006d70:	dcc00317 	ldw	r19,12(sp)
 4006d74:	dc800217 	ldw	r18,8(sp)
 4006d78:	dc400117 	ldw	r17,4(sp)
 4006d7c:	dc000017 	ldw	r16,0(sp)
 4006d80:	dec00704 	addi	sp,sp,28
 4006d84:	f800283a 	ret
 4006d88:	84000284 	addi	r16,r16,10
 4006d8c:	04c00244 	movi	r19,9
 4006d90:	003fe806 	br	4006d34 <__s2b+0xb4>
 4006d94:	000b883a 	mov	r5,zero
 4006d98:	003fcf06 	br	4006cd8 <__s2b+0x58>
 4006d9c:	01c10074 	movhi	r7,1025
 4006da0:	01010074 	movhi	r4,1025
 4006da4:	39c8a104 	addi	r7,r7,8836
 4006da8:	000d883a 	mov	r6,zero
 4006dac:	01403384 	movi	r5,206
 4006db0:	2108b604 	addi	r4,r4,8920
 4006db4:	40090000 	call	4009000 <__assert_func>

04006db8 <__hi0bits>:
 4006db8:	20bfffec 	andhi	r2,r4,65535
 4006dbc:	1000131e 	bne	r2,zero,4006e0c <__hi0bits+0x54>
 4006dc0:	2008943a 	slli	r4,r4,16
 4006dc4:	00800404 	movi	r2,16
 4006dc8:	20ffc02c 	andhi	r3,r4,65280
 4006dcc:	1800021e 	bne	r3,zero,4006dd8 <__hi0bits+0x20>
 4006dd0:	2008923a 	slli	r4,r4,8
 4006dd4:	10800204 	addi	r2,r2,8
 4006dd8:	20fc002c 	andhi	r3,r4,61440
 4006ddc:	1800021e 	bne	r3,zero,4006de8 <__hi0bits+0x30>
 4006de0:	2008913a 	slli	r4,r4,4
 4006de4:	10800104 	addi	r2,r2,4
 4006de8:	20f0002c 	andhi	r3,r4,49152
 4006dec:	1800021e 	bne	r3,zero,4006df8 <__hi0bits+0x40>
 4006df0:	200890ba 	slli	r4,r4,2
 4006df4:	10800084 	addi	r2,r2,2
 4006df8:	20000316 	blt	r4,zero,4006e08 <__hi0bits+0x50>
 4006dfc:	2110002c 	andhi	r4,r4,16384
 4006e00:	10800044 	addi	r2,r2,1
 4006e04:	20000326 	beq	r4,zero,4006e14 <__hi0bits+0x5c>
 4006e08:	f800283a 	ret
 4006e0c:	0005883a 	mov	r2,zero
 4006e10:	003fed06 	br	4006dc8 <__hi0bits+0x10>
 4006e14:	00800804 	movi	r2,32
 4006e18:	f800283a 	ret

04006e1c <__lo0bits>:
 4006e1c:	20c00017 	ldw	r3,0(r4)
 4006e20:	188001cc 	andi	r2,r3,7
 4006e24:	10000826 	beq	r2,zero,4006e48 <__lo0bits+0x2c>
 4006e28:	1880004c 	andi	r2,r3,1
 4006e2c:	10001f1e 	bne	r2,zero,4006eac <__lo0bits+0x90>
 4006e30:	1880008c 	andi	r2,r3,2
 4006e34:	10002126 	beq	r2,zero,4006ebc <__lo0bits+0xa0>
 4006e38:	1806d07a 	srli	r3,r3,1
 4006e3c:	00800044 	movi	r2,1
 4006e40:	20c00015 	stw	r3,0(r4)
 4006e44:	f800283a 	ret
 4006e48:	18bfffcc 	andi	r2,r3,65535
 4006e4c:	10001426 	beq	r2,zero,4006ea0 <__lo0bits+0x84>
 4006e50:	0005883a 	mov	r2,zero
 4006e54:	19403fcc 	andi	r5,r3,255
 4006e58:	2800021e 	bne	r5,zero,4006e64 <__lo0bits+0x48>
 4006e5c:	1806d23a 	srli	r3,r3,8
 4006e60:	10800204 	addi	r2,r2,8
 4006e64:	194003cc 	andi	r5,r3,15
 4006e68:	2800021e 	bne	r5,zero,4006e74 <__lo0bits+0x58>
 4006e6c:	1806d13a 	srli	r3,r3,4
 4006e70:	10800104 	addi	r2,r2,4
 4006e74:	194000cc 	andi	r5,r3,3
 4006e78:	2800021e 	bne	r5,zero,4006e84 <__lo0bits+0x68>
 4006e7c:	1806d0ba 	srli	r3,r3,2
 4006e80:	10800084 	addi	r2,r2,2
 4006e84:	1940004c 	andi	r5,r3,1
 4006e88:	2800031e 	bne	r5,zero,4006e98 <__lo0bits+0x7c>
 4006e8c:	1806d07a 	srli	r3,r3,1
 4006e90:	10800044 	addi	r2,r2,1
 4006e94:	18000726 	beq	r3,zero,4006eb4 <__lo0bits+0x98>
 4006e98:	20c00015 	stw	r3,0(r4)
 4006e9c:	f800283a 	ret
 4006ea0:	1806d43a 	srli	r3,r3,16
 4006ea4:	00800404 	movi	r2,16
 4006ea8:	003fea06 	br	4006e54 <__lo0bits+0x38>
 4006eac:	0005883a 	mov	r2,zero
 4006eb0:	f800283a 	ret
 4006eb4:	00800804 	movi	r2,32
 4006eb8:	f800283a 	ret
 4006ebc:	1806d0ba 	srli	r3,r3,2
 4006ec0:	00800084 	movi	r2,2
 4006ec4:	20c00015 	stw	r3,0(r4)
 4006ec8:	f800283a 	ret

04006ecc <__i2b>:
 4006ecc:	20c01317 	ldw	r3,76(r4)
 4006ed0:	defffd04 	addi	sp,sp,-12
 4006ed4:	dc400115 	stw	r17,4(sp)
 4006ed8:	dc000015 	stw	r16,0(sp)
 4006edc:	dfc00215 	stw	ra,8(sp)
 4006ee0:	2021883a 	mov	r16,r4
 4006ee4:	2823883a 	mov	r17,r5
 4006ee8:	18000d26 	beq	r3,zero,4006f20 <__i2b+0x54>
 4006eec:	18800117 	ldw	r2,4(r3)
 4006ef0:	10001826 	beq	r2,zero,4006f54 <__i2b+0x88>
 4006ef4:	11000017 	ldw	r4,0(r2)
 4006ef8:	19000115 	stw	r4,4(r3)
 4006efc:	00c00044 	movi	r3,1
 4006f00:	10000315 	stw	zero,12(r2)
 4006f04:	14400515 	stw	r17,20(r2)
 4006f08:	10c00415 	stw	r3,16(r2)
 4006f0c:	dfc00217 	ldw	ra,8(sp)
 4006f10:	dc400117 	ldw	r17,4(sp)
 4006f14:	dc000017 	ldw	r16,0(sp)
 4006f18:	dec00304 	addi	sp,sp,12
 4006f1c:	f800283a 	ret
 4006f20:	01800844 	movi	r6,33
 4006f24:	01400104 	movi	r5,4
 4006f28:	40090780 	call	4009078 <_calloc_r>
 4006f2c:	80801315 	stw	r2,76(r16)
 4006f30:	1007883a 	mov	r3,r2
 4006f34:	103fed1e 	bne	r2,zero,4006eec <__i2b+0x20>
 4006f38:	01c10074 	movhi	r7,1025
 4006f3c:	01010074 	movhi	r4,1025
 4006f40:	39c8a104 	addi	r7,r7,8836
 4006f44:	000d883a 	mov	r6,zero
 4006f48:	01405004 	movi	r5,320
 4006f4c:	2108b604 	addi	r4,r4,8920
 4006f50:	40090000 	call	4009000 <__assert_func>
 4006f54:	01800704 	movi	r6,28
 4006f58:	01400044 	movi	r5,1
 4006f5c:	8009883a 	mov	r4,r16
 4006f60:	40090780 	call	4009078 <_calloc_r>
 4006f64:	103ff426 	beq	r2,zero,4006f38 <__i2b+0x6c>
 4006f68:	00c00044 	movi	r3,1
 4006f6c:	10c00115 	stw	r3,4(r2)
 4006f70:	00c00084 	movi	r3,2
 4006f74:	10c00215 	stw	r3,8(r2)
 4006f78:	003fe006 	br	4006efc <__i2b+0x30>

04006f7c <__multiply>:
 4006f7c:	defff004 	addi	sp,sp,-64
 4006f80:	dd800c15 	stw	r22,48(sp)
 4006f84:	dc400715 	stw	r17,28(sp)
 4006f88:	2d800417 	ldw	r22,16(r5)
 4006f8c:	34400417 	ldw	r17,16(r6)
 4006f90:	dc800815 	stw	r18,32(sp)
 4006f94:	dc000615 	stw	r16,24(sp)
 4006f98:	dfc00f15 	stw	ra,60(sp)
 4006f9c:	df000e15 	stw	fp,56(sp)
 4006fa0:	ddc00d15 	stw	r23,52(sp)
 4006fa4:	dd400b15 	stw	r21,44(sp)
 4006fa8:	dd000a15 	stw	r20,40(sp)
 4006fac:	dcc00915 	stw	r19,36(sp)
 4006fb0:	2825883a 	mov	r18,r5
 4006fb4:	3021883a 	mov	r16,r6
 4006fb8:	b4400516 	blt	r22,r17,4006fd0 <__multiply+0x54>
 4006fbc:	8807883a 	mov	r3,r17
 4006fc0:	2821883a 	mov	r16,r5
 4006fc4:	b023883a 	mov	r17,r22
 4006fc8:	3025883a 	mov	r18,r6
 4006fcc:	182d883a 	mov	r22,r3
 4006fd0:	80800217 	ldw	r2,8(r16)
 4006fd4:	8d87883a 	add	r3,r17,r22
 4006fd8:	d8c00015 	stw	r3,0(sp)
 4006fdc:	81400117 	ldw	r5,4(r16)
 4006fe0:	10c0010e 	bge	r2,r3,4006fe8 <__multiply+0x6c>
 4006fe4:	29400044 	addi	r5,r5,1
 4006fe8:	4006a5c0 	call	4006a5c <_Balloc>
 4006fec:	d8800515 	stw	r2,20(sp)
 4006ff0:	10008c26 	beq	r2,zero,4007224 <__multiply+0x2a8>
 4006ff4:	d8800017 	ldw	r2,0(sp)
 4006ff8:	102690ba 	slli	r19,r2,2
 4006ffc:	d8800517 	ldw	r2,20(sp)
 4007000:	15000504 	addi	r20,r2,20
 4007004:	a4c5883a 	add	r2,r20,r19
 4007008:	d8800115 	stw	r2,4(sp)
 400700c:	a0800a2e 	bgeu	r20,r2,4007038 <__multiply+0xbc>
 4007010:	d8800117 	ldw	r2,4(sp)
 4007014:	d8c00517 	ldw	r3,20(sp)
 4007018:	000b883a 	mov	r5,zero
 400701c:	a009883a 	mov	r4,r20
 4007020:	10cdc83a 	sub	r6,r2,r3
 4007024:	31bffac4 	addi	r6,r6,-21
 4007028:	300cd0ba 	srli	r6,r6,2
 400702c:	31800044 	addi	r6,r6,1
 4007030:	300c90ba 	slli	r6,r6,2
 4007034:	400981c0 	call	400981c <memset>
 4007038:	b02c90ba 	slli	r22,r22,2
 400703c:	882290ba 	slli	r17,r17,2
 4007040:	94800504 	addi	r18,r18,20
 4007044:	80800504 	addi	r2,r16,20
 4007048:	9587883a 	add	r3,r18,r22
 400704c:	d8800315 	stw	r2,12(sp)
 4007050:	d8c00215 	stw	r3,8(sp)
 4007054:	1463883a 	add	r17,r2,r17
 4007058:	90c0542e 	bgeu	r18,r3,40071ac <__multiply+0x230>
 400705c:	80800544 	addi	r2,r16,21
 4007060:	88806d36 	bltu	r17,r2,4007218 <__multiply+0x29c>
 4007064:	8c05c83a 	sub	r2,r17,r16
 4007068:	10bffac4 	addi	r2,r2,-21
 400706c:	1004d0ba 	srli	r2,r2,2
 4007070:	10800044 	addi	r2,r2,1
 4007074:	100490ba 	slli	r2,r2,2
 4007078:	d8800415 	stw	r2,16(sp)
 400707c:	00000606 	br	4007098 <__multiply+0x11c>
 4007080:	102ad43a 	srli	r21,r2,16
 4007084:	a800271e 	bne	r21,zero,4007124 <__multiply+0x1a8>
 4007088:	d8800217 	ldw	r2,8(sp)
 400708c:	94800104 	addi	r18,r18,4
 4007090:	a5000104 	addi	r20,r20,4
 4007094:	9080452e 	bgeu	r18,r2,40071ac <__multiply+0x230>
 4007098:	90800017 	ldw	r2,0(r18)
 400709c:	15ffffcc 	andi	r23,r2,65535
 40070a0:	b83ff726 	beq	r23,zero,4007080 <__multiply+0x104>
 40070a4:	dd400317 	ldw	r21,12(sp)
 40070a8:	a02d883a 	mov	r22,r20
 40070ac:	0027883a 	mov	r19,zero
 40070b0:	af000017 	ldw	fp,0(r21)
 40070b4:	b4000017 	ldw	r16,0(r22)
 40070b8:	b80b883a 	mov	r5,r23
 40070bc:	e13fffcc 	andi	r4,fp,65535
 40070c0:	4001e240 	call	4001e24 <__mulsi3>
 40070c4:	e008d43a 	srli	r4,fp,16
 40070c8:	823fffcc 	andi	r8,r16,65535
 40070cc:	1205883a 	add	r2,r2,r8
 40070d0:	b80b883a 	mov	r5,r23
 40070d4:	14e7883a 	add	r19,r2,r19
 40070d8:	8020d43a 	srli	r16,r16,16
 40070dc:	4001e240 	call	4001e24 <__mulsi3>
 40070e0:	9808d43a 	srli	r4,r19,16
 40070e4:	1405883a 	add	r2,r2,r16
 40070e8:	98ffffcc 	andi	r3,r19,65535
 40070ec:	1105883a 	add	r2,r2,r4
 40070f0:	1008943a 	slli	r4,r2,16
 40070f4:	b5800104 	addi	r22,r22,4
 40070f8:	ad400104 	addi	r21,r21,4
 40070fc:	20c6b03a 	or	r3,r4,r3
 4007100:	b0ffff15 	stw	r3,-4(r22)
 4007104:	1026d43a 	srli	r19,r2,16
 4007108:	ac7fe936 	bltu	r21,r17,40070b0 <__multiply+0x134>
 400710c:	d8800417 	ldw	r2,16(sp)
 4007110:	a085883a 	add	r2,r20,r2
 4007114:	14c00015 	stw	r19,0(r2)
 4007118:	90800017 	ldw	r2,0(r18)
 400711c:	102ad43a 	srli	r21,r2,16
 4007120:	a83fd926 	beq	r21,zero,4007088 <__multiply+0x10c>
 4007124:	a5c00017 	ldw	r23,0(r20)
 4007128:	dd800317 	ldw	r22,12(sp)
 400712c:	a027883a 	mov	r19,r20
 4007130:	b821883a 	mov	r16,r23
 4007134:	0039883a 	mov	fp,zero
 4007138:	b100000b 	ldhu	r4,0(r22)
 400713c:	a80b883a 	mov	r5,r21
 4007140:	9cc00104 	addi	r19,r19,4
 4007144:	4001e240 	call	4001e24 <__mulsi3>
 4007148:	800cd43a 	srli	r6,r16,16
 400714c:	b8ffffcc 	andi	r3,r23,65535
 4007150:	b5800104 	addi	r22,r22,4
 4007154:	118d883a 	add	r6,r2,r6
 4007158:	3739883a 	add	fp,r6,fp
 400715c:	e004943a 	slli	r2,fp,16
 4007160:	9c000017 	ldw	r16,0(r19)
 4007164:	a80b883a 	mov	r5,r21
 4007168:	10c6b03a 	or	r3,r2,r3
 400716c:	98ffff15 	stw	r3,-4(r19)
 4007170:	b13fff8b 	ldhu	r4,-2(r22)
 4007174:	4001e240 	call	4001e24 <__mulsi3>
 4007178:	e00cd43a 	srli	r6,fp,16
 400717c:	80ffffcc 	andi	r3,r16,65535
 4007180:	10c7883a 	add	r3,r2,r3
 4007184:	19af883a 	add	r23,r3,r6
 4007188:	b838d43a 	srli	fp,r23,16
 400718c:	b47fea36 	bltu	r22,r17,4007138 <__multiply+0x1bc>
 4007190:	d8800417 	ldw	r2,16(sp)
 4007194:	94800104 	addi	r18,r18,4
 4007198:	a085883a 	add	r2,r20,r2
 400719c:	15c00015 	stw	r23,0(r2)
 40071a0:	d8800217 	ldw	r2,8(sp)
 40071a4:	a5000104 	addi	r20,r20,4
 40071a8:	90bfbb36 	bltu	r18,r2,4007098 <__multiply+0x11c>
 40071ac:	d8800017 	ldw	r2,0(sp)
 40071b0:	00800516 	blt	zero,r2,40071c8 <__multiply+0x24c>
 40071b4:	00000906 	br	40071dc <__multiply+0x260>
 40071b8:	d8800017 	ldw	r2,0(sp)
 40071bc:	10bfffc4 	addi	r2,r2,-1
 40071c0:	d8800015 	stw	r2,0(sp)
 40071c4:	10000526 	beq	r2,zero,40071dc <__multiply+0x260>
 40071c8:	d8c00117 	ldw	r3,4(sp)
 40071cc:	18bfff17 	ldw	r2,-4(r3)
 40071d0:	18ffff04 	addi	r3,r3,-4
 40071d4:	d8c00115 	stw	r3,4(sp)
 40071d8:	103ff726 	beq	r2,zero,40071b8 <__multiply+0x23c>
 40071dc:	d8800517 	ldw	r2,20(sp)
 40071e0:	d8c00017 	ldw	r3,0(sp)
 40071e4:	10c00415 	stw	r3,16(r2)
 40071e8:	dfc00f17 	ldw	ra,60(sp)
 40071ec:	df000e17 	ldw	fp,56(sp)
 40071f0:	ddc00d17 	ldw	r23,52(sp)
 40071f4:	dd800c17 	ldw	r22,48(sp)
 40071f8:	dd400b17 	ldw	r21,44(sp)
 40071fc:	dd000a17 	ldw	r20,40(sp)
 4007200:	dcc00917 	ldw	r19,36(sp)
 4007204:	dc800817 	ldw	r18,32(sp)
 4007208:	dc400717 	ldw	r17,28(sp)
 400720c:	dc000617 	ldw	r16,24(sp)
 4007210:	dec01004 	addi	sp,sp,64
 4007214:	f800283a 	ret
 4007218:	00800104 	movi	r2,4
 400721c:	d8800415 	stw	r2,16(sp)
 4007220:	003f9d06 	br	4007098 <__multiply+0x11c>
 4007224:	01c10074 	movhi	r7,1025
 4007228:	01010074 	movhi	r4,1025
 400722c:	39c8a104 	addi	r7,r7,8836
 4007230:	000d883a 	mov	r6,zero
 4007234:	01405744 	movi	r5,349
 4007238:	2108b604 	addi	r4,r4,8920
 400723c:	40090000 	call	4009000 <__assert_func>

04007240 <__pow5mult>:
 4007240:	defffb04 	addi	sp,sp,-20
 4007244:	dcc00315 	stw	r19,12(sp)
 4007248:	dc000015 	stw	r16,0(sp)
 400724c:	dfc00415 	stw	ra,16(sp)
 4007250:	dc800215 	stw	r18,8(sp)
 4007254:	dc400115 	stw	r17,4(sp)
 4007258:	308000cc 	andi	r2,r6,3
 400725c:	3021883a 	mov	r16,r6
 4007260:	2027883a 	mov	r19,r4
 4007264:	10002d1e 	bne	r2,zero,400731c <__pow5mult+0xdc>
 4007268:	2825883a 	mov	r18,r5
 400726c:	8021d0ba 	srai	r16,r16,2
 4007270:	80001926 	beq	r16,zero,40072d8 <__pow5mult+0x98>
 4007274:	9c401217 	ldw	r17,72(r19)
 4007278:	8800061e 	bne	r17,zero,4007294 <__pow5mult+0x54>
 400727c:	00002f06 	br	400733c <__pow5mult+0xfc>
 4007280:	8021d07a 	srai	r16,r16,1
 4007284:	80001426 	beq	r16,zero,40072d8 <__pow5mult+0x98>
 4007288:	88800017 	ldw	r2,0(r17)
 400728c:	10001a26 	beq	r2,zero,40072f8 <__pow5mult+0xb8>
 4007290:	1023883a 	mov	r17,r2
 4007294:	8080004c 	andi	r2,r16,1
 4007298:	103ff926 	beq	r2,zero,4007280 <__pow5mult+0x40>
 400729c:	880d883a 	mov	r6,r17
 40072a0:	900b883a 	mov	r5,r18
 40072a4:	9809883a 	mov	r4,r19
 40072a8:	4006f7c0 	call	4006f7c <__multiply>
 40072ac:	90001926 	beq	r18,zero,4007314 <__pow5mult+0xd4>
 40072b0:	91000117 	ldw	r4,4(r18)
 40072b4:	98c01317 	ldw	r3,76(r19)
 40072b8:	8021d07a 	srai	r16,r16,1
 40072bc:	200890ba 	slli	r4,r4,2
 40072c0:	1907883a 	add	r3,r3,r4
 40072c4:	19000017 	ldw	r4,0(r3)
 40072c8:	91000015 	stw	r4,0(r18)
 40072cc:	1c800015 	stw	r18,0(r3)
 40072d0:	1025883a 	mov	r18,r2
 40072d4:	803fec1e 	bne	r16,zero,4007288 <__pow5mult+0x48>
 40072d8:	9005883a 	mov	r2,r18
 40072dc:	dfc00417 	ldw	ra,16(sp)
 40072e0:	dcc00317 	ldw	r19,12(sp)
 40072e4:	dc800217 	ldw	r18,8(sp)
 40072e8:	dc400117 	ldw	r17,4(sp)
 40072ec:	dc000017 	ldw	r16,0(sp)
 40072f0:	dec00504 	addi	sp,sp,20
 40072f4:	f800283a 	ret
 40072f8:	880d883a 	mov	r6,r17
 40072fc:	880b883a 	mov	r5,r17
 4007300:	9809883a 	mov	r4,r19
 4007304:	4006f7c0 	call	4006f7c <__multiply>
 4007308:	88800015 	stw	r2,0(r17)
 400730c:	10000015 	stw	zero,0(r2)
 4007310:	003fdf06 	br	4007290 <__pow5mult+0x50>
 4007314:	1025883a 	mov	r18,r2
 4007318:	003fd906 	br	4007280 <__pow5mult+0x40>
 400731c:	100490ba 	slli	r2,r2,2
 4007320:	00c10074 	movhi	r3,1025
 4007324:	000f883a 	mov	r7,zero
 4007328:	10c7883a 	add	r3,r2,r3
 400732c:	1988c517 	ldw	r6,8980(r3)
 4007330:	4006b240 	call	4006b24 <__multadd>
 4007334:	1025883a 	mov	r18,r2
 4007338:	003fcc06 	br	400726c <__pow5mult+0x2c>
 400733c:	01400044 	movi	r5,1
 4007340:	9809883a 	mov	r4,r19
 4007344:	4006a5c0 	call	4006a5c <_Balloc>
 4007348:	1023883a 	mov	r17,r2
 400734c:	10000726 	beq	r2,zero,400736c <__pow5mult+0x12c>
 4007350:	00809c44 	movi	r2,625
 4007354:	88800515 	stw	r2,20(r17)
 4007358:	00800044 	movi	r2,1
 400735c:	88800415 	stw	r2,16(r17)
 4007360:	9c401215 	stw	r17,72(r19)
 4007364:	88000015 	stw	zero,0(r17)
 4007368:	003fca06 	br	4007294 <__pow5mult+0x54>
 400736c:	01c10074 	movhi	r7,1025
 4007370:	01010074 	movhi	r4,1025
 4007374:	39c8a104 	addi	r7,r7,8836
 4007378:	000d883a 	mov	r6,zero
 400737c:	01405004 	movi	r5,320
 4007380:	2108b604 	addi	r4,r4,8920
 4007384:	40090000 	call	4009000 <__assert_func>

04007388 <__lshift>:
 4007388:	defff804 	addi	sp,sp,-32
 400738c:	dd800615 	stw	r22,24(sp)
 4007390:	dc000015 	stw	r16,0(sp)
 4007394:	302dd17a 	srai	r22,r6,5
 4007398:	2c000417 	ldw	r16,16(r5)
 400739c:	28800217 	ldw	r2,8(r5)
 40073a0:	dd000415 	stw	r20,16(sp)
 40073a4:	b421883a 	add	r16,r22,r16
 40073a8:	dcc00315 	stw	r19,12(sp)
 40073ac:	dc800215 	stw	r18,8(sp)
 40073b0:	dc400115 	stw	r17,4(sp)
 40073b4:	dfc00715 	stw	ra,28(sp)
 40073b8:	dd400515 	stw	r21,20(sp)
 40073bc:	85000044 	addi	r20,r16,1
 40073c0:	2827883a 	mov	r19,r5
 40073c4:	3025883a 	mov	r18,r6
 40073c8:	29400117 	ldw	r5,4(r5)
 40073cc:	2023883a 	mov	r17,r4
 40073d0:	1500030e 	bge	r2,r20,40073e0 <__lshift+0x58>
 40073d4:	1085883a 	add	r2,r2,r2
 40073d8:	29400044 	addi	r5,r5,1
 40073dc:	153ffd16 	blt	r2,r20,40073d4 <__lshift+0x4c>
 40073e0:	8809883a 	mov	r4,r17
 40073e4:	4006a5c0 	call	4006a5c <_Balloc>
 40073e8:	102b883a 	mov	r21,r2
 40073ec:	10004126 	beq	r2,zero,40074f4 <__lshift+0x16c>
 40073f0:	11000504 	addi	r4,r2,20
 40073f4:	0580050e 	bge	zero,r22,400740c <__lshift+0x84>
 40073f8:	b02c90ba 	slli	r22,r22,2
 40073fc:	000b883a 	mov	r5,zero
 4007400:	b00d883a 	mov	r6,r22
 4007404:	400981c0 	call	400981c <memset>
 4007408:	1589883a 	add	r4,r2,r22
 400740c:	9a000417 	ldw	r8,16(r19)
 4007410:	98c00504 	addi	r3,r19,20
 4007414:	948007cc 	andi	r18,r18,31
 4007418:	401090ba 	slli	r8,r8,2
 400741c:	1a11883a 	add	r8,r3,r8
 4007420:	90002c26 	beq	r18,zero,40074d4 <__lshift+0x14c>
 4007424:	01400804 	movi	r5,32
 4007428:	2c8bc83a 	sub	r5,r5,r18
 400742c:	2005883a 	mov	r2,r4
 4007430:	000f883a 	mov	r7,zero
 4007434:	19800017 	ldw	r6,0(r3)
 4007438:	10800104 	addi	r2,r2,4
 400743c:	18c00104 	addi	r3,r3,4
 4007440:	348c983a 	sll	r6,r6,r18
 4007444:	31ccb03a 	or	r6,r6,r7
 4007448:	11bfff15 	stw	r6,-4(r2)
 400744c:	19bfff17 	ldw	r6,-4(r3)
 4007450:	314ed83a 	srl	r7,r6,r5
 4007454:	1a3ff736 	bltu	r3,r8,4007434 <__lshift+0xac>
 4007458:	98800544 	addi	r2,r19,21
 400745c:	40802336 	bltu	r8,r2,40074ec <__lshift+0x164>
 4007460:	44c7c83a 	sub	r3,r8,r19
 4007464:	18fffac4 	addi	r3,r3,-21
 4007468:	1806d0ba 	srli	r3,r3,2
 400746c:	18c00044 	addi	r3,r3,1
 4007470:	180690ba 	slli	r3,r3,2
 4007474:	20c9883a 	add	r4,r4,r3
 4007478:	21c00015 	stw	r7,0(r4)
 400747c:	38000126 	beq	r7,zero,4007484 <__lshift+0xfc>
 4007480:	a021883a 	mov	r16,r20
 4007484:	ac000415 	stw	r16,16(r21)
 4007488:	98000726 	beq	r19,zero,40074a8 <__lshift+0x120>
 400748c:	98c00117 	ldw	r3,4(r19)
 4007490:	88801317 	ldw	r2,76(r17)
 4007494:	180690ba 	slli	r3,r3,2
 4007498:	10c5883a 	add	r2,r2,r3
 400749c:	10c00017 	ldw	r3,0(r2)
 40074a0:	98c00015 	stw	r3,0(r19)
 40074a4:	14c00015 	stw	r19,0(r2)
 40074a8:	a805883a 	mov	r2,r21
 40074ac:	dfc00717 	ldw	ra,28(sp)
 40074b0:	dd800617 	ldw	r22,24(sp)
 40074b4:	dd400517 	ldw	r21,20(sp)
 40074b8:	dd000417 	ldw	r20,16(sp)
 40074bc:	dcc00317 	ldw	r19,12(sp)
 40074c0:	dc800217 	ldw	r18,8(sp)
 40074c4:	dc400117 	ldw	r17,4(sp)
 40074c8:	dc000017 	ldw	r16,0(sp)
 40074cc:	dec00804 	addi	sp,sp,32
 40074d0:	f800283a 	ret
 40074d4:	18800017 	ldw	r2,0(r3)
 40074d8:	18c00104 	addi	r3,r3,4
 40074dc:	21000104 	addi	r4,r4,4
 40074e0:	20bfff15 	stw	r2,-4(r4)
 40074e4:	1a3ffb36 	bltu	r3,r8,40074d4 <__lshift+0x14c>
 40074e8:	003fe606 	br	4007484 <__lshift+0xfc>
 40074ec:	00c00104 	movi	r3,4
 40074f0:	003fe006 	br	4007474 <__lshift+0xec>
 40074f4:	01c10074 	movhi	r7,1025
 40074f8:	01010074 	movhi	r4,1025
 40074fc:	39c8a104 	addi	r7,r7,8836
 4007500:	000d883a 	mov	r6,zero
 4007504:	01407644 	movi	r5,473
 4007508:	2108b604 	addi	r4,r4,8920
 400750c:	40090000 	call	4009000 <__assert_func>

04007510 <__mcmp>:
 4007510:	21800417 	ldw	r6,16(r4)
 4007514:	28c00417 	ldw	r3,16(r5)
 4007518:	30c5c83a 	sub	r2,r6,r3
 400751c:	30c00e1e 	bne	r6,r3,4007558 <__mcmp+0x48>
 4007520:	180690ba 	slli	r3,r3,2
 4007524:	21c00504 	addi	r7,r4,20
 4007528:	29400504 	addi	r5,r5,20
 400752c:	38c9883a 	add	r4,r7,r3
 4007530:	28c7883a 	add	r3,r5,r3
 4007534:	00000106 	br	400753c <__mcmp+0x2c>
 4007538:	3900082e 	bgeu	r7,r4,400755c <__mcmp+0x4c>
 400753c:	21bfff17 	ldw	r6,-4(r4)
 4007540:	197fff17 	ldw	r5,-4(r3)
 4007544:	213fff04 	addi	r4,r4,-4
 4007548:	18ffff04 	addi	r3,r3,-4
 400754c:	317ffa26 	beq	r6,r5,4007538 <__mcmp+0x28>
 4007550:	3140032e 	bgeu	r6,r5,4007560 <__mcmp+0x50>
 4007554:	00bfffc4 	movi	r2,-1
 4007558:	f800283a 	ret
 400755c:	f800283a 	ret
 4007560:	00800044 	movi	r2,1
 4007564:	f800283a 	ret

04007568 <__mdiff>:
 4007568:	28800417 	ldw	r2,16(r5)
 400756c:	30c00417 	ldw	r3,16(r6)
 4007570:	defffc04 	addi	sp,sp,-16
 4007574:	dc800215 	stw	r18,8(sp)
 4007578:	dc400115 	stw	r17,4(sp)
 400757c:	dc000015 	stw	r16,0(sp)
 4007580:	dfc00315 	stw	ra,12(sp)
 4007584:	2823883a 	mov	r17,r5
 4007588:	3021883a 	mov	r16,r6
 400758c:	10e5c83a 	sub	r18,r2,r3
 4007590:	10c0641e 	bne	r2,r3,4007724 <__mdiff+0x1bc>
 4007594:	180c90ba 	slli	r6,r3,2
 4007598:	29400504 	addi	r5,r5,20
 400759c:	80c00504 	addi	r3,r16,20
 40075a0:	2985883a 	add	r2,r5,r6
 40075a4:	1987883a 	add	r3,r3,r6
 40075a8:	00000106 	br	40075b0 <__mdiff+0x48>
 40075ac:	2880642e 	bgeu	r5,r2,4007740 <__mdiff+0x1d8>
 40075b0:	11bfff17 	ldw	r6,-4(r2)
 40075b4:	19ffff17 	ldw	r7,-4(r3)
 40075b8:	10bfff04 	addi	r2,r2,-4
 40075bc:	18ffff04 	addi	r3,r3,-4
 40075c0:	31fffa26 	beq	r6,r7,40075ac <__mdiff+0x44>
 40075c4:	31c05236 	bltu	r6,r7,4007710 <__mdiff+0x1a8>
 40075c8:	89400117 	ldw	r5,4(r17)
 40075cc:	4006a5c0 	call	4006a5c <_Balloc>
 40075d0:	10006226 	beq	r2,zero,400775c <__mdiff+0x1f4>
 40075d4:	8a400417 	ldw	r9,16(r17)
 40075d8:	83000417 	ldw	r12,16(r16)
 40075dc:	8ac00504 	addi	r11,r17,20
 40075e0:	481090ba 	slli	r8,r9,2
 40075e4:	601890ba 	slli	r12,r12,2
 40075e8:	81800504 	addi	r6,r16,20
 40075ec:	13400504 	addi	r13,r2,20
 40075f0:	14800315 	stw	r18,12(r2)
 40075f4:	5a11883a 	add	r8,r11,r8
 40075f8:	3319883a 	add	r12,r6,r12
 40075fc:	681d883a 	mov	r14,r13
 4007600:	5815883a 	mov	r10,r11
 4007604:	0007883a 	mov	r3,zero
 4007608:	51000017 	ldw	r4,0(r10)
 400760c:	31c00017 	ldw	r7,0(r6)
 4007610:	73800104 	addi	r14,r14,4
 4007614:	217fffcc 	andi	r5,r4,65535
 4007618:	28cb883a 	add	r5,r5,r3
 400761c:	38ffffcc 	andi	r3,r7,65535
 4007620:	28cbc83a 	sub	r5,r5,r3
 4007624:	380ed43a 	srli	r7,r7,16
 4007628:	2006d43a 	srli	r3,r4,16
 400762c:	2809d43a 	srai	r4,r5,16
 4007630:	297fffcc 	andi	r5,r5,65535
 4007634:	19c7c83a 	sub	r3,r3,r7
 4007638:	1907883a 	add	r3,r3,r4
 400763c:	1808943a 	slli	r4,r3,16
 4007640:	31800104 	addi	r6,r6,4
 4007644:	1807d43a 	srai	r3,r3,16
 4007648:	214ab03a 	or	r5,r4,r5
 400764c:	717fff15 	stw	r5,-4(r14)
 4007650:	52800104 	addi	r10,r10,4
 4007654:	333fec36 	bltu	r6,r12,4007608 <__mdiff+0xa0>
 4007658:	640fc83a 	sub	r7,r12,r16
 400765c:	39fffac4 	addi	r7,r7,-21
 4007660:	84000544 	addi	r16,r16,21
 4007664:	380ed0ba 	srli	r7,r7,2
 4007668:	64003336 	bltu	r12,r16,4007738 <__mdiff+0x1d0>
 400766c:	380890ba 	slli	r4,r7,2
 4007670:	6909883a 	add	r4,r13,r4
 4007674:	64002e36 	bltu	r12,r16,4007730 <__mdiff+0x1c8>
 4007678:	39800044 	addi	r6,r7,1
 400767c:	300c90ba 	slli	r6,r6,2
 4007680:	5997883a 	add	r11,r11,r6
 4007684:	699b883a 	add	r13,r13,r6
 4007688:	5a00152e 	bgeu	r11,r8,40076e0 <__mdiff+0x178>
 400768c:	680f883a 	mov	r7,r13
 4007690:	580d883a 	mov	r6,r11
 4007694:	31000017 	ldw	r4,0(r6)
 4007698:	39c00104 	addi	r7,r7,4
 400769c:	31800104 	addi	r6,r6,4
 40076a0:	217fffcc 	andi	r5,r4,65535
 40076a4:	28cb883a 	add	r5,r5,r3
 40076a8:	2815d43a 	srai	r10,r5,16
 40076ac:	2006d43a 	srli	r3,r4,16
 40076b0:	297fffcc 	andi	r5,r5,65535
 40076b4:	1a87883a 	add	r3,r3,r10
 40076b8:	1814943a 	slli	r10,r3,16
 40076bc:	1807d43a 	srai	r3,r3,16
 40076c0:	514ab03a 	or	r5,r10,r5
 40076c4:	397fff15 	stw	r5,-4(r7)
 40076c8:	323ff236 	bltu	r6,r8,4007694 <__mdiff+0x12c>
 40076cc:	413fffc4 	addi	r4,r8,-1
 40076d0:	22c9c83a 	sub	r4,r4,r11
 40076d4:	2008d0ba 	srli	r4,r4,2
 40076d8:	200890ba 	slli	r4,r4,2
 40076dc:	6909883a 	add	r4,r13,r4
 40076e0:	2800041e 	bne	r5,zero,40076f4 <__mdiff+0x18c>
 40076e4:	20ffff17 	ldw	r3,-4(r4)
 40076e8:	4a7fffc4 	addi	r9,r9,-1
 40076ec:	213fff04 	addi	r4,r4,-4
 40076f0:	183ffc26 	beq	r3,zero,40076e4 <__mdiff+0x17c>
 40076f4:	12400415 	stw	r9,16(r2)
 40076f8:	dfc00317 	ldw	ra,12(sp)
 40076fc:	dc800217 	ldw	r18,8(sp)
 4007700:	dc400117 	ldw	r17,4(sp)
 4007704:	dc000017 	ldw	r16,0(sp)
 4007708:	dec00404 	addi	sp,sp,16
 400770c:	f800283a 	ret
 4007710:	8805883a 	mov	r2,r17
 4007714:	04800044 	movi	r18,1
 4007718:	8023883a 	mov	r17,r16
 400771c:	1021883a 	mov	r16,r2
 4007720:	003fa906 	br	40075c8 <__mdiff+0x60>
 4007724:	903ffa16 	blt	r18,zero,4007710 <__mdiff+0x1a8>
 4007728:	0025883a 	mov	r18,zero
 400772c:	003fa606 	br	40075c8 <__mdiff+0x60>
 4007730:	01800104 	movi	r6,4
 4007734:	003fd206 	br	4007680 <__mdiff+0x118>
 4007738:	0009883a 	mov	r4,zero
 400773c:	003fcc06 	br	4007670 <__mdiff+0x108>
 4007740:	000b883a 	mov	r5,zero
 4007744:	4006a5c0 	call	4006a5c <_Balloc>
 4007748:	10000b26 	beq	r2,zero,4007778 <__mdiff+0x210>
 400774c:	00c00044 	movi	r3,1
 4007750:	10c00415 	stw	r3,16(r2)
 4007754:	10000515 	stw	zero,20(r2)
 4007758:	003fe706 	br	40076f8 <__mdiff+0x190>
 400775c:	01c10074 	movhi	r7,1025
 4007760:	01010074 	movhi	r4,1025
 4007764:	39c8a104 	addi	r7,r7,8836
 4007768:	000d883a 	mov	r6,zero
 400776c:	01409004 	movi	r5,576
 4007770:	2108b604 	addi	r4,r4,8920
 4007774:	40090000 	call	4009000 <__assert_func>
 4007778:	01c10074 	movhi	r7,1025
 400777c:	01010074 	movhi	r4,1025
 4007780:	39c8a104 	addi	r7,r7,8836
 4007784:	000d883a 	mov	r6,zero
 4007788:	01408c84 	movi	r5,562
 400778c:	2108b604 	addi	r4,r4,8920
 4007790:	40090000 	call	4009000 <__assert_func>

04007794 <__ulp>:
 4007794:	28dffc2c 	andhi	r3,r5,32752
 4007798:	017f3034 	movhi	r5,64704
 400779c:	1947883a 	add	r3,r3,r5
 40077a0:	00c0020e 	bge	zero,r3,40077ac <__ulp+0x18>
 40077a4:	0005883a 	mov	r2,zero
 40077a8:	f800283a 	ret
 40077ac:	00c7c83a 	sub	r3,zero,r3
 40077b0:	1807d53a 	srai	r3,r3,20
 40077b4:	18800508 	cmpgei	r2,r3,20
 40077b8:	1000041e 	bne	r2,zero,40077cc <__ulp+0x38>
 40077bc:	00800234 	movhi	r2,8
 40077c0:	10c7d83a 	sra	r3,r2,r3
 40077c4:	0005883a 	mov	r2,zero
 40077c8:	f800283a 	ret
 40077cc:	193ffb04 	addi	r4,r3,-20
 40077d0:	208007c8 	cmpgei	r2,r4,31
 40077d4:	0007883a 	mov	r3,zero
 40077d8:	1000031e 	bne	r2,zero,40077e8 <__ulp+0x54>
 40077dc:	00a00034 	movhi	r2,32768
 40077e0:	1104d83a 	srl	r2,r2,r4
 40077e4:	f800283a 	ret
 40077e8:	00800044 	movi	r2,1
 40077ec:	f800283a 	ret

040077f0 <__b2d>:
 40077f0:	defffa04 	addi	sp,sp,-24
 40077f4:	dc400115 	stw	r17,4(sp)
 40077f8:	24400417 	ldw	r17,16(r4)
 40077fc:	dc000015 	stw	r16,0(sp)
 4007800:	24000504 	addi	r16,r4,20
 4007804:	882290ba 	slli	r17,r17,2
 4007808:	dc800215 	stw	r18,8(sp)
 400780c:	dd000415 	stw	r20,16(sp)
 4007810:	8463883a 	add	r17,r16,r17
 4007814:	8cbfff17 	ldw	r18,-4(r17)
 4007818:	dcc00315 	stw	r19,12(sp)
 400781c:	dfc00515 	stw	ra,20(sp)
 4007820:	9009883a 	mov	r4,r18
 4007824:	2827883a 	mov	r19,r5
 4007828:	4006db80 	call	4006db8 <__hi0bits>
 400782c:	00c00804 	movi	r3,32
 4007830:	1889c83a 	sub	r4,r3,r2
 4007834:	99000015 	stw	r4,0(r19)
 4007838:	110002c8 	cmpgei	r4,r2,11
 400783c:	8d3fff04 	addi	r20,r17,-4
 4007840:	20002026 	beq	r4,zero,40078c4 <__b2d+0xd4>
 4007844:	10bffd44 	addi	r2,r2,-11
 4007848:	85000e2e 	bgeu	r16,r20,4007884 <__b2d+0x94>
 400784c:	897ffe17 	ldw	r5,-8(r17)
 4007850:	10001226 	beq	r2,zero,400789c <__b2d+0xac>
 4007854:	1889c83a 	sub	r4,r3,r2
 4007858:	90a4983a 	sll	r18,r18,r2
 400785c:	2906d83a 	srl	r3,r5,r4
 4007860:	89bffe04 	addi	r6,r17,-8
 4007864:	2884983a 	sll	r2,r5,r2
 4007868:	90e4b03a 	or	r18,r18,r3
 400786c:	90cffc34 	orhi	r3,r18,16368
 4007870:	81800c2e 	bgeu	r16,r6,40078a4 <__b2d+0xb4>
 4007874:	897ffd17 	ldw	r5,-12(r17)
 4007878:	2908d83a 	srl	r4,r5,r4
 400787c:	1104b03a 	or	r2,r2,r4
 4007880:	00000806 	br	40078a4 <__b2d+0xb4>
 4007884:	10000426 	beq	r2,zero,4007898 <__b2d+0xa8>
 4007888:	90a4983a 	sll	r18,r18,r2
 400788c:	0005883a 	mov	r2,zero
 4007890:	90cffc34 	orhi	r3,r18,16368
 4007894:	00000306 	br	40078a4 <__b2d+0xb4>
 4007898:	000b883a 	mov	r5,zero
 400789c:	90cffc34 	orhi	r3,r18,16368
 40078a0:	2805883a 	mov	r2,r5
 40078a4:	dfc00517 	ldw	ra,20(sp)
 40078a8:	dd000417 	ldw	r20,16(sp)
 40078ac:	dcc00317 	ldw	r19,12(sp)
 40078b0:	dc800217 	ldw	r18,8(sp)
 40078b4:	dc400117 	ldw	r17,4(sp)
 40078b8:	dc000017 	ldw	r16,0(sp)
 40078bc:	dec00604 	addi	sp,sp,24
 40078c0:	f800283a 	ret
 40078c4:	014002c4 	movi	r5,11
 40078c8:	2889c83a 	sub	r4,r5,r2
 40078cc:	9106d83a 	srl	r3,r18,r4
 40078d0:	18cffc34 	orhi	r3,r3,16368
 40078d4:	85000536 	bltu	r16,r20,40078ec <__b2d+0xfc>
 40078d8:	000b883a 	mov	r5,zero
 40078dc:	10800544 	addi	r2,r2,21
 40078e0:	9084983a 	sll	r2,r18,r2
 40078e4:	1144b03a 	or	r2,r2,r5
 40078e8:	003fee06 	br	40078a4 <__b2d+0xb4>
 40078ec:	897ffe17 	ldw	r5,-8(r17)
 40078f0:	290ad83a 	srl	r5,r5,r4
 40078f4:	003ff906 	br	40078dc <__b2d+0xec>

040078f8 <__d2b>:
 40078f8:	defff804 	addi	sp,sp,-32
 40078fc:	dd000615 	stw	r20,24(sp)
 4007900:	2829883a 	mov	r20,r5
 4007904:	01400044 	movi	r5,1
 4007908:	dcc00515 	stw	r19,20(sp)
 400790c:	dc000215 	stw	r16,8(sp)
 4007910:	dfc00715 	stw	ra,28(sp)
 4007914:	dc800415 	stw	r18,16(sp)
 4007918:	dc400315 	stw	r17,12(sp)
 400791c:	3021883a 	mov	r16,r6
 4007920:	3827883a 	mov	r19,r7
 4007924:	4006a5c0 	call	4006a5c <_Balloc>
 4007928:	10004526 	beq	r2,zero,4007a40 <__d2b+0x148>
 400792c:	8024d53a 	srli	r18,r16,20
 4007930:	01800434 	movhi	r6,16
 4007934:	31bfffc4 	addi	r6,r6,-1
 4007938:	9481ffcc 	andi	r18,r18,2047
 400793c:	1023883a 	mov	r17,r2
 4007940:	81a0703a 	and	r16,r16,r6
 4007944:	90000126 	beq	r18,zero,400794c <__d2b+0x54>
 4007948:	84000434 	orhi	r16,r16,16
 400794c:	dc000115 	stw	r16,4(sp)
 4007950:	a0002226 	beq	r20,zero,40079dc <__d2b+0xe4>
 4007954:	d809883a 	mov	r4,sp
 4007958:	dd000015 	stw	r20,0(sp)
 400795c:	4006e1c0 	call	4006e1c <__lo0bits>
 4007960:	d8c00117 	ldw	r3,4(sp)
 4007964:	10003326 	beq	r2,zero,4007a34 <__d2b+0x13c>
 4007968:	01000804 	movi	r4,32
 400796c:	2089c83a 	sub	r4,r4,r2
 4007970:	1908983a 	sll	r4,r3,r4
 4007974:	d9400017 	ldw	r5,0(sp)
 4007978:	1886d83a 	srl	r3,r3,r2
 400797c:	2148b03a 	or	r4,r4,r5
 4007980:	89000515 	stw	r4,20(r17)
 4007984:	d8c00115 	stw	r3,4(sp)
 4007988:	88c00615 	stw	r3,24(r17)
 400798c:	1800271e 	bne	r3,zero,4007a2c <__d2b+0x134>
 4007990:	04000044 	movi	r16,1
 4007994:	8c000415 	stw	r16,16(r17)
 4007998:	90001926 	beq	r18,zero,4007a00 <__d2b+0x108>
 400799c:	00c00d44 	movi	r3,53
 40079a0:	94bef344 	addi	r18,r18,-1075
 40079a4:	90a5883a 	add	r18,r18,r2
 40079a8:	1885c83a 	sub	r2,r3,r2
 40079ac:	d8c00817 	ldw	r3,32(sp)
 40079b0:	9c800015 	stw	r18,0(r19)
 40079b4:	18800015 	stw	r2,0(r3)
 40079b8:	8805883a 	mov	r2,r17
 40079bc:	dfc00717 	ldw	ra,28(sp)
 40079c0:	dd000617 	ldw	r20,24(sp)
 40079c4:	dcc00517 	ldw	r19,20(sp)
 40079c8:	dc800417 	ldw	r18,16(sp)
 40079cc:	dc400317 	ldw	r17,12(sp)
 40079d0:	dc000217 	ldw	r16,8(sp)
 40079d4:	dec00804 	addi	sp,sp,32
 40079d8:	f800283a 	ret
 40079dc:	d9000104 	addi	r4,sp,4
 40079e0:	4006e1c0 	call	4006e1c <__lo0bits>
 40079e4:	00c00044 	movi	r3,1
 40079e8:	88c00415 	stw	r3,16(r17)
 40079ec:	d8c00117 	ldw	r3,4(sp)
 40079f0:	10800804 	addi	r2,r2,32
 40079f4:	04000044 	movi	r16,1
 40079f8:	88c00515 	stw	r3,20(r17)
 40079fc:	903fe71e 	bne	r18,zero,400799c <__d2b+0xa4>
 4007a00:	800690ba 	slli	r3,r16,2
 4007a04:	10bef384 	addi	r2,r2,-1074
 4007a08:	98800015 	stw	r2,0(r19)
 4007a0c:	88c5883a 	add	r2,r17,r3
 4007a10:	11000417 	ldw	r4,16(r2)
 4007a14:	8020917a 	slli	r16,r16,5
 4007a18:	4006db80 	call	4006db8 <__hi0bits>
 4007a1c:	80a1c83a 	sub	r16,r16,r2
 4007a20:	d8800817 	ldw	r2,32(sp)
 4007a24:	14000015 	stw	r16,0(r2)
 4007a28:	003fe306 	br	40079b8 <__d2b+0xc0>
 4007a2c:	04000084 	movi	r16,2
 4007a30:	003fd806 	br	4007994 <__d2b+0x9c>
 4007a34:	d9000017 	ldw	r4,0(sp)
 4007a38:	89000515 	stw	r4,20(r17)
 4007a3c:	003fd206 	br	4007988 <__d2b+0x90>
 4007a40:	01c10074 	movhi	r7,1025
 4007a44:	01010074 	movhi	r4,1025
 4007a48:	39c8a104 	addi	r7,r7,8836
 4007a4c:	000d883a 	mov	r6,zero
 4007a50:	0140c284 	movi	r5,778
 4007a54:	2108b604 	addi	r4,r4,8920
 4007a58:	40090000 	call	4009000 <__assert_func>

04007a5c <__ratio>:
 4007a5c:	defff904 	addi	sp,sp,-28
 4007a60:	dc400315 	stw	r17,12(sp)
 4007a64:	2823883a 	mov	r17,r5
 4007a68:	d80b883a 	mov	r5,sp
 4007a6c:	dfc00615 	stw	ra,24(sp)
 4007a70:	dcc00515 	stw	r19,20(sp)
 4007a74:	dc800415 	stw	r18,16(sp)
 4007a78:	2027883a 	mov	r19,r4
 4007a7c:	dc000215 	stw	r16,8(sp)
 4007a80:	40077f00 	call	40077f0 <__b2d>
 4007a84:	d9400104 	addi	r5,sp,4
 4007a88:	8809883a 	mov	r4,r17
 4007a8c:	1025883a 	mov	r18,r2
 4007a90:	1821883a 	mov	r16,r3
 4007a94:	40077f00 	call	40077f0 <__b2d>
 4007a98:	89000417 	ldw	r4,16(r17)
 4007a9c:	9a000417 	ldw	r8,16(r19)
 4007aa0:	d9400117 	ldw	r5,4(sp)
 4007aa4:	100d883a 	mov	r6,r2
 4007aa8:	4111c83a 	sub	r8,r8,r4
 4007aac:	d9000017 	ldw	r4,0(sp)
 4007ab0:	4010917a 	slli	r8,r8,5
 4007ab4:	180f883a 	mov	r7,r3
 4007ab8:	2149c83a 	sub	r4,r4,r5
 4007abc:	4111883a 	add	r8,r8,r4
 4007ac0:	02000c0e 	bge	zero,r8,4007af4 <__ratio+0x98>
 4007ac4:	4010953a 	slli	r8,r8,20
 4007ac8:	4421883a 	add	r16,r8,r16
 4007acc:	9009883a 	mov	r4,r18
 4007ad0:	800b883a 	mov	r5,r16
 4007ad4:	400e8ac0 	call	400e8ac <__divdf3>
 4007ad8:	dfc00617 	ldw	ra,24(sp)
 4007adc:	dcc00517 	ldw	r19,20(sp)
 4007ae0:	dc800417 	ldw	r18,16(sp)
 4007ae4:	dc400317 	ldw	r17,12(sp)
 4007ae8:	dc000217 	ldw	r16,8(sp)
 4007aec:	dec00704 	addi	sp,sp,28
 4007af0:	f800283a 	ret
 4007af4:	4010953a 	slli	r8,r8,20
 4007af8:	1a0fc83a 	sub	r7,r3,r8
 4007afc:	003ff306 	br	4007acc <__ratio+0x70>

04007b00 <_mprec_log10>:
 4007b00:	defffe04 	addi	sp,sp,-8
 4007b04:	dc000015 	stw	r16,0(sp)
 4007b08:	dfc00115 	stw	ra,4(sp)
 4007b0c:	20800608 	cmpgei	r2,r4,24
 4007b10:	2021883a 	mov	r16,r4
 4007b14:	10000f26 	beq	r2,zero,4007b54 <_mprec_log10+0x54>
 4007b18:	0009883a 	mov	r4,zero
 4007b1c:	014ffc34 	movhi	r5,16368
 4007b20:	000d883a 	mov	r6,zero
 4007b24:	01d00934 	movhi	r7,16420
 4007b28:	400f42c0 	call	400f42c <__muldf3>
 4007b2c:	843fffc4 	addi	r16,r16,-1
 4007b30:	1009883a 	mov	r4,r2
 4007b34:	180b883a 	mov	r5,r3
 4007b38:	803ff91e 	bne	r16,zero,4007b20 <_mprec_log10+0x20>
 4007b3c:	2005883a 	mov	r2,r4
 4007b40:	2807883a 	mov	r3,r5
 4007b44:	dfc00117 	ldw	ra,4(sp)
 4007b48:	dc000017 	ldw	r16,0(sp)
 4007b4c:	dec00204 	addi	sp,sp,8
 4007b50:	f800283a 	ret
 4007b54:	202090fa 	slli	r16,r4,3
 4007b58:	00810074 	movhi	r2,1025
 4007b5c:	1088dd04 	addi	r2,r2,9076
 4007b60:	1421883a 	add	r16,r2,r16
 4007b64:	81000017 	ldw	r4,0(r16)
 4007b68:	81400117 	ldw	r5,4(r16)
 4007b6c:	003ff306 	br	4007b3c <_mprec_log10+0x3c>

04007b70 <__copybits>:
 4007b70:	297fffc4 	addi	r5,r5,-1
 4007b74:	280fd17a 	srai	r7,r5,5
 4007b78:	31400417 	ldw	r5,16(r6)
 4007b7c:	30800504 	addi	r2,r6,20
 4007b80:	39c00044 	addi	r7,r7,1
 4007b84:	280a90ba 	slli	r5,r5,2
 4007b88:	380e90ba 	slli	r7,r7,2
 4007b8c:	114b883a 	add	r5,r2,r5
 4007b90:	21cf883a 	add	r7,r4,r7
 4007b94:	11400c2e 	bgeu	r2,r5,4007bc8 <__copybits+0x58>
 4007b98:	2007883a 	mov	r3,r4
 4007b9c:	12000017 	ldw	r8,0(r2)
 4007ba0:	10800104 	addi	r2,r2,4
 4007ba4:	18c00104 	addi	r3,r3,4
 4007ba8:	1a3fff15 	stw	r8,-4(r3)
 4007bac:	117ffb36 	bltu	r2,r5,4007b9c <__copybits+0x2c>
 4007bb0:	2985c83a 	sub	r2,r5,r6
 4007bb4:	10bffac4 	addi	r2,r2,-21
 4007bb8:	1004d0ba 	srli	r2,r2,2
 4007bbc:	10800044 	addi	r2,r2,1
 4007bc0:	100490ba 	slli	r2,r2,2
 4007bc4:	2089883a 	add	r4,r4,r2
 4007bc8:	21c0072e 	bgeu	r4,r7,4007be8 <__copybits+0x78>
 4007bcc:	39bfffc4 	addi	r6,r7,-1
 4007bd0:	310dc83a 	sub	r6,r6,r4
 4007bd4:	300cd0ba 	srli	r6,r6,2
 4007bd8:	000b883a 	mov	r5,zero
 4007bdc:	31800044 	addi	r6,r6,1
 4007be0:	300c90ba 	slli	r6,r6,2
 4007be4:	400981c1 	jmpi	400981c <memset>
 4007be8:	f800283a 	ret

04007bec <__any_on>:
 4007bec:	20c00417 	ldw	r3,16(r4)
 4007bf0:	280dd17a 	srai	r6,r5,5
 4007bf4:	21000504 	addi	r4,r4,20
 4007bf8:	1980080e 	bge	r3,r6,4007c1c <__any_on+0x30>
 4007bfc:	180490ba 	slli	r2,r3,2
 4007c00:	2085883a 	add	r2,r4,r2
 4007c04:	20800f2e 	bgeu	r4,r2,4007c44 <__any_on+0x58>
 4007c08:	10ffff17 	ldw	r3,-4(r2)
 4007c0c:	10bfff04 	addi	r2,r2,-4
 4007c10:	183ffc26 	beq	r3,zero,4007c04 <__any_on+0x18>
 4007c14:	00800044 	movi	r2,1
 4007c18:	f800283a 	ret
 4007c1c:	300490ba 	slli	r2,r6,2
 4007c20:	2085883a 	add	r2,r4,r2
 4007c24:	30fff70e 	bge	r6,r3,4007c04 <__any_on+0x18>
 4007c28:	294007cc 	andi	r5,r5,31
 4007c2c:	283ff526 	beq	r5,zero,4007c04 <__any_on+0x18>
 4007c30:	11800017 	ldw	r6,0(r2)
 4007c34:	3146d83a 	srl	r3,r6,r5
 4007c38:	194a983a 	sll	r5,r3,r5
 4007c3c:	317ff51e 	bne	r6,r5,4007c14 <__any_on+0x28>
 4007c40:	003ff006 	br	4007c04 <__any_on+0x18>
 4007c44:	0005883a 	mov	r2,zero
 4007c48:	f800283a 	ret

04007c4c <_sbrk_r>:
 4007c4c:	defffe04 	addi	sp,sp,-8
 4007c50:	dc000015 	stw	r16,0(sp)
 4007c54:	00810074 	movhi	r2,1025
 4007c58:	2021883a 	mov	r16,r4
 4007c5c:	2809883a 	mov	r4,r5
 4007c60:	dfc00115 	stw	ra,4(sp)
 4007c64:	100fa715 	stw	zero,16028(r2)
 4007c68:	40112a80 	call	40112a8 <sbrk>
 4007c6c:	10ffffd8 	cmpnei	r3,r2,-1
 4007c70:	18000426 	beq	r3,zero,4007c84 <_sbrk_r+0x38>
 4007c74:	dfc00117 	ldw	ra,4(sp)
 4007c78:	dc000017 	ldw	r16,0(sp)
 4007c7c:	dec00204 	addi	sp,sp,8
 4007c80:	f800283a 	ret
 4007c84:	00c10074 	movhi	r3,1025
 4007c88:	18cfa717 	ldw	r3,16028(r3)
 4007c8c:	183ff926 	beq	r3,zero,4007c74 <_sbrk_r+0x28>
 4007c90:	80c00015 	stw	r3,0(r16)
 4007c94:	dfc00117 	ldw	ra,4(sp)
 4007c98:	dc000017 	ldw	r16,0(sp)
 4007c9c:	dec00204 	addi	sp,sp,8
 4007ca0:	f800283a 	ret

04007ca4 <strlen>:
 4007ca4:	208000cc 	andi	r2,r4,3
 4007ca8:	10000926 	beq	r2,zero,4007cd0 <strlen+0x2c>
 4007cac:	2005883a 	mov	r2,r4
 4007cb0:	00000306 	br	4007cc0 <strlen+0x1c>
 4007cb4:	10800044 	addi	r2,r2,1
 4007cb8:	10c000cc 	andi	r3,r2,3
 4007cbc:	18000526 	beq	r3,zero,4007cd4 <strlen+0x30>
 4007cc0:	10c00007 	ldb	r3,0(r2)
 4007cc4:	183ffb1e 	bne	r3,zero,4007cb4 <strlen+0x10>
 4007cc8:	1105c83a 	sub	r2,r2,r4
 4007ccc:	f800283a 	ret
 4007cd0:	2005883a 	mov	r2,r4
 4007cd4:	11400017 	ldw	r5,0(r2)
 4007cd8:	01ffbff4 	movhi	r7,65279
 4007cdc:	39ffbfc4 	addi	r7,r7,-257
 4007ce0:	29c7883a 	add	r3,r5,r7
 4007ce4:	01a02074 	movhi	r6,32897
 4007ce8:	014a303a 	nor	r5,zero,r5
 4007cec:	1946703a 	and	r3,r3,r5
 4007cf0:	31a02004 	addi	r6,r6,-32640
 4007cf4:	1986703a 	and	r3,r3,r6
 4007cf8:	1800071e 	bne	r3,zero,4007d18 <strlen+0x74>
 4007cfc:	11400117 	ldw	r5,4(r2)
 4007d00:	10800104 	addi	r2,r2,4
 4007d04:	29c7883a 	add	r3,r5,r7
 4007d08:	014a303a 	nor	r5,zero,r5
 4007d0c:	1946703a 	and	r3,r3,r5
 4007d10:	1986703a 	and	r3,r3,r6
 4007d14:	183ff926 	beq	r3,zero,4007cfc <strlen+0x58>
 4007d18:	10c00007 	ldb	r3,0(r2)
 4007d1c:	183fea26 	beq	r3,zero,4007cc8 <strlen+0x24>
 4007d20:	10c00047 	ldb	r3,1(r2)
 4007d24:	10800044 	addi	r2,r2,1
 4007d28:	183fe726 	beq	r3,zero,4007cc8 <strlen+0x24>
 4007d2c:	10c00047 	ldb	r3,1(r2)
 4007d30:	10800044 	addi	r2,r2,1
 4007d34:	183ffa1e 	bne	r3,zero,4007d20 <strlen+0x7c>
 4007d38:	003fe306 	br	4007cc8 <strlen+0x24>

04007d3c <__ssprint_r>:
 4007d3c:	30800217 	ldw	r2,8(r6)
 4007d40:	defff604 	addi	sp,sp,-40
 4007d44:	dcc00315 	stw	r19,12(sp)
 4007d48:	dfc00915 	stw	ra,36(sp)
 4007d4c:	df000815 	stw	fp,32(sp)
 4007d50:	ddc00715 	stw	r23,28(sp)
 4007d54:	dd800615 	stw	r22,24(sp)
 4007d58:	dd400515 	stw	r21,20(sp)
 4007d5c:	dd000415 	stw	r20,16(sp)
 4007d60:	dc800215 	stw	r18,8(sp)
 4007d64:	dc400115 	stw	r17,4(sp)
 4007d68:	dc000015 	stw	r16,0(sp)
 4007d6c:	3027883a 	mov	r19,r6
 4007d70:	10005526 	beq	r2,zero,4007ec8 <__ssprint_r+0x18c>
 4007d74:	2029883a 	mov	r20,r4
 4007d78:	35800017 	ldw	r22,0(r6)
 4007d7c:	29000017 	ldw	r4,0(r5)
 4007d80:	2c400217 	ldw	r17,8(r5)
 4007d84:	2821883a 	mov	r16,r5
 4007d88:	057edfc4 	movi	r21,-1153
 4007d8c:	00003506 	br	4007e64 <__ssprint_r+0x128>
 4007d90:	8080030b 	ldhu	r2,12(r16)
 4007d94:	10c1200c 	andi	r3,r2,1152
 4007d98:	18002526 	beq	r3,zero,4007e30 <__ssprint_r+0xf4>
 4007d9c:	84400517 	ldw	r17,20(r16)
 4007da0:	81400417 	ldw	r5,16(r16)
 4007da4:	90c00044 	addi	r3,r18,1
 4007da8:	8c4d883a 	add	r6,r17,r17
 4007dac:	344d883a 	add	r6,r6,r17
 4007db0:	3022d7fa 	srli	r17,r6,31
 4007db4:	216fc83a 	sub	r23,r4,r5
 4007db8:	1dc7883a 	add	r3,r3,r23
 4007dbc:	89a3883a 	add	r17,r17,r6
 4007dc0:	8823d07a 	srai	r17,r17,1
 4007dc4:	880d883a 	mov	r6,r17
 4007dc8:	88c0022e 	bgeu	r17,r3,4007dd4 <__ssprint_r+0x98>
 4007dcc:	1823883a 	mov	r17,r3
 4007dd0:	180d883a 	mov	r6,r3
 4007dd4:	1081000c 	andi	r2,r2,1024
 4007dd8:	10002b26 	beq	r2,zero,4007e88 <__ssprint_r+0x14c>
 4007ddc:	300b883a 	mov	r5,r6
 4007de0:	a009883a 	mov	r4,r20
 4007de4:	40060ac0 	call	40060ac <_malloc_r>
 4007de8:	10002e26 	beq	r2,zero,4007ea4 <__ssprint_r+0x168>
 4007dec:	81400417 	ldw	r5,16(r16)
 4007df0:	b80d883a 	mov	r6,r23
 4007df4:	1009883a 	mov	r4,r2
 4007df8:	400695c0 	call	400695c <memcpy>
 4007dfc:	1007883a 	mov	r3,r2
 4007e00:	8080030b 	ldhu	r2,12(r16)
 4007e04:	1544703a 	and	r2,r2,r21
 4007e08:	10802014 	ori	r2,r2,128
 4007e0c:	8080030d 	sth	r2,12(r16)
 4007e10:	1dc9883a 	add	r4,r3,r23
 4007e14:	8defc83a 	sub	r23,r17,r23
 4007e18:	84400515 	stw	r17,20(r16)
 4007e1c:	85c00215 	stw	r23,8(r16)
 4007e20:	80c00415 	stw	r3,16(r16)
 4007e24:	81000015 	stw	r4,0(r16)
 4007e28:	9023883a 	mov	r17,r18
 4007e2c:	902f883a 	mov	r23,r18
 4007e30:	b80d883a 	mov	r6,r23
 4007e34:	e00b883a 	mov	r5,fp
 4007e38:	40096f00 	call	40096f0 <memmove>
 4007e3c:	80c00217 	ldw	r3,8(r16)
 4007e40:	81000017 	ldw	r4,0(r16)
 4007e44:	98800217 	ldw	r2,8(r19)
 4007e48:	1c63c83a 	sub	r17,r3,r17
 4007e4c:	25c9883a 	add	r4,r4,r23
 4007e50:	84400215 	stw	r17,8(r16)
 4007e54:	81000015 	stw	r4,0(r16)
 4007e58:	14a5c83a 	sub	r18,r2,r18
 4007e5c:	9c800215 	stw	r18,8(r19)
 4007e60:	90001926 	beq	r18,zero,4007ec8 <__ssprint_r+0x18c>
 4007e64:	b4800117 	ldw	r18,4(r22)
 4007e68:	b7000017 	ldw	fp,0(r22)
 4007e6c:	882f883a 	mov	r23,r17
 4007e70:	b5800204 	addi	r22,r22,8
 4007e74:	903ffb26 	beq	r18,zero,4007e64 <__ssprint_r+0x128>
 4007e78:	947fc52e 	bgeu	r18,r17,4007d90 <__ssprint_r+0x54>
 4007e7c:	9023883a 	mov	r17,r18
 4007e80:	902f883a 	mov	r23,r18
 4007e84:	003fea06 	br	4007e30 <__ssprint_r+0xf4>
 4007e88:	a009883a 	mov	r4,r20
 4007e8c:	400990c0 	call	400990c <_realloc_r>
 4007e90:	1007883a 	mov	r3,r2
 4007e94:	103fde1e 	bne	r2,zero,4007e10 <__ssprint_r+0xd4>
 4007e98:	81400417 	ldw	r5,16(r16)
 4007e9c:	a009883a 	mov	r4,r20
 4007ea0:	40092b00 	call	40092b0 <_free_r>
 4007ea4:	80c0030b 	ldhu	r3,12(r16)
 4007ea8:	00800304 	movi	r2,12
 4007eac:	a0800015 	stw	r2,0(r20)
 4007eb0:	18c01014 	ori	r3,r3,64
 4007eb4:	80c0030d 	sth	r3,12(r16)
 4007eb8:	00bfffc4 	movi	r2,-1
 4007ebc:	98000215 	stw	zero,8(r19)
 4007ec0:	98000115 	stw	zero,4(r19)
 4007ec4:	00000206 	br	4007ed0 <__ssprint_r+0x194>
 4007ec8:	98000115 	stw	zero,4(r19)
 4007ecc:	0005883a 	mov	r2,zero
 4007ed0:	dfc00917 	ldw	ra,36(sp)
 4007ed4:	df000817 	ldw	fp,32(sp)
 4007ed8:	ddc00717 	ldw	r23,28(sp)
 4007edc:	dd800617 	ldw	r22,24(sp)
 4007ee0:	dd400517 	ldw	r21,20(sp)
 4007ee4:	dd000417 	ldw	r20,16(sp)
 4007ee8:	dcc00317 	ldw	r19,12(sp)
 4007eec:	dc800217 	ldw	r18,8(sp)
 4007ef0:	dc400117 	ldw	r17,4(sp)
 4007ef4:	dc000017 	ldw	r16,0(sp)
 4007ef8:	dec00a04 	addi	sp,sp,40
 4007efc:	f800283a 	ret

04007f00 <___svfiprintf_internal_r>:
 4007f00:	2880030b 	ldhu	r2,12(r5)
 4007f04:	deffd004 	addi	sp,sp,-192
 4007f08:	df002e15 	stw	fp,184(sp)
 4007f0c:	dd402b15 	stw	r21,172(sp)
 4007f10:	dd002a15 	stw	r20,168(sp)
 4007f14:	dfc02f15 	stw	ra,188(sp)
 4007f18:	ddc02d15 	stw	r23,180(sp)
 4007f1c:	dd802c15 	stw	r22,176(sp)
 4007f20:	dcc02915 	stw	r19,164(sp)
 4007f24:	dc802815 	stw	r18,160(sp)
 4007f28:	dc402715 	stw	r17,156(sp)
 4007f2c:	dc002615 	stw	r16,152(sp)
 4007f30:	1080200c 	andi	r2,r2,128
 4007f34:	d9c00315 	stw	r7,12(sp)
 4007f38:	2829883a 	mov	r20,r5
 4007f3c:	202b883a 	mov	r21,r4
 4007f40:	3039883a 	mov	fp,r6
 4007f44:	10000226 	beq	r2,zero,4007f50 <___svfiprintf_internal_r+0x50>
 4007f48:	28800417 	ldw	r2,16(r5)
 4007f4c:	1003a626 	beq	r2,zero,4008de8 <___svfiprintf_internal_r+0xee8>
 4007f50:	dc801604 	addi	r18,sp,88
 4007f54:	dc800915 	stw	r18,36(sp)
 4007f58:	d8000b15 	stw	zero,44(sp)
 4007f5c:	d8000a15 	stw	zero,40(sp)
 4007f60:	9011883a 	mov	r8,r18
 4007f64:	d8000415 	stw	zero,16(sp)
 4007f68:	d8000015 	stw	zero,0(sp)
 4007f6c:	e0800007 	ldb	r2,0(fp)
 4007f70:	1000f426 	beq	r2,zero,4008344 <___svfiprintf_internal_r+0x444>
 4007f74:	e021883a 	mov	r16,fp
 4007f78:	00000306 	br	4007f88 <___svfiprintf_internal_r+0x88>
 4007f7c:	80800047 	ldb	r2,1(r16)
 4007f80:	84000044 	addi	r16,r16,1
 4007f84:	10010b26 	beq	r2,zero,40083b4 <___svfiprintf_internal_r+0x4b4>
 4007f88:	10800958 	cmpnei	r2,r2,37
 4007f8c:	103ffb1e 	bne	r2,zero,4007f7c <___svfiprintf_internal_r+0x7c>
 4007f90:	8723c83a 	sub	r17,r16,fp
 4007f94:	8701091e 	bne	r16,fp,40083bc <___svfiprintf_internal_r+0x4bc>
 4007f98:	80800003 	ldbu	r2,0(r16)
 4007f9c:	10803fcc 	andi	r2,r2,255
 4007fa0:	1080201c 	xori	r2,r2,128
 4007fa4:	10bfe004 	addi	r2,r2,-128
 4007fa8:	1000e626 	beq	r2,zero,4008344 <___svfiprintf_internal_r+0x444>
 4007fac:	80800047 	ldb	r2,1(r16)
 4007fb0:	87000044 	addi	fp,r16,1
 4007fb4:	d8000845 	stb	zero,33(sp)
 4007fb8:	000b883a 	mov	r5,zero
 4007fbc:	000d883a 	mov	r6,zero
 4007fc0:	02ffffc4 	movi	r11,-1
 4007fc4:	0021883a 	mov	r16,zero
 4007fc8:	0019883a 	mov	r12,zero
 4007fcc:	e7000044 	addi	fp,fp,1
 4007fd0:	10fff804 	addi	r3,r2,-32
 4007fd4:	19001668 	cmpgeui	r4,r3,89
 4007fd8:	20006c1e 	bne	r4,zero,400818c <___svfiprintf_internal_r+0x28c>
 4007fdc:	180690ba 	slli	r3,r3,2
 4007fe0:	01010034 	movhi	r4,1024
 4007fe4:	1909883a 	add	r4,r3,r4
 4007fe8:	20dffc17 	ldw	r3,32752(r4)
 4007fec:	1800683a 	jmp	r3
 4007ff0:	04008830 	cmpltui	r16,zero,544
 4007ff4:	0400818c 	andi	r16,zero,518
 4007ff8:	0400818c 	andi	r16,zero,518
 4007ffc:	04008824 	muli	r16,zero,544
 4008000:	0400818c 	andi	r16,zero,518
 4008004:	0400818c 	andi	r16,zero,518
 4008008:	0400818c 	andi	r16,zero,518
 400800c:	0400818c 	andi	r16,zero,518
 4008010:	0400818c 	andi	r16,zero,518
 4008014:	0400818c 	andi	r16,zero,518
 4008018:	040087fc 	xorhi	r16,zero,543
 400801c:	040087ec 	andhi	r16,zero,543
 4008020:	0400818c 	andi	r16,zero,518
 4008024:	040087d4 	movui	r16,543
 4008028:	04008788 	cmpgei	r16,zero,542
 400802c:	0400818c 	andi	r16,zero,518
 4008030:	0400877c 	xorhi	r16,zero,541
 4008034:	04008154 	movui	r16,517
 4008038:	04008154 	movui	r16,517
 400803c:	04008154 	movui	r16,517
 4008040:	04008154 	movui	r16,517
 4008044:	04008154 	movui	r16,517
 4008048:	04008154 	movui	r16,517
 400804c:	04008154 	movui	r16,517
 4008050:	04008154 	movui	r16,517
 4008054:	04008154 	movui	r16,517
 4008058:	0400818c 	andi	r16,zero,518
 400805c:	0400818c 	andi	r16,zero,518
 4008060:	0400818c 	andi	r16,zero,518
 4008064:	0400818c 	andi	r16,zero,518
 4008068:	0400818c 	andi	r16,zero,518
 400806c:	0400818c 	andi	r16,zero,518
 4008070:	0400818c 	andi	r16,zero,518
 4008074:	0400818c 	andi	r16,zero,518
 4008078:	0400818c 	andi	r16,zero,518
 400807c:	0400818c 	andi	r16,zero,518
 4008080:	04008698 	cmpnei	r16,zero,538
 4008084:	0400818c 	andi	r16,zero,518
 4008088:	0400818c 	andi	r16,zero,518
 400808c:	0400818c 	andi	r16,zero,518
 4008090:	0400818c 	andi	r16,zero,518
 4008094:	0400818c 	andi	r16,zero,518
 4008098:	0400818c 	andi	r16,zero,518
 400809c:	0400818c 	andi	r16,zero,518
 40080a0:	0400818c 	andi	r16,zero,518
 40080a4:	0400818c 	andi	r16,zero,518
 40080a8:	0400818c 	andi	r16,zero,518
 40080ac:	0400838c 	andi	r16,zero,526
 40080b0:	0400818c 	andi	r16,zero,518
 40080b4:	0400818c 	andi	r16,zero,518
 40080b8:	0400818c 	andi	r16,zero,518
 40080bc:	0400818c 	andi	r16,zero,518
 40080c0:	0400818c 	andi	r16,zero,518
 40080c4:	040081b8 	rdprs	r16,zero,518
 40080c8:	0400818c 	andi	r16,zero,518
 40080cc:	0400818c 	andi	r16,zero,518
 40080d0:	04008884 	movi	r16,546
 40080d4:	0400818c 	andi	r16,zero,518
 40080d8:	0400818c 	andi	r16,zero,518
 40080dc:	0400818c 	andi	r16,zero,518
 40080e0:	0400818c 	andi	r16,zero,518
 40080e4:	0400818c 	andi	r16,zero,518
 40080e8:	0400818c 	andi	r16,zero,518
 40080ec:	0400818c 	andi	r16,zero,518
 40080f0:	0400818c 	andi	r16,zero,518
 40080f4:	0400818c 	andi	r16,zero,518
 40080f8:	0400818c 	andi	r16,zero,518
 40080fc:	0400885c 	xori	r16,zero,545
 4008100:	04008534 	movhi	r16,532
 4008104:	0400818c 	andi	r16,zero,518
 4008108:	0400818c 	andi	r16,zero,518
 400810c:	0400818c 	andi	r16,zero,518
 4008110:	040085a4 	muli	r16,zero,534
 4008114:	04008534 	movhi	r16,532
 4008118:	0400818c 	andi	r16,zero,518
 400811c:	0400818c 	andi	r16,zero,518
 4008120:	04008908 	cmpgei	r16,zero,548
 4008124:	0400818c 	andi	r16,zero,518
 4008128:	040088cc 	andi	r16,zero,547
 400812c:	04008390 	cmplti	r16,zero,526
 4008130:	0400865c 	xori	r16,zero,537
 4008134:	04008650 	cmplti	r16,zero,537
 4008138:	0400818c 	andi	r16,zero,518
 400813c:	040085f8 	rdprs	r16,zero,535
 4008140:	0400818c 	andi	r16,zero,518
 4008144:	040081bc 	xorhi	r16,zero,518
 4008148:	0400818c 	andi	r16,zero,518
 400814c:	0400818c 	andi	r16,zero,518
 4008150:	040085b0 	cmpltui	r16,zero,534
 4008154:	0021883a 	mov	r16,zero
 4008158:	113ff404 	addi	r4,r2,-48
 400815c:	800690ba 	slli	r3,r16,2
 4008160:	e0800007 	ldb	r2,0(fp)
 4008164:	e7000044 	addi	fp,fp,1
 4008168:	1c21883a 	add	r16,r3,r16
 400816c:	8421883a 	add	r16,r16,r16
 4008170:	2421883a 	add	r16,r4,r16
 4008174:	113ff404 	addi	r4,r2,-48
 4008178:	20c002b0 	cmpltui	r3,r4,10
 400817c:	183ff71e 	bne	r3,zero,400815c <___svfiprintf_internal_r+0x25c>
 4008180:	10fff804 	addi	r3,r2,-32
 4008184:	19001668 	cmpgeui	r4,r3,89
 4008188:	203f9426 	beq	r4,zero,4007fdc <___svfiprintf_internal_r+0xdc>
 400818c:	29403fcc 	andi	r5,r5,255
 4008190:	28036b1e 	bne	r5,zero,4008f40 <___svfiprintf_internal_r+0x1040>
 4008194:	10006b26 	beq	r2,zero,4008344 <___svfiprintf_internal_r+0x444>
 4008198:	d8800c05 	stb	r2,48(sp)
 400819c:	d8000845 	stb	zero,33(sp)
 40081a0:	04c00044 	movi	r19,1
 40081a4:	05800044 	movi	r22,1
 40081a8:	ddc00c04 	addi	r23,sp,48
 40081ac:	6023883a 	mov	r17,r12
 40081b0:	0017883a 	mov	r11,zero
 40081b4:	00002006 	br	4008238 <___svfiprintf_internal_r+0x338>
 40081b8:	63000414 	ori	r12,r12,16
 40081bc:	6080080c 	andi	r2,r12,32
 40081c0:	1000a126 	beq	r2,zero,4008448 <___svfiprintf_internal_r+0x548>
 40081c4:	d8c00317 	ldw	r3,12(sp)
 40081c8:	00800044 	movi	r2,1
 40081cc:	1cc00017 	ldw	r19,0(r3)
 40081d0:	1d800117 	ldw	r22,4(r3)
 40081d4:	18c00204 	addi	r3,r3,8
 40081d8:	d8c00315 	stw	r3,12(sp)
 40081dc:	d8000845 	stb	zero,33(sp)
 40081e0:	58ffffe0 	cmpeqi	r3,r11,-1
 40081e4:	001b883a 	mov	r13,zero
 40081e8:	1801461e 	bne	r3,zero,4008704 <___svfiprintf_internal_r+0x804>
 40081ec:	047fdfc4 	movi	r17,-129
 40081f0:	9d86b03a 	or	r3,r19,r22
 40081f4:	6462703a 	and	r17,r12,r17
 40081f8:	18024e1e 	bne	r3,zero,4008b34 <___svfiprintf_internal_r+0xc34>
 40081fc:	5801c71e 	bne	r11,zero,400891c <___svfiprintf_internal_r+0xa1c>
 4008200:	1002bf1e 	bne	r2,zero,4008d00 <___svfiprintf_internal_r+0xe00>
 4008204:	6580004c 	andi	r22,r12,1
 4008208:	b002cc26 	beq	r22,zero,4008d3c <___svfiprintf_internal_r+0xe3c>
 400820c:	00800c04 	movi	r2,48
 4008210:	d88015c5 	stb	r2,87(sp)
 4008214:	ddc015c4 	addi	r23,sp,87
 4008218:	5827883a 	mov	r19,r11
 400821c:	5d80010e 	bge	r11,r22,4008224 <___svfiprintf_internal_r+0x324>
 4008220:	b027883a 	mov	r19,r22
 4008224:	6b403fcc 	andi	r13,r13,255
 4008228:	6b40201c 	xori	r13,r13,128
 400822c:	6b7fe004 	addi	r13,r13,-128
 4008230:	68000126 	beq	r13,zero,4008238 <___svfiprintf_internal_r+0x338>
 4008234:	9cc00044 	addi	r19,r19,1
 4008238:	8b40008c 	andi	r13,r17,2
 400823c:	68000126 	beq	r13,zero,4008244 <___svfiprintf_internal_r+0x344>
 4008240:	9cc00084 	addi	r19,r19,2
 4008244:	8b00210c 	andi	r12,r17,132
 4008248:	d8800b17 	ldw	r2,44(sp)
 400824c:	d9000a17 	ldw	r4,40(sp)
 4008250:	6000021e 	bne	r12,zero,400825c <___svfiprintf_internal_r+0x35c>
 4008254:	84c7c83a 	sub	r3,r16,r19
 4008258:	00c25616 	blt	zero,r3,4008bb4 <___svfiprintf_internal_r+0xcb4>
 400825c:	d8c00847 	ldb	r3,33(sp)
 4008260:	21800044 	addi	r6,r4,1
 4008264:	41400204 	addi	r5,r8,8
 4008268:	18000f26 	beq	r3,zero,40082a8 <___svfiprintf_internal_r+0x3a8>
 400826c:	d8c00844 	addi	r3,sp,33
 4008270:	10800044 	addi	r2,r2,1
 4008274:	40c00015 	stw	r3,0(r8)
 4008278:	00c00044 	movi	r3,1
 400827c:	40c00115 	stw	r3,4(r8)
 4008280:	d8800b15 	stw	r2,44(sp)
 4008284:	d9800a15 	stw	r6,40(sp)
 4008288:	30c00208 	cmpgei	r3,r6,8
 400828c:	18027b1e 	bne	r3,zero,4008c7c <___svfiprintf_internal_r+0xd7c>
 4008290:	21c00084 	addi	r7,r4,2
 4008294:	40c00404 	addi	r3,r8,16
 4008298:	3009883a 	mov	r4,r6
 400829c:	2811883a 	mov	r8,r5
 40082a0:	380d883a 	mov	r6,r7
 40082a4:	180b883a 	mov	r5,r3
 40082a8:	68000d26 	beq	r13,zero,40082e0 <___svfiprintf_internal_r+0x3e0>
 40082ac:	d8c00884 	addi	r3,sp,34
 40082b0:	10800084 	addi	r2,r2,2
 40082b4:	40c00015 	stw	r3,0(r8)
 40082b8:	00c00084 	movi	r3,2
 40082bc:	40c00115 	stw	r3,4(r8)
 40082c0:	d8800b15 	stw	r2,44(sp)
 40082c4:	d9800a15 	stw	r6,40(sp)
 40082c8:	30c00208 	cmpgei	r3,r6,8
 40082cc:	18027c1e 	bne	r3,zero,4008cc0 <___svfiprintf_internal_r+0xdc0>
 40082d0:	3009883a 	mov	r4,r6
 40082d4:	2811883a 	mov	r8,r5
 40082d8:	31800044 	addi	r6,r6,1
 40082dc:	29400204 	addi	r5,r5,8
 40082e0:	63002018 	cmpnei	r12,r12,128
 40082e4:	6001a226 	beq	r12,zero,4008970 <___svfiprintf_internal_r+0xa70>
 40082e8:	5d87c83a 	sub	r3,r11,r22
 40082ec:	00c1d416 	blt	zero,r3,4008a40 <___svfiprintf_internal_r+0xb40>
 40082f0:	b085883a 	add	r2,r22,r2
 40082f4:	d9800a15 	stw	r6,40(sp)
 40082f8:	45c00015 	stw	r23,0(r8)
 40082fc:	45800115 	stw	r22,4(r8)
 4008300:	d8800b15 	stw	r2,44(sp)
 4008304:	31800210 	cmplti	r6,r6,8
 4008308:	3001fc26 	beq	r6,zero,4008afc <___svfiprintf_internal_r+0xbfc>
 400830c:	8c40010c 	andi	r17,r17,4
 4008310:	88000226 	beq	r17,zero,400831c <___svfiprintf_internal_r+0x41c>
 4008314:	84e3c83a 	sub	r17,r16,r19
 4008318:	04405716 	blt	zero,r17,4008478 <___svfiprintf_internal_r+0x578>
 400831c:	84c0010e 	bge	r16,r19,4008324 <___svfiprintf_internal_r+0x424>
 4008320:	9821883a 	mov	r16,r19
 4008324:	d8c00017 	ldw	r3,0(sp)
 4008328:	1c07883a 	add	r3,r3,r16
 400832c:	d8c00015 	stw	r3,0(sp)
 4008330:	1001fa1e 	bne	r2,zero,4008b1c <___svfiprintf_internal_r+0xc1c>
 4008334:	e0800007 	ldb	r2,0(fp)
 4008338:	d8000a15 	stw	zero,40(sp)
 400833c:	9011883a 	mov	r8,r18
 4008340:	103f0c1e 	bne	r2,zero,4007f74 <___svfiprintf_internal_r+0x74>
 4008344:	d8800b17 	ldw	r2,44(sp)
 4008348:	1002ff1e 	bne	r2,zero,4008f48 <___svfiprintf_internal_r+0x1048>
 400834c:	a080030b 	ldhu	r2,12(r20)
 4008350:	1080100c 	andi	r2,r2,64
 4008354:	1003161e 	bne	r2,zero,4008fb0 <___svfiprintf_internal_r+0x10b0>
 4008358:	d8800017 	ldw	r2,0(sp)
 400835c:	dfc02f17 	ldw	ra,188(sp)
 4008360:	df002e17 	ldw	fp,184(sp)
 4008364:	ddc02d17 	ldw	r23,180(sp)
 4008368:	dd802c17 	ldw	r22,176(sp)
 400836c:	dd402b17 	ldw	r21,172(sp)
 4008370:	dd002a17 	ldw	r20,168(sp)
 4008374:	dcc02917 	ldw	r19,164(sp)
 4008378:	dc802817 	ldw	r18,160(sp)
 400837c:	dc402717 	ldw	r17,156(sp)
 4008380:	dc002617 	ldw	r16,152(sp)
 4008384:	dec03004 	addi	sp,sp,192
 4008388:	f800283a 	ret
 400838c:	63000414 	ori	r12,r12,16
 4008390:	6080080c 	andi	r2,r12,32
 4008394:	10002026 	beq	r2,zero,4008418 <___svfiprintf_internal_r+0x518>
 4008398:	d8c00317 	ldw	r3,12(sp)
 400839c:	0005883a 	mov	r2,zero
 40083a0:	1cc00017 	ldw	r19,0(r3)
 40083a4:	1d800117 	ldw	r22,4(r3)
 40083a8:	18c00204 	addi	r3,r3,8
 40083ac:	d8c00315 	stw	r3,12(sp)
 40083b0:	003f8a06 	br	40081dc <___svfiprintf_internal_r+0x2dc>
 40083b4:	8723c83a 	sub	r17,r16,fp
 40083b8:	873fe226 	beq	r16,fp,4008344 <___svfiprintf_internal_r+0x444>
 40083bc:	d8c00b17 	ldw	r3,44(sp)
 40083c0:	d8800a17 	ldw	r2,40(sp)
 40083c4:	47000015 	stw	fp,0(r8)
 40083c8:	1c47883a 	add	r3,r3,r17
 40083cc:	10800044 	addi	r2,r2,1
 40083d0:	d8800a15 	stw	r2,40(sp)
 40083d4:	44400115 	stw	r17,4(r8)
 40083d8:	d8c00b15 	stw	r3,44(sp)
 40083dc:	10800208 	cmpgei	r2,r2,8
 40083e0:	1000061e 	bne	r2,zero,40083fc <___svfiprintf_internal_r+0x4fc>
 40083e4:	42000204 	addi	r8,r8,8
 40083e8:	d8c00017 	ldw	r3,0(sp)
 40083ec:	80800003 	ldbu	r2,0(r16)
 40083f0:	1c47883a 	add	r3,r3,r17
 40083f4:	d8c00015 	stw	r3,0(sp)
 40083f8:	003ee806 	br	4007f9c <___svfiprintf_internal_r+0x9c>
 40083fc:	d9800904 	addi	r6,sp,36
 4008400:	a00b883a 	mov	r5,r20
 4008404:	a809883a 	mov	r4,r21
 4008408:	4007d3c0 	call	4007d3c <__ssprint_r>
 400840c:	103fcf1e 	bne	r2,zero,400834c <___svfiprintf_internal_r+0x44c>
 4008410:	9011883a 	mov	r8,r18
 4008414:	003ff406 	br	40083e8 <___svfiprintf_internal_r+0x4e8>
 4008418:	d9000317 	ldw	r4,12(sp)
 400841c:	6080040c 	andi	r2,r12,16
 4008420:	20c00104 	addi	r3,r4,4
 4008424:	10025d1e 	bne	r2,zero,4008d9c <___svfiprintf_internal_r+0xe9c>
 4008428:	6080100c 	andi	r2,r12,64
 400842c:	1002b526 	beq	r2,zero,4008f04 <___svfiprintf_internal_r+0x1004>
 4008430:	d8800317 	ldw	r2,12(sp)
 4008434:	002d883a 	mov	r22,zero
 4008438:	d8c00315 	stw	r3,12(sp)
 400843c:	14c0000b 	ldhu	r19,0(r2)
 4008440:	0005883a 	mov	r2,zero
 4008444:	003f6506 	br	40081dc <___svfiprintf_internal_r+0x2dc>
 4008448:	d9000317 	ldw	r4,12(sp)
 400844c:	6080040c 	andi	r2,r12,16
 4008450:	20c00104 	addi	r3,r4,4
 4008454:	1002411e 	bne	r2,zero,4008d5c <___svfiprintf_internal_r+0xe5c>
 4008458:	6080100c 	andi	r2,r12,64
 400845c:	1002a326 	beq	r2,zero,4008eec <___svfiprintf_internal_r+0xfec>
 4008460:	d8800317 	ldw	r2,12(sp)
 4008464:	002d883a 	mov	r22,zero
 4008468:	d8c00315 	stw	r3,12(sp)
 400846c:	14c0000b 	ldhu	r19,0(r2)
 4008470:	00800044 	movi	r2,1
 4008474:	003f5906 	br	40081dc <___svfiprintf_internal_r+0x2dc>
 4008478:	01c10074 	movhi	r7,1025
 400847c:	89000450 	cmplti	r4,r17,17
 4008480:	d8c00a17 	ldw	r3,40(sp)
 4008484:	39c91304 	addi	r7,r7,9292
 4008488:	05800404 	movi	r22,16
 400848c:	20000526 	beq	r4,zero,40084a4 <___svfiprintf_internal_r+0x5a4>
 4008490:	00001906 	br	40084f8 <___svfiprintf_internal_r+0x5f8>
 4008494:	8c7ffc04 	addi	r17,r17,-16
 4008498:	89000448 	cmpgei	r4,r17,17
 400849c:	29400204 	addi	r5,r5,8
 40084a0:	20001526 	beq	r4,zero,40084f8 <___svfiprintf_internal_r+0x5f8>
 40084a4:	18c00044 	addi	r3,r3,1
 40084a8:	10800404 	addi	r2,r2,16
 40084ac:	29c00015 	stw	r7,0(r5)
 40084b0:	2d800115 	stw	r22,4(r5)
 40084b4:	d8800b15 	stw	r2,44(sp)
 40084b8:	d8c00a15 	stw	r3,40(sp)
 40084bc:	19000208 	cmpgei	r4,r3,8
 40084c0:	203ff426 	beq	r4,zero,4008494 <___svfiprintf_internal_r+0x594>
 40084c4:	d9800904 	addi	r6,sp,36
 40084c8:	a00b883a 	mov	r5,r20
 40084cc:	a809883a 	mov	r4,r21
 40084d0:	d9c00115 	stw	r7,4(sp)
 40084d4:	4007d3c0 	call	4007d3c <__ssprint_r>
 40084d8:	103f9c1e 	bne	r2,zero,400834c <___svfiprintf_internal_r+0x44c>
 40084dc:	8c7ffc04 	addi	r17,r17,-16
 40084e0:	89000448 	cmpgei	r4,r17,17
 40084e4:	d8800b17 	ldw	r2,44(sp)
 40084e8:	d8c00a17 	ldw	r3,40(sp)
 40084ec:	d9c00117 	ldw	r7,4(sp)
 40084f0:	900b883a 	mov	r5,r18
 40084f4:	203feb1e 	bne	r4,zero,40084a4 <___svfiprintf_internal_r+0x5a4>
 40084f8:	18c00044 	addi	r3,r3,1
 40084fc:	1445883a 	add	r2,r2,r17
 4008500:	d8c00a15 	stw	r3,40(sp)
 4008504:	29c00015 	stw	r7,0(r5)
 4008508:	2c400115 	stw	r17,4(r5)
 400850c:	d8800b15 	stw	r2,44(sp)
 4008510:	18c00210 	cmplti	r3,r3,8
 4008514:	183f811e 	bne	r3,zero,400831c <___svfiprintf_internal_r+0x41c>
 4008518:	d9800904 	addi	r6,sp,36
 400851c:	a00b883a 	mov	r5,r20
 4008520:	a809883a 	mov	r4,r21
 4008524:	4007d3c0 	call	4007d3c <__ssprint_r>
 4008528:	103f881e 	bne	r2,zero,400834c <___svfiprintf_internal_r+0x44c>
 400852c:	d8800b17 	ldw	r2,44(sp)
 4008530:	003f7a06 	br	400831c <___svfiprintf_internal_r+0x41c>
 4008534:	29403fcc 	andi	r5,r5,255
 4008538:	28028e1e 	bne	r5,zero,4008f74 <___svfiprintf_internal_r+0x1074>
 400853c:	6080080c 	andi	r2,r12,32
 4008540:	10005a26 	beq	r2,zero,40086ac <___svfiprintf_internal_r+0x7ac>
 4008544:	d8c00317 	ldw	r3,12(sp)
 4008548:	18800117 	ldw	r2,4(r3)
 400854c:	1cc00017 	ldw	r19,0(r3)
 4008550:	18c00204 	addi	r3,r3,8
 4008554:	d8c00315 	stw	r3,12(sp)
 4008558:	102d883a 	mov	r22,r2
 400855c:	10005f16 	blt	r2,zero,40086dc <___svfiprintf_internal_r+0x7dc>
 4008560:	58bfffd8 	cmpnei	r2,r11,-1
 4008564:	db400843 	ldbu	r13,33(sp)
 4008568:	10000526 	beq	r2,zero,4008580 <___svfiprintf_internal_r+0x680>
 400856c:	047fdfc4 	movi	r17,-129
 4008570:	9d84b03a 	or	r2,r19,r22
 4008574:	6462703a 	and	r17,r12,r17
 4008578:	1001e026 	beq	r2,zero,4008cfc <___svfiprintf_internal_r+0xdfc>
 400857c:	8819883a 	mov	r12,r17
 4008580:	b0016e1e 	bne	r22,zero,4008b3c <___svfiprintf_internal_r+0xc3c>
 4008584:	988002a8 	cmpgeui	r2,r19,10
 4008588:	10016c1e 	bne	r2,zero,4008b3c <___svfiprintf_internal_r+0xc3c>
 400858c:	9cc00c04 	addi	r19,r19,48
 4008590:	dcc015c5 	stb	r19,87(sp)
 4008594:	6023883a 	mov	r17,r12
 4008598:	05800044 	movi	r22,1
 400859c:	ddc015c4 	addi	r23,sp,87
 40085a0:	003f1d06 	br	4008218 <___svfiprintf_internal_r+0x318>
 40085a4:	e0800007 	ldb	r2,0(fp)
 40085a8:	63001014 	ori	r12,r12,64
 40085ac:	003e8706 	br	4007fcc <___svfiprintf_internal_r+0xcc>
 40085b0:	29403fcc 	andi	r5,r5,255
 40085b4:	2802711e 	bne	r5,zero,4008f7c <___svfiprintf_internal_r+0x107c>
 40085b8:	00c10074 	movhi	r3,1025
 40085bc:	18c88804 	addi	r3,r3,8736
 40085c0:	d8c00415 	stw	r3,16(sp)
 40085c4:	60c0080c 	andi	r3,r12,32
 40085c8:	1800b526 	beq	r3,zero,40088a0 <___svfiprintf_internal_r+0x9a0>
 40085cc:	d8c00317 	ldw	r3,12(sp)
 40085d0:	1cc00017 	ldw	r19,0(r3)
 40085d4:	1d800117 	ldw	r22,4(r3)
 40085d8:	18c00204 	addi	r3,r3,8
 40085dc:	d8c00315 	stw	r3,12(sp)
 40085e0:	60c0004c 	andi	r3,r12,1
 40085e4:	18000226 	beq	r3,zero,40085f0 <___svfiprintf_internal_r+0x6f0>
 40085e8:	9d86b03a 	or	r3,r19,r22
 40085ec:	1801e01e 	bne	r3,zero,4008d70 <___svfiprintf_internal_r+0xe70>
 40085f0:	00800084 	movi	r2,2
 40085f4:	003ef906 	br	40081dc <___svfiprintf_internal_r+0x2dc>
 40085f8:	d8800317 	ldw	r2,12(sp)
 40085fc:	d8000845 	stb	zero,33(sp)
 4008600:	15c00017 	ldw	r23,0(r2)
 4008604:	14400104 	addi	r17,r2,4
 4008608:	b8022926 	beq	r23,zero,4008eb0 <___svfiprintf_internal_r+0xfb0>
 400860c:	58bfffe0 	cmpeqi	r2,r11,-1
 4008610:	1001eb1e 	bne	r2,zero,4008dc0 <___svfiprintf_internal_r+0xec0>
 4008614:	580d883a 	mov	r6,r11
 4008618:	000b883a 	mov	r5,zero
 400861c:	b809883a 	mov	r4,r23
 4008620:	da000315 	stw	r8,12(sp)
 4008624:	db000215 	stw	r12,8(sp)
 4008628:	dac00115 	stw	r11,4(sp)
 400862c:	400688c0 	call	400688c <memchr>
 4008630:	dac00117 	ldw	r11,4(sp)
 4008634:	db000217 	ldw	r12,8(sp)
 4008638:	da000317 	ldw	r8,12(sp)
 400863c:	10024926 	beq	r2,zero,4008f64 <___svfiprintf_internal_r+0x1064>
 4008640:	15edc83a 	sub	r22,r2,r23
 4008644:	b027883a 	mov	r19,r22
 4008648:	dc400315 	stw	r17,12(sp)
 400864c:	003ed706 	br	40081ac <___svfiprintf_internal_r+0x2ac>
 4008650:	e0800007 	ldb	r2,0(fp)
 4008654:	63000814 	ori	r12,r12,32
 4008658:	003e5c06 	br	4007fcc <___svfiprintf_internal_r+0xcc>
 400865c:	d8c00317 	ldw	r3,12(sp)
 4008660:	00800c04 	movi	r2,48
 4008664:	d8800885 	stb	r2,34(sp)
 4008668:	00801e04 	movi	r2,120
 400866c:	01010074 	movhi	r4,1025
 4008670:	d88008c5 	stb	r2,35(sp)
 4008674:	18800104 	addi	r2,r3,4
 4008678:	d8800315 	stw	r2,12(sp)
 400867c:	20888804 	addi	r2,r4,8736
 4008680:	d8800415 	stw	r2,16(sp)
 4008684:	1cc00017 	ldw	r19,0(r3)
 4008688:	002d883a 	mov	r22,zero
 400868c:	63000094 	ori	r12,r12,2
 4008690:	00800084 	movi	r2,2
 4008694:	003ed106 	br	40081dc <___svfiprintf_internal_r+0x2dc>
 4008698:	29403fcc 	andi	r5,r5,255
 400869c:	28023b1e 	bne	r5,zero,4008f8c <___svfiprintf_internal_r+0x108c>
 40086a0:	63000414 	ori	r12,r12,16
 40086a4:	6080080c 	andi	r2,r12,32
 40086a8:	103fa61e 	bne	r2,zero,4008544 <___svfiprintf_internal_r+0x644>
 40086ac:	d9000317 	ldw	r4,12(sp)
 40086b0:	6080040c 	andi	r2,r12,16
 40086b4:	20c00104 	addi	r3,r4,4
 40086b8:	1001b31e 	bne	r2,zero,4008d88 <___svfiprintf_internal_r+0xe88>
 40086bc:	6080100c 	andi	r2,r12,64
 40086c0:	10020426 	beq	r2,zero,4008ed4 <___svfiprintf_internal_r+0xfd4>
 40086c4:	d8800317 	ldw	r2,12(sp)
 40086c8:	d8c00315 	stw	r3,12(sp)
 40086cc:	14c0000f 	ldh	r19,0(r2)
 40086d0:	982dd7fa 	srai	r22,r19,31
 40086d4:	b005883a 	mov	r2,r22
 40086d8:	103fa10e 	bge	r2,zero,4008560 <___svfiprintf_internal_r+0x660>
 40086dc:	9804c03a 	cmpne	r2,r19,zero
 40086e0:	05adc83a 	sub	r22,zero,r22
 40086e4:	b0adc83a 	sub	r22,r22,r2
 40086e8:	00800b44 	movi	r2,45
 40086ec:	d8800845 	stb	r2,33(sp)
 40086f0:	58ffffe0 	cmpeqi	r3,r11,-1
 40086f4:	04e7c83a 	sub	r19,zero,r19
 40086f8:	03400b44 	movi	r13,45
 40086fc:	00800044 	movi	r2,1
 4008700:	183eba26 	beq	r3,zero,40081ec <___svfiprintf_internal_r+0x2ec>
 4008704:	10c00060 	cmpeqi	r3,r2,1
 4008708:	183f9d1e 	bne	r3,zero,4008580 <___svfiprintf_internal_r+0x680>
 400870c:	108000a0 	cmpeqi	r2,r2,2
 4008710:	1000871e 	bne	r2,zero,4008930 <___svfiprintf_internal_r+0xa30>
 4008714:	902f883a 	mov	r23,r18
 4008718:	b008977a 	slli	r4,r22,29
 400871c:	9806d0fa 	srli	r3,r19,3
 4008720:	b02cd0fa 	srli	r22,r22,3
 4008724:	988001cc 	andi	r2,r19,7
 4008728:	10800c04 	addi	r2,r2,48
 400872c:	20e6b03a 	or	r19,r4,r3
 4008730:	b8bfffc5 	stb	r2,-1(r23)
 4008734:	9d86b03a 	or	r3,r19,r22
 4008738:	b80b883a 	mov	r5,r23
 400873c:	bdffffc4 	addi	r23,r23,-1
 4008740:	183ff51e 	bne	r3,zero,4008718 <___svfiprintf_internal_r+0x818>
 4008744:	60c0004c 	andi	r3,r12,1
 4008748:	18008626 	beq	r3,zero,4008964 <___svfiprintf_internal_r+0xa64>
 400874c:	10803fcc 	andi	r2,r2,255
 4008750:	1080201c 	xori	r2,r2,128
 4008754:	10bfe004 	addi	r2,r2,-128
 4008758:	10800c18 	cmpnei	r2,r2,48
 400875c:	10008126 	beq	r2,zero,4008964 <___svfiprintf_internal_r+0xa64>
 4008760:	297fff84 	addi	r5,r5,-2
 4008764:	00800c04 	movi	r2,48
 4008768:	b8bfffc5 	stb	r2,-1(r23)
 400876c:	916dc83a 	sub	r22,r18,r5
 4008770:	6023883a 	mov	r17,r12
 4008774:	282f883a 	mov	r23,r5
 4008778:	003ea706 	br	4008218 <___svfiprintf_internal_r+0x318>
 400877c:	e0800007 	ldb	r2,0(fp)
 4008780:	63002014 	ori	r12,r12,128
 4008784:	003e1106 	br	4007fcc <___svfiprintf_internal_r+0xcc>
 4008788:	e0800007 	ldb	r2,0(fp)
 400878c:	e0c00044 	addi	r3,fp,1
 4008790:	11000aa0 	cmpeqi	r4,r2,42
 4008794:	2002091e 	bne	r4,zero,4008fbc <___svfiprintf_internal_r+0x10bc>
 4008798:	113ff404 	addi	r4,r2,-48
 400879c:	21c002b0 	cmpltui	r7,r4,10
 40087a0:	1839883a 	mov	fp,r3
 40087a4:	0017883a 	mov	r11,zero
 40087a8:	383e0926 	beq	r7,zero,4007fd0 <___svfiprintf_internal_r+0xd0>
 40087ac:	580690ba 	slli	r3,r11,2
 40087b0:	e0800007 	ldb	r2,0(fp)
 40087b4:	e7000044 	addi	fp,fp,1
 40087b8:	1ac7883a 	add	r3,r3,r11
 40087bc:	18c7883a 	add	r3,r3,r3
 40087c0:	1917883a 	add	r11,r3,r4
 40087c4:	113ff404 	addi	r4,r2,-48
 40087c8:	20c002b0 	cmpltui	r3,r4,10
 40087cc:	183ff71e 	bne	r3,zero,40087ac <___svfiprintf_internal_r+0x8ac>
 40087d0:	003dff06 	br	4007fd0 <___svfiprintf_internal_r+0xd0>
 40087d4:	e0800003 	ldbu	r2,0(fp)
 40087d8:	10803fcc 	andi	r2,r2,255
 40087dc:	1080201c 	xori	r2,r2,128
 40087e0:	63000114 	ori	r12,r12,4
 40087e4:	10bfe004 	addi	r2,r2,-128
 40087e8:	003df806 	br	4007fcc <___svfiprintf_internal_r+0xcc>
 40087ec:	e0800007 	ldb	r2,0(fp)
 40087f0:	01400044 	movi	r5,1
 40087f4:	01800ac4 	movi	r6,43
 40087f8:	003df406 	br	4007fcc <___svfiprintf_internal_r+0xcc>
 40087fc:	d8c00317 	ldw	r3,12(sp)
 4008800:	e0800003 	ldbu	r2,0(fp)
 4008804:	1c000017 	ldw	r16,0(r3)
 4008808:	1dc00104 	addi	r23,r3,4
 400880c:	80019116 	blt	r16,zero,4008e54 <___svfiprintf_internal_r+0xf54>
 4008810:	ddc00315 	stw	r23,12(sp)
 4008814:	10803fcc 	andi	r2,r2,255
 4008818:	1080201c 	xori	r2,r2,128
 400881c:	10bfe004 	addi	r2,r2,-128
 4008820:	003dea06 	br	4007fcc <___svfiprintf_internal_r+0xcc>
 4008824:	e0800007 	ldb	r2,0(fp)
 4008828:	63000054 	ori	r12,r12,1
 400882c:	003de706 	br	4007fcc <___svfiprintf_internal_r+0xcc>
 4008830:	30c03fcc 	andi	r3,r6,255
 4008834:	18c0201c 	xori	r3,r3,128
 4008838:	18ffe004 	addi	r3,r3,-128
 400883c:	e0800003 	ldbu	r2,0(fp)
 4008840:	183ff41e 	bne	r3,zero,4008814 <___svfiprintf_internal_r+0x914>
 4008844:	10803fcc 	andi	r2,r2,255
 4008848:	1080201c 	xori	r2,r2,128
 400884c:	01400044 	movi	r5,1
 4008850:	01800804 	movi	r6,32
 4008854:	10bfe004 	addi	r2,r2,-128
 4008858:	003ddc06 	br	4007fcc <___svfiprintf_internal_r+0xcc>
 400885c:	d8c00317 	ldw	r3,12(sp)
 4008860:	d8000845 	stb	zero,33(sp)
 4008864:	04c00044 	movi	r19,1
 4008868:	18800017 	ldw	r2,0(r3)
 400886c:	18c00104 	addi	r3,r3,4
 4008870:	d8c00315 	stw	r3,12(sp)
 4008874:	d8800c05 	stb	r2,48(sp)
 4008878:	05800044 	movi	r22,1
 400887c:	ddc00c04 	addi	r23,sp,48
 4008880:	003e4a06 	br	40081ac <___svfiprintf_internal_r+0x2ac>
 4008884:	29403fcc 	andi	r5,r5,255
 4008888:	2801c21e 	bne	r5,zero,4008f94 <___svfiprintf_internal_r+0x1094>
 400888c:	00c10074 	movhi	r3,1025
 4008890:	18c88d04 	addi	r3,r3,8756
 4008894:	d8c00415 	stw	r3,16(sp)
 4008898:	60c0080c 	andi	r3,r12,32
 400889c:	183f4b1e 	bne	r3,zero,40085cc <___svfiprintf_internal_r+0x6cc>
 40088a0:	d9400317 	ldw	r5,12(sp)
 40088a4:	60c0040c 	andi	r3,r12,16
 40088a8:	29000104 	addi	r4,r5,4
 40088ac:	1801401e 	bne	r3,zero,4008db0 <___svfiprintf_internal_r+0xeb0>
 40088b0:	60c0100c 	andi	r3,r12,64
 40088b4:	18019926 	beq	r3,zero,4008f1c <___svfiprintf_internal_r+0x101c>
 40088b8:	d8c00317 	ldw	r3,12(sp)
 40088bc:	002d883a 	mov	r22,zero
 40088c0:	d9000315 	stw	r4,12(sp)
 40088c4:	1cc0000b 	ldhu	r19,0(r3)
 40088c8:	003f4506 	br	40085e0 <___svfiprintf_internal_r+0x6e0>
 40088cc:	29403fcc 	andi	r5,r5,255
 40088d0:	2801ac1e 	bne	r5,zero,4008f84 <___svfiprintf_internal_r+0x1084>
 40088d4:	d9000317 	ldw	r4,12(sp)
 40088d8:	6080080c 	andi	r2,r12,32
 40088dc:	20c00017 	ldw	r3,0(r4)
 40088e0:	25c00104 	addi	r23,r4,4
 40088e4:	1001171e 	bne	r2,zero,4008d44 <___svfiprintf_internal_r+0xe44>
 40088e8:	6080040c 	andi	r2,r12,16
 40088ec:	1001461e 	bne	r2,zero,4008e08 <___svfiprintf_internal_r+0xf08>
 40088f0:	6300100c 	andi	r12,r12,64
 40088f4:	60014426 	beq	r12,zero,4008e08 <___svfiprintf_internal_r+0xf08>
 40088f8:	d8800017 	ldw	r2,0(sp)
 40088fc:	ddc00315 	stw	r23,12(sp)
 4008900:	1880000d 	sth	r2,0(r3)
 4008904:	003d9906 	br	4007f6c <___svfiprintf_internal_r+0x6c>
 4008908:	e0800007 	ldb	r2,0(fp)
 400890c:	10c01b18 	cmpnei	r3,r2,108
 4008910:	18016026 	beq	r3,zero,4008e94 <___svfiprintf_internal_r+0xf94>
 4008914:	63000414 	ori	r12,r12,16
 4008918:	003dac06 	br	4007fcc <___svfiprintf_internal_r+0xcc>
 400891c:	10c00060 	cmpeqi	r3,r2,1
 4008920:	18018e1e 	bne	r3,zero,4008f5c <___svfiprintf_internal_r+0x105c>
 4008924:	108000a0 	cmpeqi	r2,r2,2
 4008928:	8819883a 	mov	r12,r17
 400892c:	103f7926 	beq	r2,zero,4008714 <___svfiprintf_internal_r+0x814>
 4008930:	902f883a 	mov	r23,r18
 4008934:	d9000417 	ldw	r4,16(sp)
 4008938:	988003cc 	andi	r2,r19,15
 400893c:	b006973a 	slli	r3,r22,28
 4008940:	9826d13a 	srli	r19,r19,4
 4008944:	2085883a 	add	r2,r4,r2
 4008948:	10800003 	ldbu	r2,0(r2)
 400894c:	b02cd13a 	srli	r22,r22,4
 4008950:	1ce6b03a 	or	r19,r3,r19
 4008954:	b8bfffc5 	stb	r2,-1(r23)
 4008958:	9d84b03a 	or	r2,r19,r22
 400895c:	bdffffc4 	addi	r23,r23,-1
 4008960:	103ff41e 	bne	r2,zero,4008934 <___svfiprintf_internal_r+0xa34>
 4008964:	95edc83a 	sub	r22,r18,r23
 4008968:	6023883a 	mov	r17,r12
 400896c:	003e2a06 	br	4008218 <___svfiprintf_internal_r+0x318>
 4008970:	84c7c83a 	sub	r3,r16,r19
 4008974:	00fe5c0e 	bge	zero,r3,40082e8 <___svfiprintf_internal_r+0x3e8>
 4008978:	19c00450 	cmplti	r7,r3,17
 400897c:	3801871e 	bne	r7,zero,4008f9c <___svfiprintf_internal_r+0x109c>
 4008980:	01c10074 	movhi	r7,1025
 4008984:	39c90f04 	addi	r7,r7,9276
 4008988:	03000404 	movi	r12,16
 400898c:	00000406 	br	40089a0 <___svfiprintf_internal_r+0xaa0>
 4008990:	18fffc04 	addi	r3,r3,-16
 4008994:	19400448 	cmpgei	r5,r3,17
 4008998:	42000204 	addi	r8,r8,8
 400899c:	28001a26 	beq	r5,zero,4008a08 <___svfiprintf_internal_r+0xb08>
 40089a0:	21000044 	addi	r4,r4,1
 40089a4:	10800404 	addi	r2,r2,16
 40089a8:	41c00015 	stw	r7,0(r8)
 40089ac:	43000115 	stw	r12,4(r8)
 40089b0:	d8800b15 	stw	r2,44(sp)
 40089b4:	d9000a15 	stw	r4,40(sp)
 40089b8:	21400208 	cmpgei	r5,r4,8
 40089bc:	283ff426 	beq	r5,zero,4008990 <___svfiprintf_internal_r+0xa90>
 40089c0:	d9800904 	addi	r6,sp,36
 40089c4:	a00b883a 	mov	r5,r20
 40089c8:	a809883a 	mov	r4,r21
 40089cc:	d9c00515 	stw	r7,20(sp)
 40089d0:	dac00215 	stw	r11,8(sp)
 40089d4:	d8c00115 	stw	r3,4(sp)
 40089d8:	4007d3c0 	call	4007d3c <__ssprint_r>
 40089dc:	103e5b1e 	bne	r2,zero,400834c <___svfiprintf_internal_r+0x44c>
 40089e0:	d8c00117 	ldw	r3,4(sp)
 40089e4:	d8800b17 	ldw	r2,44(sp)
 40089e8:	d9000a17 	ldw	r4,40(sp)
 40089ec:	18fffc04 	addi	r3,r3,-16
 40089f0:	19400448 	cmpgei	r5,r3,17
 40089f4:	d9c00517 	ldw	r7,20(sp)
 40089f8:	dac00217 	ldw	r11,8(sp)
 40089fc:	9011883a 	mov	r8,r18
 4008a00:	03000404 	movi	r12,16
 4008a04:	283fe61e 	bne	r5,zero,40089a0 <___svfiprintf_internal_r+0xaa0>
 4008a08:	21000044 	addi	r4,r4,1
 4008a0c:	43000204 	addi	r12,r8,8
 4008a10:	10c5883a 	add	r2,r2,r3
 4008a14:	40c00115 	stw	r3,4(r8)
 4008a18:	41c00015 	stw	r7,0(r8)
 4008a1c:	d8800b15 	stw	r2,44(sp)
 4008a20:	d9000a15 	stw	r4,40(sp)
 4008a24:	20c00208 	cmpgei	r3,r4,8
 4008a28:	18010d1e 	bne	r3,zero,4008e60 <___svfiprintf_internal_r+0xf60>
 4008a2c:	5d87c83a 	sub	r3,r11,r22
 4008a30:	21800044 	addi	r6,r4,1
 4008a34:	61400204 	addi	r5,r12,8
 4008a38:	6011883a 	mov	r8,r12
 4008a3c:	00fe2c0e 	bge	zero,r3,40082f0 <___svfiprintf_internal_r+0x3f0>
 4008a40:	19c00450 	cmplti	r7,r3,17
 4008a44:	38013a1e 	bne	r7,zero,4008f30 <___svfiprintf_internal_r+0x1030>
 4008a48:	01c10074 	movhi	r7,1025
 4008a4c:	39c90f04 	addi	r7,r7,9276
 4008a50:	02c00404 	movi	r11,16
 4008a54:	00000406 	br	4008a68 <___svfiprintf_internal_r+0xb68>
 4008a58:	18fffc04 	addi	r3,r3,-16
 4008a5c:	19400448 	cmpgei	r5,r3,17
 4008a60:	42000204 	addi	r8,r8,8
 4008a64:	28001826 	beq	r5,zero,4008ac8 <___svfiprintf_internal_r+0xbc8>
 4008a68:	21000044 	addi	r4,r4,1
 4008a6c:	10800404 	addi	r2,r2,16
 4008a70:	41c00015 	stw	r7,0(r8)
 4008a74:	42c00115 	stw	r11,4(r8)
 4008a78:	d8800b15 	stw	r2,44(sp)
 4008a7c:	d9000a15 	stw	r4,40(sp)
 4008a80:	21400208 	cmpgei	r5,r4,8
 4008a84:	283ff426 	beq	r5,zero,4008a58 <___svfiprintf_internal_r+0xb58>
 4008a88:	d9800904 	addi	r6,sp,36
 4008a8c:	a00b883a 	mov	r5,r20
 4008a90:	a809883a 	mov	r4,r21
 4008a94:	d9c00215 	stw	r7,8(sp)
 4008a98:	d8c00115 	stw	r3,4(sp)
 4008a9c:	4007d3c0 	call	4007d3c <__ssprint_r>
 4008aa0:	103e2a1e 	bne	r2,zero,400834c <___svfiprintf_internal_r+0x44c>
 4008aa4:	d8c00117 	ldw	r3,4(sp)
 4008aa8:	d8800b17 	ldw	r2,44(sp)
 4008aac:	d9000a17 	ldw	r4,40(sp)
 4008ab0:	18fffc04 	addi	r3,r3,-16
 4008ab4:	19400448 	cmpgei	r5,r3,17
 4008ab8:	d9c00217 	ldw	r7,8(sp)
 4008abc:	9011883a 	mov	r8,r18
 4008ac0:	02c00404 	movi	r11,16
 4008ac4:	283fe81e 	bne	r5,zero,4008a68 <___svfiprintf_internal_r+0xb68>
 4008ac8:	21800044 	addi	r6,r4,1
 4008acc:	41000204 	addi	r4,r8,8
 4008ad0:	10c5883a 	add	r2,r2,r3
 4008ad4:	40c00115 	stw	r3,4(r8)
 4008ad8:	41c00015 	stw	r7,0(r8)
 4008adc:	d8800b15 	stw	r2,44(sp)
 4008ae0:	d9800a15 	stw	r6,40(sp)
 4008ae4:	30c00208 	cmpgei	r3,r6,8
 4008ae8:	1800891e 	bne	r3,zero,4008d10 <___svfiprintf_internal_r+0xe10>
 4008aec:	31800044 	addi	r6,r6,1
 4008af0:	21400204 	addi	r5,r4,8
 4008af4:	2011883a 	mov	r8,r4
 4008af8:	003dfd06 	br	40082f0 <___svfiprintf_internal_r+0x3f0>
 4008afc:	d9800904 	addi	r6,sp,36
 4008b00:	a00b883a 	mov	r5,r20
 4008b04:	a809883a 	mov	r4,r21
 4008b08:	4007d3c0 	call	4007d3c <__ssprint_r>
 4008b0c:	103e0f1e 	bne	r2,zero,400834c <___svfiprintf_internal_r+0x44c>
 4008b10:	d8800b17 	ldw	r2,44(sp)
 4008b14:	900b883a 	mov	r5,r18
 4008b18:	003dfc06 	br	400830c <___svfiprintf_internal_r+0x40c>
 4008b1c:	d9800904 	addi	r6,sp,36
 4008b20:	a00b883a 	mov	r5,r20
 4008b24:	a809883a 	mov	r4,r21
 4008b28:	4007d3c0 	call	4007d3c <__ssprint_r>
 4008b2c:	103e0126 	beq	r2,zero,4008334 <___svfiprintf_internal_r+0x434>
 4008b30:	003e0606 	br	400834c <___svfiprintf_internal_r+0x44c>
 4008b34:	8819883a 	mov	r12,r17
 4008b38:	003ef206 	br	4008704 <___svfiprintf_internal_r+0x804>
 4008b3c:	902f883a 	mov	r23,r18
 4008b40:	9809883a 	mov	r4,r19
 4008b44:	b00b883a 	mov	r5,r22
 4008b48:	01800284 	movi	r6,10
 4008b4c:	000f883a 	mov	r7,zero
 4008b50:	db400615 	stw	r13,24(sp)
 4008b54:	da000515 	stw	r8,20(sp)
 4008b58:	dac00215 	stw	r11,8(sp)
 4008b5c:	db000115 	stw	r12,4(sp)
 4008b60:	400d9f80 	call	400d9f8 <__umoddi3>
 4008b64:	10800c04 	addi	r2,r2,48
 4008b68:	9809883a 	mov	r4,r19
 4008b6c:	b00b883a 	mov	r5,r22
 4008b70:	b8bfffc5 	stb	r2,-1(r23)
 4008b74:	01800284 	movi	r6,10
 4008b78:	000f883a 	mov	r7,zero
 4008b7c:	400d3d80 	call	400d3d8 <__udivdi3>
 4008b80:	b009883a 	mov	r4,r22
 4008b84:	980b883a 	mov	r5,r19
 4008b88:	db000117 	ldw	r12,4(sp)
 4008b8c:	dac00217 	ldw	r11,8(sp)
 4008b90:	da000517 	ldw	r8,20(sp)
 4008b94:	db400617 	ldw	r13,24(sp)
 4008b98:	bdffffc4 	addi	r23,r23,-1
 4008b9c:	1027883a 	mov	r19,r2
 4008ba0:	182d883a 	mov	r22,r3
 4008ba4:	203fe61e 	bne	r4,zero,4008b40 <___svfiprintf_internal_r+0xc40>
 4008ba8:	294002a8 	cmpgeui	r5,r5,10
 4008bac:	283fe41e 	bne	r5,zero,4008b40 <___svfiprintf_internal_r+0xc40>
 4008bb0:	003f6c06 	br	4008964 <___svfiprintf_internal_r+0xa64>
 4008bb4:	01c10074 	movhi	r7,1025
 4008bb8:	19400450 	cmplti	r5,r3,17
 4008bbc:	39c91304 	addi	r7,r7,9292
 4008bc0:	03800404 	movi	r14,16
 4008bc4:	28000526 	beq	r5,zero,4008bdc <___svfiprintf_internal_r+0xcdc>
 4008bc8:	00002206 	br	4008c54 <___svfiprintf_internal_r+0xd54>
 4008bcc:	18fffc04 	addi	r3,r3,-16
 4008bd0:	19400448 	cmpgei	r5,r3,17
 4008bd4:	42000204 	addi	r8,r8,8
 4008bd8:	28001e26 	beq	r5,zero,4008c54 <___svfiprintf_internal_r+0xd54>
 4008bdc:	21000044 	addi	r4,r4,1
 4008be0:	10800404 	addi	r2,r2,16
 4008be4:	41c00015 	stw	r7,0(r8)
 4008be8:	43800115 	stw	r14,4(r8)
 4008bec:	d8800b15 	stw	r2,44(sp)
 4008bf0:	d9000a15 	stw	r4,40(sp)
 4008bf4:	21400208 	cmpgei	r5,r4,8
 4008bf8:	283ff426 	beq	r5,zero,4008bcc <___svfiprintf_internal_r+0xccc>
 4008bfc:	d9800904 	addi	r6,sp,36
 4008c00:	a00b883a 	mov	r5,r20
 4008c04:	a809883a 	mov	r4,r21
 4008c08:	d9c00715 	stw	r7,28(sp)
 4008c0c:	d8c00615 	stw	r3,24(sp)
 4008c10:	dac00515 	stw	r11,20(sp)
 4008c14:	db000215 	stw	r12,8(sp)
 4008c18:	db400115 	stw	r13,4(sp)
 4008c1c:	4007d3c0 	call	4007d3c <__ssprint_r>
 4008c20:	103dca1e 	bne	r2,zero,400834c <___svfiprintf_internal_r+0x44c>
 4008c24:	d8c00617 	ldw	r3,24(sp)
 4008c28:	d8800b17 	ldw	r2,44(sp)
 4008c2c:	d9000a17 	ldw	r4,40(sp)
 4008c30:	18fffc04 	addi	r3,r3,-16
 4008c34:	19400448 	cmpgei	r5,r3,17
 4008c38:	d9c00717 	ldw	r7,28(sp)
 4008c3c:	dac00517 	ldw	r11,20(sp)
 4008c40:	db000217 	ldw	r12,8(sp)
 4008c44:	db400117 	ldw	r13,4(sp)
 4008c48:	9011883a 	mov	r8,r18
 4008c4c:	03800404 	movi	r14,16
 4008c50:	283fe21e 	bne	r5,zero,4008bdc <___svfiprintf_internal_r+0xcdc>
 4008c54:	21000044 	addi	r4,r4,1
 4008c58:	10c5883a 	add	r2,r2,r3
 4008c5c:	40c00115 	stw	r3,4(r8)
 4008c60:	41c00015 	stw	r7,0(r8)
 4008c64:	d8800b15 	stw	r2,44(sp)
 4008c68:	d9000a15 	stw	r4,40(sp)
 4008c6c:	20c00208 	cmpgei	r3,r4,8
 4008c70:	1800691e 	bne	r3,zero,4008e18 <___svfiprintf_internal_r+0xf18>
 4008c74:	42000204 	addi	r8,r8,8
 4008c78:	003d7806 	br	400825c <___svfiprintf_internal_r+0x35c>
 4008c7c:	d9800904 	addi	r6,sp,36
 4008c80:	a00b883a 	mov	r5,r20
 4008c84:	a809883a 	mov	r4,r21
 4008c88:	dac00515 	stw	r11,20(sp)
 4008c8c:	db000215 	stw	r12,8(sp)
 4008c90:	db400115 	stw	r13,4(sp)
 4008c94:	4007d3c0 	call	4007d3c <__ssprint_r>
 4008c98:	103dac1e 	bne	r2,zero,400834c <___svfiprintf_internal_r+0x44c>
 4008c9c:	d9000a17 	ldw	r4,40(sp)
 4008ca0:	d8800b17 	ldw	r2,44(sp)
 4008ca4:	dac00517 	ldw	r11,20(sp)
 4008ca8:	db000217 	ldw	r12,8(sp)
 4008cac:	db400117 	ldw	r13,4(sp)
 4008cb0:	d9401804 	addi	r5,sp,96
 4008cb4:	21800044 	addi	r6,r4,1
 4008cb8:	9011883a 	mov	r8,r18
 4008cbc:	003d7a06 	br	40082a8 <___svfiprintf_internal_r+0x3a8>
 4008cc0:	d9800904 	addi	r6,sp,36
 4008cc4:	a00b883a 	mov	r5,r20
 4008cc8:	a809883a 	mov	r4,r21
 4008ccc:	dac00215 	stw	r11,8(sp)
 4008cd0:	db000115 	stw	r12,4(sp)
 4008cd4:	4007d3c0 	call	4007d3c <__ssprint_r>
 4008cd8:	103d9c1e 	bne	r2,zero,400834c <___svfiprintf_internal_r+0x44c>
 4008cdc:	d9000a17 	ldw	r4,40(sp)
 4008ce0:	d8800b17 	ldw	r2,44(sp)
 4008ce4:	dac00217 	ldw	r11,8(sp)
 4008ce8:	db000117 	ldw	r12,4(sp)
 4008cec:	d9401804 	addi	r5,sp,96
 4008cf0:	21800044 	addi	r6,r4,1
 4008cf4:	9011883a 	mov	r8,r18
 4008cf8:	003d7906 	br	40082e0 <___svfiprintf_internal_r+0x3e0>
 4008cfc:	5800971e 	bne	r11,zero,4008f5c <___svfiprintf_internal_r+0x105c>
 4008d00:	0017883a 	mov	r11,zero
 4008d04:	002d883a 	mov	r22,zero
 4008d08:	902f883a 	mov	r23,r18
 4008d0c:	003d4206 	br	4008218 <___svfiprintf_internal_r+0x318>
 4008d10:	d9800904 	addi	r6,sp,36
 4008d14:	a00b883a 	mov	r5,r20
 4008d18:	a809883a 	mov	r4,r21
 4008d1c:	4007d3c0 	call	4007d3c <__ssprint_r>
 4008d20:	103d8a1e 	bne	r2,zero,400834c <___svfiprintf_internal_r+0x44c>
 4008d24:	d9800a17 	ldw	r6,40(sp)
 4008d28:	d8800b17 	ldw	r2,44(sp)
 4008d2c:	d9401804 	addi	r5,sp,96
 4008d30:	31800044 	addi	r6,r6,1
 4008d34:	9011883a 	mov	r8,r18
 4008d38:	003d6d06 	br	40082f0 <___svfiprintf_internal_r+0x3f0>
 4008d3c:	902f883a 	mov	r23,r18
 4008d40:	003d3506 	br	4008218 <___svfiprintf_internal_r+0x318>
 4008d44:	d9000017 	ldw	r4,0(sp)
 4008d48:	ddc00315 	stw	r23,12(sp)
 4008d4c:	2005d7fa 	srai	r2,r4,31
 4008d50:	19000015 	stw	r4,0(r3)
 4008d54:	18800115 	stw	r2,4(r3)
 4008d58:	003c8406 	br	4007f6c <___svfiprintf_internal_r+0x6c>
 4008d5c:	24c00017 	ldw	r19,0(r4)
 4008d60:	002d883a 	mov	r22,zero
 4008d64:	d8c00315 	stw	r3,12(sp)
 4008d68:	00800044 	movi	r2,1
 4008d6c:	003d1b06 	br	40081dc <___svfiprintf_internal_r+0x2dc>
 4008d70:	00c00c04 	movi	r3,48
 4008d74:	d88008c5 	stb	r2,35(sp)
 4008d78:	d8c00885 	stb	r3,34(sp)
 4008d7c:	63000094 	ori	r12,r12,2
 4008d80:	00800084 	movi	r2,2
 4008d84:	003d1506 	br	40081dc <___svfiprintf_internal_r+0x2dc>
 4008d88:	24c00017 	ldw	r19,0(r4)
 4008d8c:	d8c00315 	stw	r3,12(sp)
 4008d90:	982dd7fa 	srai	r22,r19,31
 4008d94:	b005883a 	mov	r2,r22
 4008d98:	003df006 	br	400855c <___svfiprintf_internal_r+0x65c>
 4008d9c:	24c00017 	ldw	r19,0(r4)
 4008da0:	002d883a 	mov	r22,zero
 4008da4:	d8c00315 	stw	r3,12(sp)
 4008da8:	0005883a 	mov	r2,zero
 4008dac:	003d0b06 	br	40081dc <___svfiprintf_internal_r+0x2dc>
 4008db0:	2cc00017 	ldw	r19,0(r5)
 4008db4:	002d883a 	mov	r22,zero
 4008db8:	d9000315 	stw	r4,12(sp)
 4008dbc:	003e0806 	br	40085e0 <___svfiprintf_internal_r+0x6e0>
 4008dc0:	b809883a 	mov	r4,r23
 4008dc4:	da000215 	stw	r8,8(sp)
 4008dc8:	db000115 	stw	r12,4(sp)
 4008dcc:	4007ca40 	call	4007ca4 <strlen>
 4008dd0:	db000117 	ldw	r12,4(sp)
 4008dd4:	da000217 	ldw	r8,8(sp)
 4008dd8:	102d883a 	mov	r22,r2
 4008ddc:	1027883a 	mov	r19,r2
 4008de0:	dc400315 	stw	r17,12(sp)
 4008de4:	003cf106 	br	40081ac <___svfiprintf_internal_r+0x2ac>
 4008de8:	01401004 	movi	r5,64
 4008dec:	40060ac0 	call	40060ac <_malloc_r>
 4008df0:	a0800015 	stw	r2,0(r20)
 4008df4:	a0800415 	stw	r2,16(r20)
 4008df8:	10007c26 	beq	r2,zero,4008fec <___svfiprintf_internal_r+0x10ec>
 4008dfc:	00801004 	movi	r2,64
 4008e00:	a0800515 	stw	r2,20(r20)
 4008e04:	003c5206 	br	4007f50 <___svfiprintf_internal_r+0x50>
 4008e08:	d8800017 	ldw	r2,0(sp)
 4008e0c:	18800015 	stw	r2,0(r3)
 4008e10:	ddc00315 	stw	r23,12(sp)
 4008e14:	003c5506 	br	4007f6c <___svfiprintf_internal_r+0x6c>
 4008e18:	d9800904 	addi	r6,sp,36
 4008e1c:	a00b883a 	mov	r5,r20
 4008e20:	a809883a 	mov	r4,r21
 4008e24:	dac00515 	stw	r11,20(sp)
 4008e28:	db000215 	stw	r12,8(sp)
 4008e2c:	db400115 	stw	r13,4(sp)
 4008e30:	4007d3c0 	call	4007d3c <__ssprint_r>
 4008e34:	103d451e 	bne	r2,zero,400834c <___svfiprintf_internal_r+0x44c>
 4008e38:	d8800b17 	ldw	r2,44(sp)
 4008e3c:	d9000a17 	ldw	r4,40(sp)
 4008e40:	dac00517 	ldw	r11,20(sp)
 4008e44:	db000217 	ldw	r12,8(sp)
 4008e48:	db400117 	ldw	r13,4(sp)
 4008e4c:	9011883a 	mov	r8,r18
 4008e50:	003d0206 	br	400825c <___svfiprintf_internal_r+0x35c>
 4008e54:	0421c83a 	sub	r16,zero,r16
 4008e58:	ddc00315 	stw	r23,12(sp)
 4008e5c:	003e5e06 	br	40087d8 <___svfiprintf_internal_r+0x8d8>
 4008e60:	d9800904 	addi	r6,sp,36
 4008e64:	a00b883a 	mov	r5,r20
 4008e68:	a809883a 	mov	r4,r21
 4008e6c:	dac00115 	stw	r11,4(sp)
 4008e70:	4007d3c0 	call	4007d3c <__ssprint_r>
 4008e74:	103d351e 	bne	r2,zero,400834c <___svfiprintf_internal_r+0x44c>
 4008e78:	d9000a17 	ldw	r4,40(sp)
 4008e7c:	d8800b17 	ldw	r2,44(sp)
 4008e80:	dac00117 	ldw	r11,4(sp)
 4008e84:	d9401804 	addi	r5,sp,96
 4008e88:	21800044 	addi	r6,r4,1
 4008e8c:	9011883a 	mov	r8,r18
 4008e90:	003d1506 	br	40082e8 <___svfiprintf_internal_r+0x3e8>
 4008e94:	e0800043 	ldbu	r2,1(fp)
 4008e98:	63000814 	ori	r12,r12,32
 4008e9c:	e7000044 	addi	fp,fp,1
 4008ea0:	10803fcc 	andi	r2,r2,255
 4008ea4:	1080201c 	xori	r2,r2,128
 4008ea8:	10bfe004 	addi	r2,r2,-128
 4008eac:	003c4706 	br	4007fcc <___svfiprintf_internal_r+0xcc>
 4008eb0:	588001f0 	cmpltui	r2,r11,7
 4008eb4:	582d883a 	mov	r22,r11
 4008eb8:	1000011e 	bne	r2,zero,4008ec0 <___svfiprintf_internal_r+0xfc0>
 4008ebc:	05800184 	movi	r22,6
 4008ec0:	05c10074 	movhi	r23,1025
 4008ec4:	b027883a 	mov	r19,r22
 4008ec8:	dc400315 	stw	r17,12(sp)
 4008ecc:	bdc89204 	addi	r23,r23,8776
 4008ed0:	003cb606 	br	40081ac <___svfiprintf_internal_r+0x2ac>
 4008ed4:	d8800317 	ldw	r2,12(sp)
 4008ed8:	d8c00315 	stw	r3,12(sp)
 4008edc:	14c00017 	ldw	r19,0(r2)
 4008ee0:	982dd7fa 	srai	r22,r19,31
 4008ee4:	b005883a 	mov	r2,r22
 4008ee8:	003d9c06 	br	400855c <___svfiprintf_internal_r+0x65c>
 4008eec:	d8800317 	ldw	r2,12(sp)
 4008ef0:	002d883a 	mov	r22,zero
 4008ef4:	d8c00315 	stw	r3,12(sp)
 4008ef8:	14c00017 	ldw	r19,0(r2)
 4008efc:	00800044 	movi	r2,1
 4008f00:	003cb606 	br	40081dc <___svfiprintf_internal_r+0x2dc>
 4008f04:	d8800317 	ldw	r2,12(sp)
 4008f08:	002d883a 	mov	r22,zero
 4008f0c:	d8c00315 	stw	r3,12(sp)
 4008f10:	14c00017 	ldw	r19,0(r2)
 4008f14:	0005883a 	mov	r2,zero
 4008f18:	003cb006 	br	40081dc <___svfiprintf_internal_r+0x2dc>
 4008f1c:	d8c00317 	ldw	r3,12(sp)
 4008f20:	002d883a 	mov	r22,zero
 4008f24:	d9000315 	stw	r4,12(sp)
 4008f28:	1cc00017 	ldw	r19,0(r3)
 4008f2c:	003dac06 	br	40085e0 <___svfiprintf_internal_r+0x6e0>
 4008f30:	01c10074 	movhi	r7,1025
 4008f34:	2809883a 	mov	r4,r5
 4008f38:	39c90f04 	addi	r7,r7,9276
 4008f3c:	003ee406 	br	4008ad0 <___svfiprintf_internal_r+0xbd0>
 4008f40:	d9800845 	stb	r6,33(sp)
 4008f44:	003c9306 	br	4008194 <___svfiprintf_internal_r+0x294>
 4008f48:	d9800904 	addi	r6,sp,36
 4008f4c:	a00b883a 	mov	r5,r20
 4008f50:	a809883a 	mov	r4,r21
 4008f54:	4007d3c0 	call	4007d3c <__ssprint_r>
 4008f58:	003cfc06 	br	400834c <___svfiprintf_internal_r+0x44c>
 4008f5c:	8819883a 	mov	r12,r17
 4008f60:	003d8a06 	br	400858c <___svfiprintf_internal_r+0x68c>
 4008f64:	5827883a 	mov	r19,r11
 4008f68:	dc400315 	stw	r17,12(sp)
 4008f6c:	582d883a 	mov	r22,r11
 4008f70:	003c8e06 	br	40081ac <___svfiprintf_internal_r+0x2ac>
 4008f74:	d9800845 	stb	r6,33(sp)
 4008f78:	003d7006 	br	400853c <___svfiprintf_internal_r+0x63c>
 4008f7c:	d9800845 	stb	r6,33(sp)
 4008f80:	003d8d06 	br	40085b8 <___svfiprintf_internal_r+0x6b8>
 4008f84:	d9800845 	stb	r6,33(sp)
 4008f88:	003e5206 	br	40088d4 <___svfiprintf_internal_r+0x9d4>
 4008f8c:	d9800845 	stb	r6,33(sp)
 4008f90:	003dc306 	br	40086a0 <___svfiprintf_internal_r+0x7a0>
 4008f94:	d9800845 	stb	r6,33(sp)
 4008f98:	003e3c06 	br	400888c <___svfiprintf_internal_r+0x98c>
 4008f9c:	01c10074 	movhi	r7,1025
 4008fa0:	2819883a 	mov	r12,r5
 4008fa4:	3009883a 	mov	r4,r6
 4008fa8:	39c90f04 	addi	r7,r7,9276
 4008fac:	003e9806 	br	4008a10 <___svfiprintf_internal_r+0xb10>
 4008fb0:	00bfffc4 	movi	r2,-1
 4008fb4:	d8800015 	stw	r2,0(sp)
 4008fb8:	003ce706 	br	4008358 <___svfiprintf_internal_r+0x458>
 4008fbc:	d8800317 	ldw	r2,12(sp)
 4008fc0:	12c00017 	ldw	r11,0(r2)
 4008fc4:	15c00104 	addi	r23,r2,4
 4008fc8:	5800010e 	bge	r11,zero,4008fd0 <___svfiprintf_internal_r+0x10d0>
 4008fcc:	02ffffc4 	movi	r11,-1
 4008fd0:	e0800043 	ldbu	r2,1(fp)
 4008fd4:	ddc00315 	stw	r23,12(sp)
 4008fd8:	1839883a 	mov	fp,r3
 4008fdc:	10803fcc 	andi	r2,r2,255
 4008fe0:	1080201c 	xori	r2,r2,128
 4008fe4:	10bfe004 	addi	r2,r2,-128
 4008fe8:	003bf806 	br	4007fcc <___svfiprintf_internal_r+0xcc>
 4008fec:	00800304 	movi	r2,12
 4008ff0:	a8800015 	stw	r2,0(r21)
 4008ff4:	00bfffc4 	movi	r2,-1
 4008ff8:	d8800015 	stw	r2,0(sp)
 4008ffc:	003cd606 	br	4008358 <___svfiprintf_internal_r+0x458>

04009000 <__assert_func>:
 4009000:	00810074 	movhi	r2,1025
 4009004:	120cad17 	ldw	r8,12980(r2)
 4009008:	defffc04 	addi	sp,sp,-16
 400900c:	3807883a 	mov	r3,r7
 4009010:	3005883a 	mov	r2,r6
 4009014:	dfc00315 	stw	ra,12(sp)
 4009018:	42400317 	ldw	r9,12(r8)
 400901c:	200f883a 	mov	r7,r4
 4009020:	2811883a 	mov	r8,r5
 4009024:	180d883a 	mov	r6,r3
 4009028:	10000a26 	beq	r2,zero,4009054 <__assert_func+0x54>
 400902c:	00c10074 	movhi	r3,1025
 4009030:	18c91704 	addi	r3,r3,9308
 4009034:	01410074 	movhi	r5,1025
 4009038:	29491b04 	addi	r5,r5,9324
 400903c:	4809883a 	mov	r4,r9
 4009040:	d8c00115 	stw	r3,4(sp)
 4009044:	da000015 	stw	r8,0(sp)
 4009048:	d8800215 	stw	r2,8(sp)
 400904c:	400915c0 	call	400915c <fiprintf>
 4009050:	4009f680 	call	4009f68 <abort>
 4009054:	00c10074 	movhi	r3,1025
 4009058:	18c91a04 	addi	r3,r3,9320
 400905c:	1805883a 	mov	r2,r3
 4009060:	003ff406 	br	4009034 <__assert_func+0x34>

04009064 <__assert>:
 4009064:	deffff04 	addi	sp,sp,-4
 4009068:	300f883a 	mov	r7,r6
 400906c:	000d883a 	mov	r6,zero
 4009070:	dfc00015 	stw	ra,0(sp)
 4009074:	40090000 	call	4009000 <__assert_func>

04009078 <_calloc_r>:
 4009078:	defffe04 	addi	sp,sp,-8
 400907c:	dc000015 	stw	r16,0(sp)
 4009080:	2021883a 	mov	r16,r4
 4009084:	2809883a 	mov	r4,r5
 4009088:	300b883a 	mov	r5,r6
 400908c:	dfc00115 	stw	ra,4(sp)
 4009090:	4001e240 	call	4001e24 <__mulsi3>
 4009094:	8009883a 	mov	r4,r16
 4009098:	100b883a 	mov	r5,r2
 400909c:	40060ac0 	call	40060ac <_malloc_r>
 40090a0:	1009883a 	mov	r4,r2
 40090a4:	10000c26 	beq	r2,zero,40090d8 <_calloc_r+0x60>
 40090a8:	11bfff17 	ldw	r6,-4(r2)
 40090ac:	00bfff04 	movi	r2,-4
 40090b0:	308c703a 	and	r6,r6,r2
 40090b4:	31bfff04 	addi	r6,r6,-4
 40090b8:	30800968 	cmpgeui	r2,r6,37
 40090bc:	1000151e 	bne	r2,zero,4009114 <_calloc_r+0x9c>
 40090c0:	30800530 	cmpltui	r2,r6,20
 40090c4:	10000926 	beq	r2,zero,40090ec <_calloc_r+0x74>
 40090c8:	2005883a 	mov	r2,r4
 40090cc:	10000015 	stw	zero,0(r2)
 40090d0:	10000115 	stw	zero,4(r2)
 40090d4:	10000215 	stw	zero,8(r2)
 40090d8:	2005883a 	mov	r2,r4
 40090dc:	dfc00117 	ldw	ra,4(sp)
 40090e0:	dc000017 	ldw	r16,0(sp)
 40090e4:	dec00204 	addi	sp,sp,8
 40090e8:	f800283a 	ret
 40090ec:	20000015 	stw	zero,0(r4)
 40090f0:	20000115 	stw	zero,4(r4)
 40090f4:	30800728 	cmpgeui	r2,r6,28
 40090f8:	10000a26 	beq	r2,zero,4009124 <_calloc_r+0xac>
 40090fc:	20000215 	stw	zero,8(r4)
 4009100:	20000315 	stw	zero,12(r4)
 4009104:	31800920 	cmpeqi	r6,r6,36
 4009108:	3000081e 	bne	r6,zero,400912c <_calloc_r+0xb4>
 400910c:	20800404 	addi	r2,r4,16
 4009110:	003fee06 	br	40090cc <_calloc_r+0x54>
 4009114:	000b883a 	mov	r5,zero
 4009118:	400981c0 	call	400981c <memset>
 400911c:	1009883a 	mov	r4,r2
 4009120:	003fed06 	br	40090d8 <_calloc_r+0x60>
 4009124:	20800204 	addi	r2,r4,8
 4009128:	003fe806 	br	40090cc <_calloc_r+0x54>
 400912c:	20000415 	stw	zero,16(r4)
 4009130:	20800604 	addi	r2,r4,24
 4009134:	20000515 	stw	zero,20(r4)
 4009138:	003fe406 	br	40090cc <_calloc_r+0x54>

0400913c <_fiprintf_r>:
 400913c:	defffe04 	addi	sp,sp,-8
 4009140:	dfc00015 	stw	ra,0(sp)
 4009144:	d9c00115 	stw	r7,4(sp)
 4009148:	d9c00104 	addi	r7,sp,4
 400914c:	4009f280 	call	4009f28 <_vfiprintf_r>
 4009150:	dfc00017 	ldw	ra,0(sp)
 4009154:	dec00204 	addi	sp,sp,8
 4009158:	f800283a 	ret

0400915c <fiprintf>:
 400915c:	defffd04 	addi	sp,sp,-12
 4009160:	2005883a 	mov	r2,r4
 4009164:	dfc00015 	stw	ra,0(sp)
 4009168:	d9800115 	stw	r6,4(sp)
 400916c:	d9c00215 	stw	r7,8(sp)
 4009170:	00c10074 	movhi	r3,1025
 4009174:	190cad17 	ldw	r4,12980(r3)
 4009178:	280d883a 	mov	r6,r5
 400917c:	d9c00104 	addi	r7,sp,4
 4009180:	100b883a 	mov	r5,r2
 4009184:	4009f280 	call	4009f28 <_vfiprintf_r>
 4009188:	dfc00017 	ldw	ra,0(sp)
 400918c:	dec00304 	addi	sp,sp,12
 4009190:	f800283a 	ret

04009194 <_malloc_trim_r>:
 4009194:	defffb04 	addi	sp,sp,-20
 4009198:	dcc00315 	stw	r19,12(sp)
 400919c:	04c10074 	movhi	r19,1025
 40091a0:	dc800215 	stw	r18,8(sp)
 40091a4:	dc400115 	stw	r17,4(sp)
 40091a8:	dc000015 	stw	r16,0(sp)
 40091ac:	dfc00415 	stw	ra,16(sp)
 40091b0:	2821883a 	mov	r16,r5
 40091b4:	9ccae304 	addi	r19,r19,11148
 40091b8:	2025883a 	mov	r18,r4
 40091bc:	40110ac0 	call	40110ac <__malloc_lock>
 40091c0:	98800217 	ldw	r2,8(r19)
 40091c4:	14400117 	ldw	r17,4(r2)
 40091c8:	00bfff04 	movi	r2,-4
 40091cc:	88a2703a 	and	r17,r17,r2
 40091d0:	8c21c83a 	sub	r16,r17,r16
 40091d4:	8403fbc4 	addi	r16,r16,4079
 40091d8:	8020d33a 	srli	r16,r16,12
 40091dc:	843fffc4 	addi	r16,r16,-1
 40091e0:	8020933a 	slli	r16,r16,12
 40091e4:	80840008 	cmpgei	r2,r16,4096
 40091e8:	10000626 	beq	r2,zero,4009204 <_malloc_trim_r+0x70>
 40091ec:	000b883a 	mov	r5,zero
 40091f0:	9009883a 	mov	r4,r18
 40091f4:	4007c4c0 	call	4007c4c <_sbrk_r>
 40091f8:	98c00217 	ldw	r3,8(r19)
 40091fc:	1c47883a 	add	r3,r3,r17
 4009200:	10c00a26 	beq	r2,r3,400922c <_malloc_trim_r+0x98>
 4009204:	9009883a 	mov	r4,r18
 4009208:	40110d00 	call	40110d0 <__malloc_unlock>
 400920c:	0005883a 	mov	r2,zero
 4009210:	dfc00417 	ldw	ra,16(sp)
 4009214:	dcc00317 	ldw	r19,12(sp)
 4009218:	dc800217 	ldw	r18,8(sp)
 400921c:	dc400117 	ldw	r17,4(sp)
 4009220:	dc000017 	ldw	r16,0(sp)
 4009224:	dec00504 	addi	sp,sp,20
 4009228:	f800283a 	ret
 400922c:	040bc83a 	sub	r5,zero,r16
 4009230:	9009883a 	mov	r4,r18
 4009234:	4007c4c0 	call	4007c4c <_sbrk_r>
 4009238:	10bfffd8 	cmpnei	r2,r2,-1
 400923c:	10000d26 	beq	r2,zero,4009274 <_malloc_trim_r+0xe0>
 4009240:	00810074 	movhi	r2,1025
 4009244:	1090b917 	ldw	r2,17124(r2)
 4009248:	98c00217 	ldw	r3,8(r19)
 400924c:	8c23c83a 	sub	r17,r17,r16
 4009250:	8c400054 	ori	r17,r17,1
 4009254:	1421c83a 	sub	r16,r2,r16
 4009258:	1c400115 	stw	r17,4(r3)
 400925c:	00810074 	movhi	r2,1025
 4009260:	9009883a 	mov	r4,r18
 4009264:	1410b915 	stw	r16,17124(r2)
 4009268:	40110d00 	call	40110d0 <__malloc_unlock>
 400926c:	00800044 	movi	r2,1
 4009270:	003fe706 	br	4009210 <_malloc_trim_r+0x7c>
 4009274:	000b883a 	mov	r5,zero
 4009278:	9009883a 	mov	r4,r18
 400927c:	4007c4c0 	call	4007c4c <_sbrk_r>
 4009280:	99000217 	ldw	r4,8(r19)
 4009284:	1107c83a 	sub	r3,r2,r4
 4009288:	19400410 	cmplti	r5,r3,16
 400928c:	283fdd1e 	bne	r5,zero,4009204 <_malloc_trim_r+0x70>
 4009290:	01410074 	movhi	r5,1025
 4009294:	294cae17 	ldw	r5,12984(r5)
 4009298:	18c00054 	ori	r3,r3,1
 400929c:	20c00115 	stw	r3,4(r4)
 40092a0:	1145c83a 	sub	r2,r2,r5
 40092a4:	01410074 	movhi	r5,1025
 40092a8:	2890b915 	stw	r2,17124(r5)
 40092ac:	003fd506 	br	4009204 <_malloc_trim_r+0x70>

040092b0 <_free_r>:
 40092b0:	28004f26 	beq	r5,zero,40093f0 <_free_r+0x140>
 40092b4:	defffd04 	addi	sp,sp,-12
 40092b8:	dc400115 	stw	r17,4(sp)
 40092bc:	dc000015 	stw	r16,0(sp)
 40092c0:	2023883a 	mov	r17,r4
 40092c4:	2821883a 	mov	r16,r5
 40092c8:	dfc00215 	stw	ra,8(sp)
 40092cc:	40110ac0 	call	40110ac <__malloc_lock>
 40092d0:	81ffff17 	ldw	r7,-4(r16)
 40092d4:	00bfff84 	movi	r2,-2
 40092d8:	80fffe04 	addi	r3,r16,-8
 40092dc:	3884703a 	and	r2,r7,r2
 40092e0:	01010074 	movhi	r4,1025
 40092e4:	188d883a 	add	r6,r3,r2
 40092e8:	210ae304 	addi	r4,r4,11148
 40092ec:	31400117 	ldw	r5,4(r6)
 40092f0:	22000217 	ldw	r8,8(r4)
 40092f4:	027fff04 	movi	r9,-4
 40092f8:	2a4a703a 	and	r5,r5,r9
 40092fc:	41806426 	beq	r8,r6,4009490 <_free_r+0x1e0>
 4009300:	31400115 	stw	r5,4(r6)
 4009304:	39c0004c 	andi	r7,r7,1
 4009308:	3151883a 	add	r8,r6,r5
 400930c:	3800281e 	bne	r7,zero,40093b0 <_free_r+0x100>
 4009310:	82bffe17 	ldw	r10,-8(r16)
 4009314:	42000117 	ldw	r8,4(r8)
 4009318:	01c10074 	movhi	r7,1025
 400931c:	1a87c83a 	sub	r3,r3,r10
 4009320:	1a400217 	ldw	r9,8(r3)
 4009324:	39cae504 	addi	r7,r7,11156
 4009328:	1285883a 	add	r2,r2,r10
 400932c:	4200004c 	andi	r8,r8,1
 4009330:	49c04c26 	beq	r9,r7,4009464 <_free_r+0x1b4>
 4009334:	1a800317 	ldw	r10,12(r3)
 4009338:	4a800315 	stw	r10,12(r9)
 400933c:	52400215 	stw	r9,8(r10)
 4009340:	40007126 	beq	r8,zero,4009508 <_free_r+0x258>
 4009344:	11400054 	ori	r5,r2,1
 4009348:	19400115 	stw	r5,4(r3)
 400934c:	30800015 	stw	r2,0(r6)
 4009350:	11408028 	cmpgeui	r5,r2,512
 4009354:	28002c1e 	bne	r5,zero,4009408 <_free_r+0x158>
 4009358:	100ad0fa 	srli	r5,r2,3
 400935c:	100cd17a 	srli	r6,r2,5
 4009360:	00800044 	movi	r2,1
 4009364:	29400044 	addi	r5,r5,1
 4009368:	280a90fa 	slli	r5,r5,3
 400936c:	21c00117 	ldw	r7,4(r4)
 4009370:	1184983a 	sll	r2,r2,r6
 4009374:	214b883a 	add	r5,r4,r5
 4009378:	29800017 	ldw	r6,0(r5)
 400937c:	11c4b03a 	or	r2,r2,r7
 4009380:	29fffe04 	addi	r7,r5,-8
 4009384:	19c00315 	stw	r7,12(r3)
 4009388:	19800215 	stw	r6,8(r3)
 400938c:	20800115 	stw	r2,4(r4)
 4009390:	28c00015 	stw	r3,0(r5)
 4009394:	30c00315 	stw	r3,12(r6)
 4009398:	8809883a 	mov	r4,r17
 400939c:	dfc00217 	ldw	ra,8(sp)
 40093a0:	dc400117 	ldw	r17,4(sp)
 40093a4:	dc000017 	ldw	r16,0(sp)
 40093a8:	dec00304 	addi	sp,sp,12
 40093ac:	40110d01 	jmpi	40110d0 <__malloc_unlock>
 40093b0:	41c00117 	ldw	r7,4(r8)
 40093b4:	39c0004c 	andi	r7,r7,1
 40093b8:	38000e1e 	bne	r7,zero,40093f4 <_free_r+0x144>
 40093bc:	01c10074 	movhi	r7,1025
 40093c0:	1145883a 	add	r2,r2,r5
 40093c4:	39cae504 	addi	r7,r7,11156
 40093c8:	31400217 	ldw	r5,8(r6)
 40093cc:	12400054 	ori	r9,r2,1
 40093d0:	1891883a 	add	r8,r3,r2
 40093d4:	29c05226 	beq	r5,r7,4009520 <_free_r+0x270>
 40093d8:	31800317 	ldw	r6,12(r6)
 40093dc:	29800315 	stw	r6,12(r5)
 40093e0:	31400215 	stw	r5,8(r6)
 40093e4:	1a400115 	stw	r9,4(r3)
 40093e8:	40800015 	stw	r2,0(r8)
 40093ec:	003fd806 	br	4009350 <_free_r+0xa0>
 40093f0:	f800283a 	ret
 40093f4:	11400054 	ori	r5,r2,1
 40093f8:	817fff15 	stw	r5,-4(r16)
 40093fc:	30800015 	stw	r2,0(r6)
 4009400:	11408028 	cmpgeui	r5,r2,512
 4009404:	283fd426 	beq	r5,zero,4009358 <_free_r+0xa8>
 4009408:	100ad27a 	srli	r5,r2,9
 400940c:	29800168 	cmpgeui	r6,r5,5
 4009410:	3000341e 	bne	r6,zero,40094e4 <_free_r+0x234>
 4009414:	100ad1ba 	srli	r5,r2,6
 4009418:	29800e44 	addi	r6,r5,57
 400941c:	300c90fa 	slli	r6,r6,3
 4009420:	29c00e04 	addi	r7,r5,56
 4009424:	218d883a 	add	r6,r4,r6
 4009428:	31400017 	ldw	r5,0(r6)
 400942c:	31bffe04 	addi	r6,r6,-8
 4009430:	31404226 	beq	r6,r5,400953c <_free_r+0x28c>
 4009434:	01ffff04 	movi	r7,-4
 4009438:	29000117 	ldw	r4,4(r5)
 400943c:	21c8703a 	and	r4,r4,r7
 4009440:	1100022e 	bgeu	r2,r4,400944c <_free_r+0x19c>
 4009444:	29400217 	ldw	r5,8(r5)
 4009448:	317ffb1e 	bne	r6,r5,4009438 <_free_r+0x188>
 400944c:	29800317 	ldw	r6,12(r5)
 4009450:	19800315 	stw	r6,12(r3)
 4009454:	19400215 	stw	r5,8(r3)
 4009458:	30c00215 	stw	r3,8(r6)
 400945c:	28c00315 	stw	r3,12(r5)
 4009460:	003fcd06 	br	4009398 <_free_r+0xe8>
 4009464:	40004d1e 	bne	r8,zero,400959c <_free_r+0x2ec>
 4009468:	31000317 	ldw	r4,12(r6)
 400946c:	31800217 	ldw	r6,8(r6)
 4009470:	2885883a 	add	r2,r5,r2
 4009474:	11400054 	ori	r5,r2,1
 4009478:	31000315 	stw	r4,12(r6)
 400947c:	21800215 	stw	r6,8(r4)
 4009480:	19400115 	stw	r5,4(r3)
 4009484:	1887883a 	add	r3,r3,r2
 4009488:	18800015 	stw	r2,0(r3)
 400948c:	003fc206 	br	4009398 <_free_r+0xe8>
 4009490:	39c0004c 	andi	r7,r7,1
 4009494:	1145883a 	add	r2,r2,r5
 4009498:	3800071e 	bne	r7,zero,40094b8 <_free_r+0x208>
 400949c:	81fffe17 	ldw	r7,-8(r16)
 40094a0:	19c7c83a 	sub	r3,r3,r7
 40094a4:	19400317 	ldw	r5,12(r3)
 40094a8:	19800217 	ldw	r6,8(r3)
 40094ac:	11c5883a 	add	r2,r2,r7
 40094b0:	31400315 	stw	r5,12(r6)
 40094b4:	29800215 	stw	r6,8(r5)
 40094b8:	01410074 	movhi	r5,1025
 40094bc:	11800054 	ori	r6,r2,1
 40094c0:	294caf17 	ldw	r5,12988(r5)
 40094c4:	19800115 	stw	r6,4(r3)
 40094c8:	20c00215 	stw	r3,8(r4)
 40094cc:	117fb236 	bltu	r2,r5,4009398 <_free_r+0xe8>
 40094d0:	00810074 	movhi	r2,1025
 40094d4:	114fa617 	ldw	r5,16024(r2)
 40094d8:	8809883a 	mov	r4,r17
 40094dc:	40091940 	call	4009194 <_malloc_trim_r>
 40094e0:	003fad06 	br	4009398 <_free_r+0xe8>
 40094e4:	29800568 	cmpgeui	r6,r5,21
 40094e8:	30000926 	beq	r6,zero,4009510 <_free_r+0x260>
 40094ec:	29801568 	cmpgeui	r6,r5,85
 40094f0:	3000191e 	bne	r6,zero,4009558 <_free_r+0x2a8>
 40094f4:	100ad33a 	srli	r5,r2,12
 40094f8:	29801bc4 	addi	r6,r5,111
 40094fc:	300c90fa 	slli	r6,r6,3
 4009500:	29c01b84 	addi	r7,r5,110
 4009504:	003fc706 	br	4009424 <_free_r+0x174>
 4009508:	1145883a 	add	r2,r2,r5
 400950c:	003fae06 	br	40093c8 <_free_r+0x118>
 4009510:	29801704 	addi	r6,r5,92
 4009514:	300c90fa 	slli	r6,r6,3
 4009518:	29c016c4 	addi	r7,r5,91
 400951c:	003fc106 	br	4009424 <_free_r+0x174>
 4009520:	20c00515 	stw	r3,20(r4)
 4009524:	20c00415 	stw	r3,16(r4)
 4009528:	19c00315 	stw	r7,12(r3)
 400952c:	19c00215 	stw	r7,8(r3)
 4009530:	1a400115 	stw	r9,4(r3)
 4009534:	40800015 	stw	r2,0(r8)
 4009538:	003f9706 	br	4009398 <_free_r+0xe8>
 400953c:	380fd0ba 	srai	r7,r7,2
 4009540:	00800044 	movi	r2,1
 4009544:	22000117 	ldw	r8,4(r4)
 4009548:	11ce983a 	sll	r7,r2,r7
 400954c:	3a0eb03a 	or	r7,r7,r8
 4009550:	21c00115 	stw	r7,4(r4)
 4009554:	003fbe06 	br	4009450 <_free_r+0x1a0>
 4009558:	29805568 	cmpgeui	r6,r5,341
 400955c:	3000051e 	bne	r6,zero,4009574 <_free_r+0x2c4>
 4009560:	100ad3fa 	srli	r5,r2,15
 4009564:	29801e04 	addi	r6,r5,120
 4009568:	300c90fa 	slli	r6,r6,3
 400956c:	29c01dc4 	addi	r7,r5,119
 4009570:	003fac06 	br	4009424 <_free_r+0x174>
 4009574:	29415568 	cmpgeui	r5,r5,1365
 4009578:	2800051e 	bne	r5,zero,4009590 <_free_r+0x2e0>
 400957c:	100ad4ba 	srli	r5,r2,18
 4009580:	29801f44 	addi	r6,r5,125
 4009584:	300c90fa 	slli	r6,r6,3
 4009588:	29c01f04 	addi	r7,r5,124
 400958c:	003fa506 	br	4009424 <_free_r+0x174>
 4009590:	0180fe04 	movi	r6,1016
 4009594:	01c01f84 	movi	r7,126
 4009598:	003fa206 	br	4009424 <_free_r+0x174>
 400959c:	11000054 	ori	r4,r2,1
 40095a0:	19000115 	stw	r4,4(r3)
 40095a4:	30800015 	stw	r2,0(r6)
 40095a8:	003f7b06 	br	4009398 <_free_r+0xe8>

040095ac <_setlocale_r>:
 40095ac:	30001626 	beq	r6,zero,4009608 <_setlocale_r+0x5c>
 40095b0:	01410074 	movhi	r5,1025
 40095b4:	defffe04 	addi	sp,sp,-8
 40095b8:	29492804 	addi	r5,r5,9376
 40095bc:	3009883a 	mov	r4,r6
 40095c0:	dc000015 	stw	r16,0(sp)
 40095c4:	dfc00115 	stw	ra,4(sp)
 40095c8:	3021883a 	mov	r16,r6
 40095cc:	4009e700 	call	4009e70 <strcmp>
 40095d0:	1000061e 	bne	r2,zero,40095ec <_setlocale_r+0x40>
 40095d4:	00810074 	movhi	r2,1025
 40095d8:	10892704 	addi	r2,r2,9372
 40095dc:	dfc00117 	ldw	ra,4(sp)
 40095e0:	dc000017 	ldw	r16,0(sp)
 40095e4:	dec00204 	addi	sp,sp,8
 40095e8:	f800283a 	ret
 40095ec:	80800003 	ldbu	r2,0(r16)
 40095f0:	10bfef44 	addi	r2,r2,-67
 40095f4:	10000726 	beq	r2,zero,4009614 <_setlocale_r+0x68>
 40095f8:	80800003 	ldbu	r2,0(r16)
 40095fc:	103ff526 	beq	r2,zero,40095d4 <_setlocale_r+0x28>
 4009600:	0005883a 	mov	r2,zero
 4009604:	003ff506 	br	40095dc <_setlocale_r+0x30>
 4009608:	00810074 	movhi	r2,1025
 400960c:	10892704 	addi	r2,r2,9372
 4009610:	f800283a 	ret
 4009614:	80800043 	ldbu	r2,1(r16)
 4009618:	103fee26 	beq	r2,zero,40095d4 <_setlocale_r+0x28>
 400961c:	003ff606 	br	40095f8 <_setlocale_r+0x4c>

04009620 <__locale_mb_cur_max>:
 4009620:	00810074 	movhi	r2,1025
 4009624:	108c2f07 	ldb	r2,12476(r2)
 4009628:	f800283a 	ret

0400962c <setlocale>:
 400962c:	28001626 	beq	r5,zero,4009688 <setlocale+0x5c>
 4009630:	defffe04 	addi	sp,sp,-8
 4009634:	dc000015 	stw	r16,0(sp)
 4009638:	2821883a 	mov	r16,r5
 400963c:	01410074 	movhi	r5,1025
 4009640:	29492804 	addi	r5,r5,9376
 4009644:	8009883a 	mov	r4,r16
 4009648:	dfc00115 	stw	ra,4(sp)
 400964c:	4009e700 	call	4009e70 <strcmp>
 4009650:	1000061e 	bne	r2,zero,400966c <setlocale+0x40>
 4009654:	00810074 	movhi	r2,1025
 4009658:	10892704 	addi	r2,r2,9372
 400965c:	dfc00117 	ldw	ra,4(sp)
 4009660:	dc000017 	ldw	r16,0(sp)
 4009664:	dec00204 	addi	sp,sp,8
 4009668:	f800283a 	ret
 400966c:	80800003 	ldbu	r2,0(r16)
 4009670:	10bfef44 	addi	r2,r2,-67
 4009674:	10000726 	beq	r2,zero,4009694 <setlocale+0x68>
 4009678:	80800003 	ldbu	r2,0(r16)
 400967c:	103ff526 	beq	r2,zero,4009654 <setlocale+0x28>
 4009680:	0005883a 	mov	r2,zero
 4009684:	003ff506 	br	400965c <setlocale+0x30>
 4009688:	00810074 	movhi	r2,1025
 400968c:	10892704 	addi	r2,r2,9372
 4009690:	f800283a 	ret
 4009694:	80800043 	ldbu	r2,1(r16)
 4009698:	103fee26 	beq	r2,zero,4009654 <setlocale+0x28>
 400969c:	003ff606 	br	4009678 <setlocale+0x4c>

040096a0 <_mbtowc_r>:
 40096a0:	00810074 	movhi	r2,1025
 40096a4:	108c1e17 	ldw	r2,12408(r2)
 40096a8:	1000683a 	jmp	r2

040096ac <__ascii_mbtowc>:
 40096ac:	deffff04 	addi	sp,sp,-4
 40096b0:	28000826 	beq	r5,zero,40096d4 <__ascii_mbtowc+0x28>
 40096b4:	30000926 	beq	r6,zero,40096dc <__ascii_mbtowc+0x30>
 40096b8:	38000b26 	beq	r7,zero,40096e8 <__ascii_mbtowc+0x3c>
 40096bc:	30800003 	ldbu	r2,0(r6)
 40096c0:	28800015 	stw	r2,0(r5)
 40096c4:	30800003 	ldbu	r2,0(r6)
 40096c8:	1004c03a 	cmpne	r2,r2,zero
 40096cc:	dec00104 	addi	sp,sp,4
 40096d0:	f800283a 	ret
 40096d4:	d80b883a 	mov	r5,sp
 40096d8:	303ff71e 	bne	r6,zero,40096b8 <__ascii_mbtowc+0xc>
 40096dc:	0005883a 	mov	r2,zero
 40096e0:	dec00104 	addi	sp,sp,4
 40096e4:	f800283a 	ret
 40096e8:	00bfff84 	movi	r2,-2
 40096ec:	003ff706 	br	40096cc <__ascii_mbtowc+0x20>

040096f0 <memmove>:
 40096f0:	2005883a 	mov	r2,r4
 40096f4:	29000a2e 	bgeu	r5,r4,4009720 <memmove+0x30>
 40096f8:	2989883a 	add	r4,r5,r6
 40096fc:	1100082e 	bgeu	r2,r4,4009720 <memmove+0x30>
 4009700:	1187883a 	add	r3,r2,r6
 4009704:	30003e26 	beq	r6,zero,4009800 <memmove+0x110>
 4009708:	217fffc3 	ldbu	r5,-1(r4)
 400970c:	18ffffc4 	addi	r3,r3,-1
 4009710:	213fffc4 	addi	r4,r4,-1
 4009714:	19400005 	stb	r5,0(r3)
 4009718:	10fffb1e 	bne	r2,r3,4009708 <memmove+0x18>
 400971c:	f800283a 	ret
 4009720:	30c00430 	cmpltui	r3,r6,16
 4009724:	18000b26 	beq	r3,zero,4009754 <memmove+0x64>
 4009728:	1007883a 	mov	r3,r2
 400972c:	31ffffc4 	addi	r7,r6,-1
 4009730:	30003726 	beq	r6,zero,4009810 <memmove+0x120>
 4009734:	39c00044 	addi	r7,r7,1
 4009738:	29cf883a 	add	r7,r5,r7
 400973c:	29800003 	ldbu	r6,0(r5)
 4009740:	29400044 	addi	r5,r5,1
 4009744:	18c00044 	addi	r3,r3,1
 4009748:	19bfffc5 	stb	r6,-1(r3)
 400974c:	29fffb1e 	bne	r5,r7,400973c <memmove+0x4c>
 4009750:	f800283a 	ret
 4009754:	2886b03a 	or	r3,r5,r2
 4009758:	18c000cc 	andi	r3,r3,3
 400975c:	1800291e 	bne	r3,zero,4009804 <memmove+0x114>
 4009760:	327ffc04 	addi	r9,r6,-16
 4009764:	4812d13a 	srli	r9,r9,4
 4009768:	280f883a 	mov	r7,r5
 400976c:	1007883a 	mov	r3,r2
 4009770:	4a400044 	addi	r9,r9,1
 4009774:	4812913a 	slli	r9,r9,4
 4009778:	1251883a 	add	r8,r2,r9
 400977c:	39000017 	ldw	r4,0(r7)
 4009780:	39c00404 	addi	r7,r7,16
 4009784:	18c00404 	addi	r3,r3,16
 4009788:	193ffc15 	stw	r4,-16(r3)
 400978c:	393ffd17 	ldw	r4,-12(r7)
 4009790:	193ffd15 	stw	r4,-12(r3)
 4009794:	393ffe17 	ldw	r4,-8(r7)
 4009798:	193ffe15 	stw	r4,-8(r3)
 400979c:	393fff17 	ldw	r4,-4(r7)
 40097a0:	193fff15 	stw	r4,-4(r3)
 40097a4:	40fff51e 	bne	r8,r3,400977c <memmove+0x8c>
 40097a8:	3100030c 	andi	r4,r6,12
 40097ac:	2a4b883a 	add	r5,r5,r9
 40097b0:	320003cc 	andi	r8,r6,15
 40097b4:	20001726 	beq	r4,zero,4009814 <memmove+0x124>
 40097b8:	2813883a 	mov	r9,r5
 40097bc:	180f883a 	mov	r7,r3
 40097c0:	4a800017 	ldw	r10,0(r9)
 40097c4:	39c00104 	addi	r7,r7,4
 40097c8:	41c9c83a 	sub	r4,r8,r7
 40097cc:	1909883a 	add	r4,r3,r4
 40097d0:	21000128 	cmpgeui	r4,r4,4
 40097d4:	3abfff15 	stw	r10,-4(r7)
 40097d8:	4a400104 	addi	r9,r9,4
 40097dc:	203ff81e 	bne	r4,zero,40097c0 <memmove+0xd0>
 40097e0:	413fff04 	addi	r4,r8,-4
 40097e4:	2008d0ba 	srli	r4,r4,2
 40097e8:	318000cc 	andi	r6,r6,3
 40097ec:	21000044 	addi	r4,r4,1
 40097f0:	200890ba 	slli	r4,r4,2
 40097f4:	1907883a 	add	r3,r3,r4
 40097f8:	290b883a 	add	r5,r5,r4
 40097fc:	003fcb06 	br	400972c <memmove+0x3c>
 4009800:	f800283a 	ret
 4009804:	31ffffc4 	addi	r7,r6,-1
 4009808:	1007883a 	mov	r3,r2
 400980c:	003fc906 	br	4009734 <memmove+0x44>
 4009810:	f800283a 	ret
 4009814:	400d883a 	mov	r6,r8
 4009818:	003fc406 	br	400972c <memmove+0x3c>

0400981c <memset>:
 400981c:	20c000cc 	andi	r3,r4,3
 4009820:	2005883a 	mov	r2,r4
 4009824:	18003626 	beq	r3,zero,4009900 <memset+0xe4>
 4009828:	31ffffc4 	addi	r7,r6,-1
 400982c:	30003326 	beq	r6,zero,40098fc <memset+0xe0>
 4009830:	2811883a 	mov	r8,r5
 4009834:	2007883a 	mov	r3,r4
 4009838:	00000306 	br	4009848 <memset+0x2c>
 400983c:	39ffffc4 	addi	r7,r7,-1
 4009840:	39bfffe0 	cmpeqi	r6,r7,-1
 4009844:	30002d1e 	bne	r6,zero,40098fc <memset+0xe0>
 4009848:	18c00044 	addi	r3,r3,1
 400984c:	198000cc 	andi	r6,r3,3
 4009850:	1a3fffc5 	stb	r8,-1(r3)
 4009854:	303ff91e 	bne	r6,zero,400983c <memset+0x20>
 4009858:	39000130 	cmpltui	r4,r7,4
 400985c:	2000221e 	bne	r4,zero,40098e8 <memset+0xcc>
 4009860:	29003fcc 	andi	r4,r5,255
 4009864:	200c923a 	slli	r6,r4,8
 4009868:	3a000430 	cmpltui	r8,r7,16
 400986c:	3108b03a 	or	r4,r6,r4
 4009870:	200c943a 	slli	r6,r4,16
 4009874:	310cb03a 	or	r6,r6,r4
 4009878:	40000e1e 	bne	r8,zero,40098b4 <memset+0x98>
 400987c:	393ffc04 	addi	r4,r7,-16
 4009880:	2008d13a 	srli	r4,r4,4
 4009884:	21000044 	addi	r4,r4,1
 4009888:	2008913a 	slli	r4,r4,4
 400988c:	1909883a 	add	r4,r3,r4
 4009890:	19800015 	stw	r6,0(r3)
 4009894:	19800115 	stw	r6,4(r3)
 4009898:	19800215 	stw	r6,8(r3)
 400989c:	19800315 	stw	r6,12(r3)
 40098a0:	18c00404 	addi	r3,r3,16
 40098a4:	20fffa1e 	bne	r4,r3,4009890 <memset+0x74>
 40098a8:	3900030c 	andi	r4,r7,12
 40098ac:	39c003cc 	andi	r7,r7,15
 40098b0:	20000d26 	beq	r4,zero,40098e8 <memset+0xcc>
 40098b4:	1811883a 	mov	r8,r3
 40098b8:	42000104 	addi	r8,r8,4
 40098bc:	3a09c83a 	sub	r4,r7,r8
 40098c0:	1909883a 	add	r4,r3,r4
 40098c4:	21000128 	cmpgeui	r4,r4,4
 40098c8:	41bfff15 	stw	r6,-4(r8)
 40098cc:	203ffa1e 	bne	r4,zero,40098b8 <memset+0x9c>
 40098d0:	393fff04 	addi	r4,r7,-4
 40098d4:	2008d0ba 	srli	r4,r4,2
 40098d8:	39c000cc 	andi	r7,r7,3
 40098dc:	21000044 	addi	r4,r4,1
 40098e0:	200890ba 	slli	r4,r4,2
 40098e4:	1907883a 	add	r3,r3,r4
 40098e8:	38000426 	beq	r7,zero,40098fc <memset+0xe0>
 40098ec:	19cf883a 	add	r7,r3,r7
 40098f0:	18c00044 	addi	r3,r3,1
 40098f4:	197fffc5 	stb	r5,-1(r3)
 40098f8:	38fffd1e 	bne	r7,r3,40098f0 <memset+0xd4>
 40098fc:	f800283a 	ret
 4009900:	2007883a 	mov	r3,r4
 4009904:	300f883a 	mov	r7,r6
 4009908:	003fd306 	br	4009858 <memset+0x3c>

0400990c <_realloc_r>:
 400990c:	defff504 	addi	sp,sp,-44
 4009910:	dc800315 	stw	r18,12(sp)
 4009914:	dfc00a15 	stw	ra,40(sp)
 4009918:	df000915 	stw	fp,36(sp)
 400991c:	ddc00815 	stw	r23,32(sp)
 4009920:	dd800715 	stw	r22,28(sp)
 4009924:	dd400615 	stw	r21,24(sp)
 4009928:	dd000515 	stw	r20,20(sp)
 400992c:	dcc00415 	stw	r19,16(sp)
 4009930:	dc400215 	stw	r17,8(sp)
 4009934:	dc000115 	stw	r16,4(sp)
 4009938:	3025883a 	mov	r18,r6
 400993c:	28008b26 	beq	r5,zero,4009b6c <_realloc_r+0x260>
 4009940:	2821883a 	mov	r16,r5
 4009944:	2027883a 	mov	r19,r4
 4009948:	944002c4 	addi	r17,r18,11
 400994c:	40110ac0 	call	40110ac <__malloc_lock>
 4009950:	888005f0 	cmpltui	r2,r17,23
 4009954:	1000521e 	bne	r2,zero,4009aa0 <_realloc_r+0x194>
 4009958:	017ffe04 	movi	r5,-8
 400995c:	8962703a 	and	r17,r17,r5
 4009960:	8807883a 	mov	r3,r17
 4009964:	88005116 	blt	r17,zero,4009aac <_realloc_r+0x1a0>
 4009968:	8c805036 	bltu	r17,r18,4009aac <_realloc_r+0x1a0>
 400996c:	80bfff17 	ldw	r2,-4(r16)
 4009970:	017fff04 	movi	r5,-4
 4009974:	857ffe04 	addi	r21,r16,-8
 4009978:	1168703a 	and	r20,r2,r5
 400997c:	ad2d883a 	add	r22,r21,r20
 4009980:	a0c0390e 	bge	r20,r3,4009a68 <_realloc_r+0x15c>
 4009984:	07010074 	movhi	fp,1025
 4009988:	e70ae304 	addi	fp,fp,11148
 400998c:	e2000217 	ldw	r8,8(fp)
 4009990:	b1000117 	ldw	r4,4(r22)
 4009994:	45808e26 	beq	r8,r22,4009bd0 <_realloc_r+0x2c4>
 4009998:	01bfff84 	movi	r6,-2
 400999c:	218c703a 	and	r6,r4,r6
 40099a0:	b18d883a 	add	r6,r22,r6
 40099a4:	31800117 	ldw	r6,4(r6)
 40099a8:	3180004c 	andi	r6,r6,1
 40099ac:	30004f1e 	bne	r6,zero,4009aec <_realloc_r+0x1e0>
 40099b0:	2148703a 	and	r4,r4,r5
 40099b4:	a10b883a 	add	r5,r20,r4
 40099b8:	28c0bf0e 	bge	r5,r3,4009cb8 <_realloc_r+0x3ac>
 40099bc:	1080004c 	andi	r2,r2,1
 40099c0:	10004c1e 	bne	r2,zero,4009af4 <_realloc_r+0x1e8>
 40099c4:	81fffe17 	ldw	r7,-8(r16)
 40099c8:	00bfff04 	movi	r2,-4
 40099cc:	a9cfc83a 	sub	r7,r21,r7
 40099d0:	39400117 	ldw	r5,4(r7)
 40099d4:	288a703a 	and	r5,r5,r2
 40099d8:	b0000426 	beq	r22,zero,40099ec <_realloc_r+0xe0>
 40099dc:	a16f883a 	add	r23,r20,r5
 40099e0:	b92f883a 	add	r23,r23,r4
 40099e4:	4580bf26 	beq	r8,r22,4009ce4 <_realloc_r+0x3d8>
 40099e8:	b8c0930e 	bge	r23,r3,4009c38 <_realloc_r+0x32c>
 40099ec:	38004126 	beq	r7,zero,4009af4 <_realloc_r+0x1e8>
 40099f0:	a16f883a 	add	r23,r20,r5
 40099f4:	b8c03f16 	blt	r23,r3,4009af4 <_realloc_r+0x1e8>
 40099f8:	38800317 	ldw	r2,12(r7)
 40099fc:	38c00217 	ldw	r3,8(r7)
 4009a00:	a1bfff04 	addi	r6,r20,-4
 4009a04:	31400968 	cmpgeui	r5,r6,37
 4009a08:	18800315 	stw	r2,12(r3)
 4009a0c:	10c00215 	stw	r3,8(r2)
 4009a10:	39000204 	addi	r4,r7,8
 4009a14:	3ded883a 	add	r22,r7,r23
 4009a18:	2800941e 	bne	r5,zero,4009c6c <_realloc_r+0x360>
 4009a1c:	30800530 	cmpltui	r2,r6,20
 4009a20:	80c00017 	ldw	r3,0(r16)
 4009a24:	1000df1e 	bne	r2,zero,4009da4 <_realloc_r+0x498>
 4009a28:	38c00215 	stw	r3,8(r7)
 4009a2c:	80c00117 	ldw	r3,4(r16)
 4009a30:	30800728 	cmpgeui	r2,r6,28
 4009a34:	38c00315 	stw	r3,12(r7)
 4009a38:	1000dc1e 	bne	r2,zero,4009dac <_realloc_r+0x4a0>
 4009a3c:	80c00217 	ldw	r3,8(r16)
 4009a40:	38800404 	addi	r2,r7,16
 4009a44:	84000204 	addi	r16,r16,8
 4009a48:	10c00015 	stw	r3,0(r2)
 4009a4c:	80c00117 	ldw	r3,4(r16)
 4009a50:	b829883a 	mov	r20,r23
 4009a54:	382b883a 	mov	r21,r7
 4009a58:	10c00115 	stw	r3,4(r2)
 4009a5c:	80c00217 	ldw	r3,8(r16)
 4009a60:	2021883a 	mov	r16,r4
 4009a64:	10c00215 	stw	r3,8(r2)
 4009a68:	a9800117 	ldw	r6,4(r21)
 4009a6c:	a445c83a 	sub	r2,r20,r17
 4009a70:	10c00430 	cmpltui	r3,r2,16
 4009a74:	3180004c 	andi	r6,r6,1
 4009a78:	18004926 	beq	r3,zero,4009ba0 <_realloc_r+0x294>
 4009a7c:	a18cb03a 	or	r6,r20,r6
 4009a80:	a9800115 	stw	r6,4(r21)
 4009a84:	b0800117 	ldw	r2,4(r22)
 4009a88:	10800054 	ori	r2,r2,1
 4009a8c:	b0800115 	stw	r2,4(r22)
 4009a90:	9809883a 	mov	r4,r19
 4009a94:	40110d00 	call	40110d0 <__malloc_unlock>
 4009a98:	8025883a 	mov	r18,r16
 4009a9c:	00000606 	br	4009ab8 <_realloc_r+0x1ac>
 4009aa0:	04400404 	movi	r17,16
 4009aa4:	00c00404 	movi	r3,16
 4009aa8:	8cbfb02e 	bgeu	r17,r18,400996c <_realloc_r+0x60>
 4009aac:	00800304 	movi	r2,12
 4009ab0:	98800015 	stw	r2,0(r19)
 4009ab4:	0025883a 	mov	r18,zero
 4009ab8:	9005883a 	mov	r2,r18
 4009abc:	dfc00a17 	ldw	ra,40(sp)
 4009ac0:	df000917 	ldw	fp,36(sp)
 4009ac4:	ddc00817 	ldw	r23,32(sp)
 4009ac8:	dd800717 	ldw	r22,28(sp)
 4009acc:	dd400617 	ldw	r21,24(sp)
 4009ad0:	dd000517 	ldw	r20,20(sp)
 4009ad4:	dcc00417 	ldw	r19,16(sp)
 4009ad8:	dc800317 	ldw	r18,12(sp)
 4009adc:	dc400217 	ldw	r17,8(sp)
 4009ae0:	dc000117 	ldw	r16,4(sp)
 4009ae4:	dec00b04 	addi	sp,sp,44
 4009ae8:	f800283a 	ret
 4009aec:	1080004c 	andi	r2,r2,1
 4009af0:	10006c26 	beq	r2,zero,4009ca4 <_realloc_r+0x398>
 4009af4:	900b883a 	mov	r5,r18
 4009af8:	9809883a 	mov	r4,r19
 4009afc:	40060ac0 	call	40060ac <_malloc_r>
 4009b00:	1025883a 	mov	r18,r2
 4009b04:	10001626 	beq	r2,zero,4009b60 <_realloc_r+0x254>
 4009b08:	80bfff17 	ldw	r2,-4(r16)
 4009b0c:	013fff84 	movi	r4,-2
 4009b10:	90fffe04 	addi	r3,r18,-8
 4009b14:	1104703a 	and	r2,r2,r4
 4009b18:	a885883a 	add	r2,r21,r2
 4009b1c:	10c05b26 	beq	r2,r3,4009c8c <_realloc_r+0x380>
 4009b20:	a1bfff04 	addi	r6,r20,-4
 4009b24:	30800968 	cmpgeui	r2,r6,37
 4009b28:	10006a1e 	bne	r2,zero,4009cd4 <_realloc_r+0x3c8>
 4009b2c:	30800530 	cmpltui	r2,r6,20
 4009b30:	81000017 	ldw	r4,0(r16)
 4009b34:	10003726 	beq	r2,zero,4009c14 <_realloc_r+0x308>
 4009b38:	9005883a 	mov	r2,r18
 4009b3c:	8007883a 	mov	r3,r16
 4009b40:	11000015 	stw	r4,0(r2)
 4009b44:	19000117 	ldw	r4,4(r3)
 4009b48:	11000115 	stw	r4,4(r2)
 4009b4c:	18c00217 	ldw	r3,8(r3)
 4009b50:	10c00215 	stw	r3,8(r2)
 4009b54:	800b883a 	mov	r5,r16
 4009b58:	9809883a 	mov	r4,r19
 4009b5c:	40092b00 	call	40092b0 <_free_r>
 4009b60:	9809883a 	mov	r4,r19
 4009b64:	40110d00 	call	40110d0 <__malloc_unlock>
 4009b68:	003fd306 	br	4009ab8 <_realloc_r+0x1ac>
 4009b6c:	300b883a 	mov	r5,r6
 4009b70:	dfc00a17 	ldw	ra,40(sp)
 4009b74:	df000917 	ldw	fp,36(sp)
 4009b78:	ddc00817 	ldw	r23,32(sp)
 4009b7c:	dd800717 	ldw	r22,28(sp)
 4009b80:	dd400617 	ldw	r21,24(sp)
 4009b84:	dd000517 	ldw	r20,20(sp)
 4009b88:	dcc00417 	ldw	r19,16(sp)
 4009b8c:	dc800317 	ldw	r18,12(sp)
 4009b90:	dc400217 	ldw	r17,8(sp)
 4009b94:	dc000117 	ldw	r16,4(sp)
 4009b98:	dec00b04 	addi	sp,sp,44
 4009b9c:	40060ac1 	jmpi	40060ac <_malloc_r>
 4009ba0:	344cb03a 	or	r6,r6,r17
 4009ba4:	a9800115 	stw	r6,4(r21)
 4009ba8:	ac4b883a 	add	r5,r21,r17
 4009bac:	10800054 	ori	r2,r2,1
 4009bb0:	28800115 	stw	r2,4(r5)
 4009bb4:	b0800117 	ldw	r2,4(r22)
 4009bb8:	29400204 	addi	r5,r5,8
 4009bbc:	9809883a 	mov	r4,r19
 4009bc0:	10800054 	ori	r2,r2,1
 4009bc4:	b0800115 	stw	r2,4(r22)
 4009bc8:	40092b00 	call	40092b0 <_free_r>
 4009bcc:	003fb006 	br	4009a90 <_realloc_r+0x184>
 4009bd0:	2148703a 	and	r4,r4,r5
 4009bd4:	a10b883a 	add	r5,r20,r4
 4009bd8:	89800404 	addi	r6,r17,16
 4009bdc:	29bf7716 	blt	r5,r6,40099bc <_realloc_r+0xb0>
 4009be0:	ac6b883a 	add	r21,r21,r17
 4009be4:	2c45c83a 	sub	r2,r5,r17
 4009be8:	e5400215 	stw	r21,8(fp)
 4009bec:	10800054 	ori	r2,r2,1
 4009bf0:	a8800115 	stw	r2,4(r21)
 4009bf4:	80bfff17 	ldw	r2,-4(r16)
 4009bf8:	9809883a 	mov	r4,r19
 4009bfc:	8025883a 	mov	r18,r16
 4009c00:	1080004c 	andi	r2,r2,1
 4009c04:	1462b03a 	or	r17,r2,r17
 4009c08:	847fff15 	stw	r17,-4(r16)
 4009c0c:	40110d00 	call	40110d0 <__malloc_unlock>
 4009c10:	003fa906 	br	4009ab8 <_realloc_r+0x1ac>
 4009c14:	91000015 	stw	r4,0(r18)
 4009c18:	80c00117 	ldw	r3,4(r16)
 4009c1c:	30800728 	cmpgeui	r2,r6,28
 4009c20:	90c00115 	stw	r3,4(r18)
 4009c24:	1000551e 	bne	r2,zero,4009d7c <_realloc_r+0x470>
 4009c28:	81000217 	ldw	r4,8(r16)
 4009c2c:	80c00204 	addi	r3,r16,8
 4009c30:	90800204 	addi	r2,r18,8
 4009c34:	003fc206 	br	4009b40 <_realloc_r+0x234>
 4009c38:	b0800317 	ldw	r2,12(r22)
 4009c3c:	b0c00217 	ldw	r3,8(r22)
 4009c40:	a1bfff04 	addi	r6,r20,-4
 4009c44:	31400968 	cmpgeui	r5,r6,37
 4009c48:	18800315 	stw	r2,12(r3)
 4009c4c:	10c00215 	stw	r3,8(r2)
 4009c50:	38c00217 	ldw	r3,8(r7)
 4009c54:	38800317 	ldw	r2,12(r7)
 4009c58:	39000204 	addi	r4,r7,8
 4009c5c:	3ded883a 	add	r22,r7,r23
 4009c60:	18800315 	stw	r2,12(r3)
 4009c64:	10c00215 	stw	r3,8(r2)
 4009c68:	283f6c26 	beq	r5,zero,4009a1c <_realloc_r+0x110>
 4009c6c:	800b883a 	mov	r5,r16
 4009c70:	d9c00015 	stw	r7,0(sp)
 4009c74:	40096f00 	call	40096f0 <memmove>
 4009c78:	d9c00017 	ldw	r7,0(sp)
 4009c7c:	1021883a 	mov	r16,r2
 4009c80:	b829883a 	mov	r20,r23
 4009c84:	382b883a 	mov	r21,r7
 4009c88:	003f7706 	br	4009a68 <_realloc_r+0x15c>
 4009c8c:	90bfff17 	ldw	r2,-4(r18)
 4009c90:	00ffff04 	movi	r3,-4
 4009c94:	10c4703a 	and	r2,r2,r3
 4009c98:	a0a9883a 	add	r20,r20,r2
 4009c9c:	ad2d883a 	add	r22,r21,r20
 4009ca0:	003f7106 	br	4009a68 <_realloc_r+0x15c>
 4009ca4:	81fffe17 	ldw	r7,-8(r16)
 4009ca8:	a9cfc83a 	sub	r7,r21,r7
 4009cac:	38800117 	ldw	r2,4(r7)
 4009cb0:	114a703a 	and	r5,r2,r5
 4009cb4:	003f4d06 	br	40099ec <_realloc_r+0xe0>
 4009cb8:	b0800317 	ldw	r2,12(r22)
 4009cbc:	b0c00217 	ldw	r3,8(r22)
 4009cc0:	2829883a 	mov	r20,r5
 4009cc4:	a96d883a 	add	r22,r21,r5
 4009cc8:	18800315 	stw	r2,12(r3)
 4009ccc:	10c00215 	stw	r3,8(r2)
 4009cd0:	003f6506 	br	4009a68 <_realloc_r+0x15c>
 4009cd4:	800b883a 	mov	r5,r16
 4009cd8:	9009883a 	mov	r4,r18
 4009cdc:	40096f00 	call	40096f0 <memmove>
 4009ce0:	003f9c06 	br	4009b54 <_realloc_r+0x248>
 4009ce4:	88800404 	addi	r2,r17,16
 4009ce8:	b8bf4016 	blt	r23,r2,40099ec <_realloc_r+0xe0>
 4009cec:	38800317 	ldw	r2,12(r7)
 4009cf0:	38c00217 	ldw	r3,8(r7)
 4009cf4:	a1bfff04 	addi	r6,r20,-4
 4009cf8:	31000968 	cmpgeui	r4,r6,37
 4009cfc:	18800315 	stw	r2,12(r3)
 4009d00:	10c00215 	stw	r3,8(r2)
 4009d04:	3c800204 	addi	r18,r7,8
 4009d08:	20003b1e 	bne	r4,zero,4009df8 <_realloc_r+0x4ec>
 4009d0c:	30800530 	cmpltui	r2,r6,20
 4009d10:	80c00017 	ldw	r3,0(r16)
 4009d14:	1000361e 	bne	r2,zero,4009df0 <_realloc_r+0x4e4>
 4009d18:	38c00215 	stw	r3,8(r7)
 4009d1c:	80c00117 	ldw	r3,4(r16)
 4009d20:	30800728 	cmpgeui	r2,r6,28
 4009d24:	38c00315 	stw	r3,12(r7)
 4009d28:	1000401e 	bne	r2,zero,4009e2c <_realloc_r+0x520>
 4009d2c:	80c00217 	ldw	r3,8(r16)
 4009d30:	38800404 	addi	r2,r7,16
 4009d34:	84000204 	addi	r16,r16,8
 4009d38:	10c00015 	stw	r3,0(r2)
 4009d3c:	80c00117 	ldw	r3,4(r16)
 4009d40:	10c00115 	stw	r3,4(r2)
 4009d44:	80c00217 	ldw	r3,8(r16)
 4009d48:	10c00215 	stw	r3,8(r2)
 4009d4c:	3c47883a 	add	r3,r7,r17
 4009d50:	bc45c83a 	sub	r2,r23,r17
 4009d54:	e0c00215 	stw	r3,8(fp)
 4009d58:	10800054 	ori	r2,r2,1
 4009d5c:	18800115 	stw	r2,4(r3)
 4009d60:	38800117 	ldw	r2,4(r7)
 4009d64:	9809883a 	mov	r4,r19
 4009d68:	1080004c 	andi	r2,r2,1
 4009d6c:	1462b03a 	or	r17,r2,r17
 4009d70:	3c400115 	stw	r17,4(r7)
 4009d74:	40110d00 	call	40110d0 <__malloc_unlock>
 4009d78:	003f4f06 	br	4009ab8 <_realloc_r+0x1ac>
 4009d7c:	80800217 	ldw	r2,8(r16)
 4009d80:	31800920 	cmpeqi	r6,r6,36
 4009d84:	90800215 	stw	r2,8(r18)
 4009d88:	80800317 	ldw	r2,12(r16)
 4009d8c:	90800315 	stw	r2,12(r18)
 4009d90:	81000417 	ldw	r4,16(r16)
 4009d94:	30000f1e 	bne	r6,zero,4009dd4 <_realloc_r+0x4c8>
 4009d98:	80c00404 	addi	r3,r16,16
 4009d9c:	90800404 	addi	r2,r18,16
 4009da0:	003f6706 	br	4009b40 <_realloc_r+0x234>
 4009da4:	2005883a 	mov	r2,r4
 4009da8:	003f2706 	br	4009a48 <_realloc_r+0x13c>
 4009dac:	80800217 	ldw	r2,8(r16)
 4009db0:	31800920 	cmpeqi	r6,r6,36
 4009db4:	38800415 	stw	r2,16(r7)
 4009db8:	80800317 	ldw	r2,12(r16)
 4009dbc:	38800515 	stw	r2,20(r7)
 4009dc0:	80c00417 	ldw	r3,16(r16)
 4009dc4:	3000121e 	bne	r6,zero,4009e10 <_realloc_r+0x504>
 4009dc8:	38800604 	addi	r2,r7,24
 4009dcc:	84000404 	addi	r16,r16,16
 4009dd0:	003f1d06 	br	4009a48 <_realloc_r+0x13c>
 4009dd4:	91000415 	stw	r4,16(r18)
 4009dd8:	81000517 	ldw	r4,20(r16)
 4009ddc:	80c00604 	addi	r3,r16,24
 4009de0:	90800604 	addi	r2,r18,24
 4009de4:	91000515 	stw	r4,20(r18)
 4009de8:	81000617 	ldw	r4,24(r16)
 4009dec:	003f5406 	br	4009b40 <_realloc_r+0x234>
 4009df0:	9005883a 	mov	r2,r18
 4009df4:	003fd006 	br	4009d38 <_realloc_r+0x42c>
 4009df8:	800b883a 	mov	r5,r16
 4009dfc:	9009883a 	mov	r4,r18
 4009e00:	d9c00015 	stw	r7,0(sp)
 4009e04:	40096f00 	call	40096f0 <memmove>
 4009e08:	d9c00017 	ldw	r7,0(sp)
 4009e0c:	003fcf06 	br	4009d4c <_realloc_r+0x440>
 4009e10:	84000604 	addi	r16,r16,24
 4009e14:	38c00615 	stw	r3,24(r7)
 4009e18:	80ffff17 	ldw	r3,-4(r16)
 4009e1c:	38800804 	addi	r2,r7,32
 4009e20:	38c00715 	stw	r3,28(r7)
 4009e24:	80c00017 	ldw	r3,0(r16)
 4009e28:	003f0706 	br	4009a48 <_realloc_r+0x13c>
 4009e2c:	80800217 	ldw	r2,8(r16)
 4009e30:	31800920 	cmpeqi	r6,r6,36
 4009e34:	38800415 	stw	r2,16(r7)
 4009e38:	80800317 	ldw	r2,12(r16)
 4009e3c:	38800515 	stw	r2,20(r7)
 4009e40:	80c00417 	ldw	r3,16(r16)
 4009e44:	3000031e 	bne	r6,zero,4009e54 <_realloc_r+0x548>
 4009e48:	38800604 	addi	r2,r7,24
 4009e4c:	84000404 	addi	r16,r16,16
 4009e50:	003fb906 	br	4009d38 <_realloc_r+0x42c>
 4009e54:	84000604 	addi	r16,r16,24
 4009e58:	38c00615 	stw	r3,24(r7)
 4009e5c:	80ffff17 	ldw	r3,-4(r16)
 4009e60:	38800804 	addi	r2,r7,32
 4009e64:	38c00715 	stw	r3,28(r7)
 4009e68:	80c00017 	ldw	r3,0(r16)
 4009e6c:	003fb206 	br	4009d38 <_realloc_r+0x42c>

04009e70 <strcmp>:
 4009e70:	2144b03a 	or	r2,r4,r5
 4009e74:	108000cc 	andi	r2,r2,3
 4009e78:	1000141e 	bne	r2,zero,4009ecc <strcmp+0x5c>
 4009e7c:	20800017 	ldw	r2,0(r4)
 4009e80:	28c00017 	ldw	r3,0(r5)
 4009e84:	10c0111e 	bne	r2,r3,4009ecc <strcmp+0x5c>
 4009e88:	01ffbff4 	movhi	r7,65279
 4009e8c:	01a02074 	movhi	r6,32897
 4009e90:	39ffbfc4 	addi	r7,r7,-257
 4009e94:	31a02004 	addi	r6,r6,-32640
 4009e98:	00000306 	br	4009ea8 <strcmp+0x38>
 4009e9c:	20800017 	ldw	r2,0(r4)
 4009ea0:	28c00017 	ldw	r3,0(r5)
 4009ea4:	10c0091e 	bne	r2,r3,4009ecc <strcmp+0x5c>
 4009ea8:	11c7883a 	add	r3,r2,r7
 4009eac:	0084303a 	nor	r2,zero,r2
 4009eb0:	1884703a 	and	r2,r3,r2
 4009eb4:	1184703a 	and	r2,r2,r6
 4009eb8:	21000104 	addi	r4,r4,4
 4009ebc:	29400104 	addi	r5,r5,4
 4009ec0:	103ff626 	beq	r2,zero,4009e9c <strcmp+0x2c>
 4009ec4:	0005883a 	mov	r2,zero
 4009ec8:	f800283a 	ret
 4009ecc:	20c00003 	ldbu	r3,0(r4)
 4009ed0:	18803fcc 	andi	r2,r3,255
 4009ed4:	1080201c 	xori	r2,r2,128
 4009ed8:	10bfe004 	addi	r2,r2,-128
 4009edc:	1000071e 	bne	r2,zero,4009efc <strcmp+0x8c>
 4009ee0:	00000a06 	br	4009f0c <strcmp+0x9c>
 4009ee4:	20c00003 	ldbu	r3,0(r4)
 4009ee8:	29400044 	addi	r5,r5,1
 4009eec:	18803fcc 	andi	r2,r3,255
 4009ef0:	1080201c 	xori	r2,r2,128
 4009ef4:	10bfe004 	addi	r2,r2,-128
 4009ef8:	10000726 	beq	r2,zero,4009f18 <strcmp+0xa8>
 4009efc:	29800007 	ldb	r6,0(r5)
 4009f00:	21000044 	addi	r4,r4,1
 4009f04:	30bff726 	beq	r6,r2,4009ee4 <strcmp+0x74>
 4009f08:	18803fcc 	andi	r2,r3,255
 4009f0c:	28c00003 	ldbu	r3,0(r5)
 4009f10:	10c5c83a 	sub	r2,r2,r3
 4009f14:	f800283a 	ret
 4009f18:	28c00003 	ldbu	r3,0(r5)
 4009f1c:	0005883a 	mov	r2,zero
 4009f20:	10c5c83a 	sub	r2,r2,r3
 4009f24:	f800283a 	ret

04009f28 <_vfiprintf_r>:
 4009f28:	400a5dc1 	jmpi	400a5dc <___vfiprintf_internal_r>

04009f2c <_wctomb_r>:
 4009f2c:	00810074 	movhi	r2,1025
 4009f30:	108c1d17 	ldw	r2,12404(r2)
 4009f34:	1000683a 	jmp	r2

04009f38 <__ascii_wctomb>:
 4009f38:	28000926 	beq	r5,zero,4009f60 <__ascii_wctomb+0x28>
 4009f3c:	30804030 	cmpltui	r2,r6,256
 4009f40:	10000326 	beq	r2,zero,4009f50 <__ascii_wctomb+0x18>
 4009f44:	29800005 	stb	r6,0(r5)
 4009f48:	00800044 	movi	r2,1
 4009f4c:	f800283a 	ret
 4009f50:	00802284 	movi	r2,138
 4009f54:	20800015 	stw	r2,0(r4)
 4009f58:	00bfffc4 	movi	r2,-1
 4009f5c:	f800283a 	ret
 4009f60:	0005883a 	mov	r2,zero
 4009f64:	f800283a 	ret

04009f68 <abort>:
 4009f68:	deffff04 	addi	sp,sp,-4
 4009f6c:	01000184 	movi	r4,6
 4009f70:	dfc00015 	stw	ra,0(sp)
 4009f74:	400a1f40 	call	400a1f4 <raise>
 4009f78:	01000044 	movi	r4,1
 4009f7c:	40107ec0 	call	40107ec <_exit>

04009f80 <_init_signal_r>:
 4009f80:	2080b717 	ldw	r2,732(r4)
 4009f84:	10000226 	beq	r2,zero,4009f90 <_init_signal_r+0x10>
 4009f88:	0005883a 	mov	r2,zero
 4009f8c:	f800283a 	ret
 4009f90:	defffe04 	addi	sp,sp,-8
 4009f94:	01402004 	movi	r5,128
 4009f98:	dc000015 	stw	r16,0(sp)
 4009f9c:	dfc00115 	stw	ra,4(sp)
 4009fa0:	2021883a 	mov	r16,r4
 4009fa4:	40060ac0 	call	40060ac <_malloc_r>
 4009fa8:	8080b715 	stw	r2,732(r16)
 4009fac:	1009883a 	mov	r4,r2
 4009fb0:	10000826 	beq	r2,zero,4009fd4 <_init_signal_r+0x54>
 4009fb4:	01802004 	movi	r6,128
 4009fb8:	000b883a 	mov	r5,zero
 4009fbc:	400981c0 	call	400981c <memset>
 4009fc0:	0005883a 	mov	r2,zero
 4009fc4:	dfc00117 	ldw	ra,4(sp)
 4009fc8:	dc000017 	ldw	r16,0(sp)
 4009fcc:	dec00204 	addi	sp,sp,8
 4009fd0:	f800283a 	ret
 4009fd4:	00bfffc4 	movi	r2,-1
 4009fd8:	003ffa06 	br	4009fc4 <_init_signal_r+0x44>

04009fdc <_signal_r>:
 4009fdc:	defffc04 	addi	sp,sp,-16
 4009fe0:	dc400115 	stw	r17,4(sp)
 4009fe4:	dfc00315 	stw	ra,12(sp)
 4009fe8:	dc800215 	stw	r18,8(sp)
 4009fec:	dc000015 	stw	r16,0(sp)
 4009ff0:	28800830 	cmpltui	r2,r5,32
 4009ff4:	2023883a 	mov	r17,r4
 4009ff8:	10000e26 	beq	r2,zero,400a034 <_signal_r+0x58>
 4009ffc:	20c0b717 	ldw	r3,732(r4)
 400a000:	2821883a 	mov	r16,r5
 400a004:	3025883a 	mov	r18,r6
 400a008:	18000e26 	beq	r3,zero,400a044 <_signal_r+0x68>
 400a00c:	802090ba 	slli	r16,r16,2
 400a010:	1c21883a 	add	r16,r3,r16
 400a014:	80800017 	ldw	r2,0(r16)
 400a018:	84800015 	stw	r18,0(r16)
 400a01c:	dfc00317 	ldw	ra,12(sp)
 400a020:	dc800217 	ldw	r18,8(sp)
 400a024:	dc400117 	ldw	r17,4(sp)
 400a028:	dc000017 	ldw	r16,0(sp)
 400a02c:	dec00404 	addi	sp,sp,16
 400a030:	f800283a 	ret
 400a034:	00800584 	movi	r2,22
 400a038:	20800015 	stw	r2,0(r4)
 400a03c:	00bfffc4 	movi	r2,-1
 400a040:	003ff606 	br	400a01c <_signal_r+0x40>
 400a044:	01402004 	movi	r5,128
 400a048:	40060ac0 	call	40060ac <_malloc_r>
 400a04c:	8880b715 	stw	r2,732(r17)
 400a050:	10000626 	beq	r2,zero,400a06c <_signal_r+0x90>
 400a054:	01802004 	movi	r6,128
 400a058:	000b883a 	mov	r5,zero
 400a05c:	1009883a 	mov	r4,r2
 400a060:	400981c0 	call	400981c <memset>
 400a064:	1007883a 	mov	r3,r2
 400a068:	003fe806 	br	400a00c <_signal_r+0x30>
 400a06c:	00bfffc4 	movi	r2,-1
 400a070:	003fea06 	br	400a01c <_signal_r+0x40>

0400a074 <_raise_r>:
 400a074:	28800830 	cmpltui	r2,r5,32
 400a078:	10002b26 	beq	r2,zero,400a128 <_raise_r+0xb4>
 400a07c:	2080b717 	ldw	r2,732(r4)
 400a080:	defffd04 	addi	sp,sp,-12
 400a084:	dc000115 	stw	r16,4(sp)
 400a088:	dfc00215 	stw	ra,8(sp)
 400a08c:	2821883a 	mov	r16,r5
 400a090:	10001026 	beq	r2,zero,400a0d4 <_raise_r+0x60>
 400a094:	280690ba 	slli	r3,r5,2
 400a098:	10c5883a 	add	r2,r2,r3
 400a09c:	10c00017 	ldw	r3,0(r2)
 400a0a0:	18000c26 	beq	r3,zero,400a0d4 <_raise_r+0x60>
 400a0a4:	19400060 	cmpeqi	r5,r3,1
 400a0a8:	28001a1e 	bne	r5,zero,400a114 <_raise_r+0xa0>
 400a0ac:	197fffd8 	cmpnei	r5,r3,-1
 400a0b0:	28001126 	beq	r5,zero,400a0f8 <_raise_r+0x84>
 400a0b4:	10000015 	stw	zero,0(r2)
 400a0b8:	8009883a 	mov	r4,r16
 400a0bc:	183ee83a 	callr	r3
 400a0c0:	0005883a 	mov	r2,zero
 400a0c4:	dfc00217 	ldw	ra,8(sp)
 400a0c8:	dc000117 	ldw	r16,4(sp)
 400a0cc:	dec00304 	addi	sp,sp,12
 400a0d0:	f800283a 	ret
 400a0d4:	d9000015 	stw	r4,0(sp)
 400a0d8:	400a4cc0 	call	400a4cc <_getpid_r>
 400a0dc:	d9000017 	ldw	r4,0(sp)
 400a0e0:	800d883a 	mov	r6,r16
 400a0e4:	100b883a 	mov	r5,r2
 400a0e8:	dfc00217 	ldw	ra,8(sp)
 400a0ec:	dc000117 	ldw	r16,4(sp)
 400a0f0:	dec00304 	addi	sp,sp,12
 400a0f4:	400a46c1 	jmpi	400a46c <_kill_r>
 400a0f8:	00800584 	movi	r2,22
 400a0fc:	20800015 	stw	r2,0(r4)
 400a100:	00800044 	movi	r2,1
 400a104:	dfc00217 	ldw	ra,8(sp)
 400a108:	dc000117 	ldw	r16,4(sp)
 400a10c:	dec00304 	addi	sp,sp,12
 400a110:	f800283a 	ret
 400a114:	0005883a 	mov	r2,zero
 400a118:	dfc00217 	ldw	ra,8(sp)
 400a11c:	dc000117 	ldw	r16,4(sp)
 400a120:	dec00304 	addi	sp,sp,12
 400a124:	f800283a 	ret
 400a128:	00800584 	movi	r2,22
 400a12c:	20800015 	stw	r2,0(r4)
 400a130:	00bfffc4 	movi	r2,-1
 400a134:	f800283a 	ret

0400a138 <__sigtramp_r>:
 400a138:	28800830 	cmpltui	r2,r5,32
 400a13c:	10002b26 	beq	r2,zero,400a1ec <__sigtramp_r+0xb4>
 400a140:	20c0b717 	ldw	r3,732(r4)
 400a144:	defffd04 	addi	sp,sp,-12
 400a148:	dc400115 	stw	r17,4(sp)
 400a14c:	dc000015 	stw	r16,0(sp)
 400a150:	dfc00215 	stw	ra,8(sp)
 400a154:	2821883a 	mov	r16,r5
 400a158:	2023883a 	mov	r17,r4
 400a15c:	18001326 	beq	r3,zero,400a1ac <__sigtramp_r+0x74>
 400a160:	800490ba 	slli	r2,r16,2
 400a164:	1887883a 	add	r3,r3,r2
 400a168:	18800017 	ldw	r2,0(r3)
 400a16c:	10000d26 	beq	r2,zero,400a1a4 <__sigtramp_r+0x6c>
 400a170:	113fffe0 	cmpeqi	r4,r2,-1
 400a174:	2000191e 	bne	r4,zero,400a1dc <__sigtramp_r+0xa4>
 400a178:	11000060 	cmpeqi	r4,r2,1
 400a17c:	2000151e 	bne	r4,zero,400a1d4 <__sigtramp_r+0x9c>
 400a180:	18000015 	stw	zero,0(r3)
 400a184:	8009883a 	mov	r4,r16
 400a188:	103ee83a 	callr	r2
 400a18c:	0005883a 	mov	r2,zero
 400a190:	dfc00217 	ldw	ra,8(sp)
 400a194:	dc400117 	ldw	r17,4(sp)
 400a198:	dc000017 	ldw	r16,0(sp)
 400a19c:	dec00304 	addi	sp,sp,12
 400a1a0:	f800283a 	ret
 400a1a4:	00800044 	movi	r2,1
 400a1a8:	003ff906 	br	400a190 <__sigtramp_r+0x58>
 400a1ac:	01402004 	movi	r5,128
 400a1b0:	40060ac0 	call	40060ac <_malloc_r>
 400a1b4:	8880b715 	stw	r2,732(r17)
 400a1b8:	10000a26 	beq	r2,zero,400a1e4 <__sigtramp_r+0xac>
 400a1bc:	01802004 	movi	r6,128
 400a1c0:	000b883a 	mov	r5,zero
 400a1c4:	1009883a 	mov	r4,r2
 400a1c8:	400981c0 	call	400981c <memset>
 400a1cc:	1007883a 	mov	r3,r2
 400a1d0:	003fe306 	br	400a160 <__sigtramp_r+0x28>
 400a1d4:	008000c4 	movi	r2,3
 400a1d8:	003fed06 	br	400a190 <__sigtramp_r+0x58>
 400a1dc:	00800084 	movi	r2,2
 400a1e0:	003feb06 	br	400a190 <__sigtramp_r+0x58>
 400a1e4:	00bfffc4 	movi	r2,-1
 400a1e8:	003fe906 	br	400a190 <__sigtramp_r+0x58>
 400a1ec:	00bfffc4 	movi	r2,-1
 400a1f0:	f800283a 	ret

0400a1f4 <raise>:
 400a1f4:	defffd04 	addi	sp,sp,-12
 400a1f8:	dc400115 	stw	r17,4(sp)
 400a1fc:	00c10074 	movhi	r3,1025
 400a200:	dfc00215 	stw	ra,8(sp)
 400a204:	dc000015 	stw	r16,0(sp)
 400a208:	20800830 	cmpltui	r2,r4,32
 400a20c:	1c4cad17 	ldw	r17,12980(r3)
 400a210:	10002326 	beq	r2,zero,400a2a0 <raise+0xac>
 400a214:	8880b717 	ldw	r2,732(r17)
 400a218:	2021883a 	mov	r16,r4
 400a21c:	10001026 	beq	r2,zero,400a260 <raise+0x6c>
 400a220:	200690ba 	slli	r3,r4,2
 400a224:	10c5883a 	add	r2,r2,r3
 400a228:	10c00017 	ldw	r3,0(r2)
 400a22c:	18000c26 	beq	r3,zero,400a260 <raise+0x6c>
 400a230:	19400060 	cmpeqi	r5,r3,1
 400a234:	2800181e 	bne	r5,zero,400a298 <raise+0xa4>
 400a238:	197fffd8 	cmpnei	r5,r3,-1
 400a23c:	28001226 	beq	r5,zero,400a288 <raise+0x94>
 400a240:	10000015 	stw	zero,0(r2)
 400a244:	183ee83a 	callr	r3
 400a248:	0005883a 	mov	r2,zero
 400a24c:	dfc00217 	ldw	ra,8(sp)
 400a250:	dc400117 	ldw	r17,4(sp)
 400a254:	dc000017 	ldw	r16,0(sp)
 400a258:	dec00304 	addi	sp,sp,12
 400a25c:	f800283a 	ret
 400a260:	8809883a 	mov	r4,r17
 400a264:	400a4cc0 	call	400a4cc <_getpid_r>
 400a268:	800d883a 	mov	r6,r16
 400a26c:	100b883a 	mov	r5,r2
 400a270:	8809883a 	mov	r4,r17
 400a274:	dfc00217 	ldw	ra,8(sp)
 400a278:	dc400117 	ldw	r17,4(sp)
 400a27c:	dc000017 	ldw	r16,0(sp)
 400a280:	dec00304 	addi	sp,sp,12
 400a284:	400a46c1 	jmpi	400a46c <_kill_r>
 400a288:	00800584 	movi	r2,22
 400a28c:	88800015 	stw	r2,0(r17)
 400a290:	00800044 	movi	r2,1
 400a294:	003fed06 	br	400a24c <raise+0x58>
 400a298:	0005883a 	mov	r2,zero
 400a29c:	003feb06 	br	400a24c <raise+0x58>
 400a2a0:	00800584 	movi	r2,22
 400a2a4:	88800015 	stw	r2,0(r17)
 400a2a8:	00bfffc4 	movi	r2,-1
 400a2ac:	003fe706 	br	400a24c <raise+0x58>

0400a2b0 <signal>:
 400a2b0:	defffc04 	addi	sp,sp,-16
 400a2b4:	dc800215 	stw	r18,8(sp)
 400a2b8:	00c10074 	movhi	r3,1025
 400a2bc:	dfc00315 	stw	ra,12(sp)
 400a2c0:	dc400115 	stw	r17,4(sp)
 400a2c4:	dc000015 	stw	r16,0(sp)
 400a2c8:	20800830 	cmpltui	r2,r4,32
 400a2cc:	1c8cad17 	ldw	r18,12980(r3)
 400a2d0:	10000e26 	beq	r2,zero,400a30c <signal+0x5c>
 400a2d4:	2021883a 	mov	r16,r4
 400a2d8:	9100b717 	ldw	r4,732(r18)
 400a2dc:	2823883a 	mov	r17,r5
 400a2e0:	20000e26 	beq	r4,zero,400a31c <signal+0x6c>
 400a2e4:	802090ba 	slli	r16,r16,2
 400a2e8:	2421883a 	add	r16,r4,r16
 400a2ec:	80800017 	ldw	r2,0(r16)
 400a2f0:	84400015 	stw	r17,0(r16)
 400a2f4:	dfc00317 	ldw	ra,12(sp)
 400a2f8:	dc800217 	ldw	r18,8(sp)
 400a2fc:	dc400117 	ldw	r17,4(sp)
 400a300:	dc000017 	ldw	r16,0(sp)
 400a304:	dec00404 	addi	sp,sp,16
 400a308:	f800283a 	ret
 400a30c:	00800584 	movi	r2,22
 400a310:	90800015 	stw	r2,0(r18)
 400a314:	00bfffc4 	movi	r2,-1
 400a318:	003ff606 	br	400a2f4 <signal+0x44>
 400a31c:	9009883a 	mov	r4,r18
 400a320:	01402004 	movi	r5,128
 400a324:	40060ac0 	call	40060ac <_malloc_r>
 400a328:	9080b715 	stw	r2,732(r18)
 400a32c:	1009883a 	mov	r4,r2
 400a330:	10000526 	beq	r2,zero,400a348 <signal+0x98>
 400a334:	01802004 	movi	r6,128
 400a338:	000b883a 	mov	r5,zero
 400a33c:	400981c0 	call	400981c <memset>
 400a340:	1009883a 	mov	r4,r2
 400a344:	003fe706 	br	400a2e4 <signal+0x34>
 400a348:	00bfffc4 	movi	r2,-1
 400a34c:	003fe906 	br	400a2f4 <signal+0x44>

0400a350 <_init_signal>:
 400a350:	defffe04 	addi	sp,sp,-8
 400a354:	00810074 	movhi	r2,1025
 400a358:	dc000015 	stw	r16,0(sp)
 400a35c:	140cad17 	ldw	r16,12980(r2)
 400a360:	dfc00115 	stw	ra,4(sp)
 400a364:	8080b717 	ldw	r2,732(r16)
 400a368:	10000526 	beq	r2,zero,400a380 <_init_signal+0x30>
 400a36c:	0005883a 	mov	r2,zero
 400a370:	dfc00117 	ldw	ra,4(sp)
 400a374:	dc000017 	ldw	r16,0(sp)
 400a378:	dec00204 	addi	sp,sp,8
 400a37c:	f800283a 	ret
 400a380:	8009883a 	mov	r4,r16
 400a384:	01402004 	movi	r5,128
 400a388:	40060ac0 	call	40060ac <_malloc_r>
 400a38c:	8080b715 	stw	r2,732(r16)
 400a390:	1009883a 	mov	r4,r2
 400a394:	10000426 	beq	r2,zero,400a3a8 <_init_signal+0x58>
 400a398:	01802004 	movi	r6,128
 400a39c:	000b883a 	mov	r5,zero
 400a3a0:	400981c0 	call	400981c <memset>
 400a3a4:	003ff106 	br	400a36c <_init_signal+0x1c>
 400a3a8:	00bfffc4 	movi	r2,-1
 400a3ac:	003ff006 	br	400a370 <_init_signal+0x20>

0400a3b0 <__sigtramp>:
 400a3b0:	defffd04 	addi	sp,sp,-12
 400a3b4:	dc400115 	stw	r17,4(sp)
 400a3b8:	00c10074 	movhi	r3,1025
 400a3bc:	dfc00215 	stw	ra,8(sp)
 400a3c0:	dc000015 	stw	r16,0(sp)
 400a3c4:	20800830 	cmpltui	r2,r4,32
 400a3c8:	1c4cad17 	ldw	r17,12980(r3)
 400a3cc:	10002526 	beq	r2,zero,400a464 <__sigtramp+0xb4>
 400a3d0:	88c0b717 	ldw	r3,732(r17)
 400a3d4:	2021883a 	mov	r16,r4
 400a3d8:	18001326 	beq	r3,zero,400a428 <__sigtramp+0x78>
 400a3dc:	800890ba 	slli	r4,r16,2
 400a3e0:	1907883a 	add	r3,r3,r4
 400a3e4:	18800017 	ldw	r2,0(r3)
 400a3e8:	10000d26 	beq	r2,zero,400a420 <__sigtramp+0x70>
 400a3ec:	113fffe0 	cmpeqi	r4,r2,-1
 400a3f0:	20001a1e 	bne	r4,zero,400a45c <__sigtramp+0xac>
 400a3f4:	11000060 	cmpeqi	r4,r2,1
 400a3f8:	2000161e 	bne	r4,zero,400a454 <__sigtramp+0xa4>
 400a3fc:	18000015 	stw	zero,0(r3)
 400a400:	8009883a 	mov	r4,r16
 400a404:	103ee83a 	callr	r2
 400a408:	0005883a 	mov	r2,zero
 400a40c:	dfc00217 	ldw	ra,8(sp)
 400a410:	dc400117 	ldw	r17,4(sp)
 400a414:	dc000017 	ldw	r16,0(sp)
 400a418:	dec00304 	addi	sp,sp,12
 400a41c:	f800283a 	ret
 400a420:	00800044 	movi	r2,1
 400a424:	003ff906 	br	400a40c <__sigtramp+0x5c>
 400a428:	01402004 	movi	r5,128
 400a42c:	8809883a 	mov	r4,r17
 400a430:	40060ac0 	call	40060ac <_malloc_r>
 400a434:	8880b715 	stw	r2,732(r17)
 400a438:	10000a26 	beq	r2,zero,400a464 <__sigtramp+0xb4>
 400a43c:	01802004 	movi	r6,128
 400a440:	000b883a 	mov	r5,zero
 400a444:	1009883a 	mov	r4,r2
 400a448:	400981c0 	call	400981c <memset>
 400a44c:	1007883a 	mov	r3,r2
 400a450:	003fe206 	br	400a3dc <__sigtramp+0x2c>
 400a454:	008000c4 	movi	r2,3
 400a458:	003fec06 	br	400a40c <__sigtramp+0x5c>
 400a45c:	00800084 	movi	r2,2
 400a460:	003fea06 	br	400a40c <__sigtramp+0x5c>
 400a464:	00bfffc4 	movi	r2,-1
 400a468:	003fe806 	br	400a40c <__sigtramp+0x5c>

0400a46c <_kill_r>:
 400a46c:	2807883a 	mov	r3,r5
 400a470:	defffe04 	addi	sp,sp,-8
 400a474:	dc000015 	stw	r16,0(sp)
 400a478:	00810074 	movhi	r2,1025
 400a47c:	300b883a 	mov	r5,r6
 400a480:	2021883a 	mov	r16,r4
 400a484:	1809883a 	mov	r4,r3
 400a488:	dfc00115 	stw	ra,4(sp)
 400a48c:	100fa715 	stw	zero,16028(r2)
 400a490:	4010cfc0 	call	4010cfc <kill>
 400a494:	10ffffd8 	cmpnei	r3,r2,-1
 400a498:	18000426 	beq	r3,zero,400a4ac <_kill_r+0x40>
 400a49c:	dfc00117 	ldw	ra,4(sp)
 400a4a0:	dc000017 	ldw	r16,0(sp)
 400a4a4:	dec00204 	addi	sp,sp,8
 400a4a8:	f800283a 	ret
 400a4ac:	00c10074 	movhi	r3,1025
 400a4b0:	18cfa717 	ldw	r3,16028(r3)
 400a4b4:	183ff926 	beq	r3,zero,400a49c <_kill_r+0x30>
 400a4b8:	80c00015 	stw	r3,0(r16)
 400a4bc:	dfc00117 	ldw	ra,4(sp)
 400a4c0:	dc000017 	ldw	r16,0(sp)
 400a4c4:	dec00204 	addi	sp,sp,8
 400a4c8:	f800283a 	ret

0400a4cc <_getpid_r>:
 400a4cc:	401091c1 	jmpi	401091c <getpid>

0400a4d0 <__sprint_r.part.0>:
 400a4d0:	28801917 	ldw	r2,100(r5)
 400a4d4:	defff604 	addi	sp,sp,-40
 400a4d8:	dcc00315 	stw	r19,12(sp)
 400a4dc:	dfc00915 	stw	ra,36(sp)
 400a4e0:	df000815 	stw	fp,32(sp)
 400a4e4:	ddc00715 	stw	r23,28(sp)
 400a4e8:	dd800615 	stw	r22,24(sp)
 400a4ec:	dd400515 	stw	r21,20(sp)
 400a4f0:	dd000415 	stw	r20,16(sp)
 400a4f4:	dc800215 	stw	r18,8(sp)
 400a4f8:	dc400115 	stw	r17,4(sp)
 400a4fc:	dc000015 	stw	r16,0(sp)
 400a500:	1088000c 	andi	r2,r2,8192
 400a504:	3027883a 	mov	r19,r6
 400a508:	10002c26 	beq	r2,zero,400a5bc <__sprint_r.part.0+0xec>
 400a50c:	30800217 	ldw	r2,8(r6)
 400a510:	35000017 	ldw	r20,0(r6)
 400a514:	2821883a 	mov	r16,r5
 400a518:	2023883a 	mov	r17,r4
 400a51c:	05bfff04 	movi	r22,-4
 400a520:	10002426 	beq	r2,zero,400a5b4 <__sprint_r.part.0+0xe4>
 400a524:	a5400117 	ldw	r21,4(r20)
 400a528:	a5c00017 	ldw	r23,0(r20)
 400a52c:	a824d0ba 	srli	r18,r21,2
 400a530:	90001b26 	beq	r18,zero,400a5a0 <__sprint_r.part.0+0xd0>
 400a534:	0039883a 	mov	fp,zero
 400a538:	00000206 	br	400a544 <__sprint_r.part.0+0x74>
 400a53c:	bdc00104 	addi	r23,r23,4
 400a540:	97001626 	beq	r18,fp,400a59c <__sprint_r.part.0+0xcc>
 400a544:	b9400017 	ldw	r5,0(r23)
 400a548:	800d883a 	mov	r6,r16
 400a54c:	8809883a 	mov	r4,r17
 400a550:	400c37c0 	call	400c37c <_fputwc_r>
 400a554:	10bfffe0 	cmpeqi	r2,r2,-1
 400a558:	e7000044 	addi	fp,fp,1
 400a55c:	103ff726 	beq	r2,zero,400a53c <__sprint_r.part.0+0x6c>
 400a560:	00bfffc4 	movi	r2,-1
 400a564:	98000215 	stw	zero,8(r19)
 400a568:	98000115 	stw	zero,4(r19)
 400a56c:	dfc00917 	ldw	ra,36(sp)
 400a570:	df000817 	ldw	fp,32(sp)
 400a574:	ddc00717 	ldw	r23,28(sp)
 400a578:	dd800617 	ldw	r22,24(sp)
 400a57c:	dd400517 	ldw	r21,20(sp)
 400a580:	dd000417 	ldw	r20,16(sp)
 400a584:	dcc00317 	ldw	r19,12(sp)
 400a588:	dc800217 	ldw	r18,8(sp)
 400a58c:	dc400117 	ldw	r17,4(sp)
 400a590:	dc000017 	ldw	r16,0(sp)
 400a594:	dec00a04 	addi	sp,sp,40
 400a598:	f800283a 	ret
 400a59c:	98800217 	ldw	r2,8(r19)
 400a5a0:	adaa703a 	and	r21,r21,r22
 400a5a4:	1545c83a 	sub	r2,r2,r21
 400a5a8:	98800215 	stw	r2,8(r19)
 400a5ac:	a5000204 	addi	r20,r20,8
 400a5b0:	103fdc1e 	bne	r2,zero,400a524 <__sprint_r.part.0+0x54>
 400a5b4:	0005883a 	mov	r2,zero
 400a5b8:	003fea06 	br	400a564 <__sprint_r.part.0+0x94>
 400a5bc:	400c4180 	call	400c418 <__sfvwrite_r>
 400a5c0:	003fe806 	br	400a564 <__sprint_r.part.0+0x94>

0400a5c4 <__sprint_r>:
 400a5c4:	30c00217 	ldw	r3,8(r6)
 400a5c8:	18000126 	beq	r3,zero,400a5d0 <__sprint_r+0xc>
 400a5cc:	400a4d01 	jmpi	400a4d0 <__sprint_r.part.0>
 400a5d0:	30000115 	stw	zero,4(r6)
 400a5d4:	0005883a 	mov	r2,zero
 400a5d8:	f800283a 	ret

0400a5dc <___vfiprintf_internal_r>:
 400a5dc:	deffcf04 	addi	sp,sp,-196
 400a5e0:	dd802d15 	stw	r22,180(sp)
 400a5e4:	dd402c15 	stw	r21,176(sp)
 400a5e8:	dd002b15 	stw	r20,172(sp)
 400a5ec:	dfc03015 	stw	ra,192(sp)
 400a5f0:	df002f15 	stw	fp,188(sp)
 400a5f4:	ddc02e15 	stw	r23,184(sp)
 400a5f8:	dcc02a15 	stw	r19,168(sp)
 400a5fc:	dc802915 	stw	r18,164(sp)
 400a600:	dc402815 	stw	r17,160(sp)
 400a604:	dc002715 	stw	r16,156(sp)
 400a608:	d9c00415 	stw	r7,16(sp)
 400a60c:	202d883a 	mov	r22,r4
 400a610:	282b883a 	mov	r21,r5
 400a614:	3029883a 	mov	r20,r6
 400a618:	20000226 	beq	r4,zero,400a624 <___vfiprintf_internal_r+0x48>
 400a61c:	20800e17 	ldw	r2,56(r4)
 400a620:	1001bd26 	beq	r2,zero,400ad18 <___vfiprintf_internal_r+0x73c>
 400a624:	a880030b 	ldhu	r2,12(r21)
 400a628:	10c8000c 	andi	r3,r2,8192
 400a62c:	1800061e 	bne	r3,zero,400a648 <___vfiprintf_internal_r+0x6c>
 400a630:	a8c01917 	ldw	r3,100(r21)
 400a634:	0137ffc4 	movi	r4,-8193
 400a638:	10880014 	ori	r2,r2,8192
 400a63c:	1906703a 	and	r3,r3,r4
 400a640:	a880030d 	sth	r2,12(r21)
 400a644:	a8c01915 	stw	r3,100(r21)
 400a648:	10c0020c 	andi	r3,r2,8
 400a64c:	18010826 	beq	r3,zero,400aa70 <___vfiprintf_internal_r+0x494>
 400a650:	a8c00417 	ldw	r3,16(r21)
 400a654:	18010626 	beq	r3,zero,400aa70 <___vfiprintf_internal_r+0x494>
 400a658:	1080068c 	andi	r2,r2,26
 400a65c:	10800298 	cmpnei	r2,r2,10
 400a660:	10010b26 	beq	r2,zero,400aa90 <___vfiprintf_internal_r+0x4b4>
 400a664:	dc801704 	addi	r18,sp,92
 400a668:	dc800a15 	stw	r18,40(sp)
 400a66c:	d8000c15 	stw	zero,48(sp)
 400a670:	d8000b15 	stw	zero,44(sp)
 400a674:	9021883a 	mov	r16,r18
 400a678:	d8000515 	stw	zero,20(sp)
 400a67c:	d8000115 	stw	zero,4(sp)
 400a680:	a0800007 	ldb	r2,0(r20)
 400a684:	1000e826 	beq	r2,zero,400aa28 <___vfiprintf_internal_r+0x44c>
 400a688:	a023883a 	mov	r17,r20
 400a68c:	00000306 	br	400a69c <___vfiprintf_internal_r+0xc0>
 400a690:	88800047 	ldb	r2,1(r17)
 400a694:	8c400044 	addi	r17,r17,1
 400a698:	10013326 	beq	r2,zero,400ab68 <___vfiprintf_internal_r+0x58c>
 400a69c:	10800958 	cmpnei	r2,r2,37
 400a6a0:	103ffb1e 	bne	r2,zero,400a690 <___vfiprintf_internal_r+0xb4>
 400a6a4:	8d27c83a 	sub	r19,r17,r20
 400a6a8:	8d01311e 	bne	r17,r20,400ab70 <___vfiprintf_internal_r+0x594>
 400a6ac:	88800003 	ldbu	r2,0(r17)
 400a6b0:	10803fcc 	andi	r2,r2,255
 400a6b4:	1080201c 	xori	r2,r2,128
 400a6b8:	10bfe004 	addi	r2,r2,-128
 400a6bc:	1000da26 	beq	r2,zero,400aa28 <___vfiprintf_internal_r+0x44c>
 400a6c0:	88800047 	ldb	r2,1(r17)
 400a6c4:	8d000044 	addi	r20,r17,1
 400a6c8:	d8000945 	stb	zero,37(sp)
 400a6cc:	000b883a 	mov	r5,zero
 400a6d0:	000d883a 	mov	r6,zero
 400a6d4:	023fffc4 	movi	r8,-1
 400a6d8:	0023883a 	mov	r17,zero
 400a6dc:	001b883a 	mov	r13,zero
 400a6e0:	a5000044 	addi	r20,r20,1
 400a6e4:	10fff804 	addi	r3,r2,-32
 400a6e8:	19001668 	cmpgeui	r4,r3,89
 400a6ec:	20006c1e 	bne	r4,zero,400a8a0 <___vfiprintf_internal_r+0x2c4>
 400a6f0:	180690ba 	slli	r3,r3,2
 400a6f4:	01010074 	movhi	r4,1025
 400a6f8:	1909883a 	add	r4,r3,r4
 400a6fc:	20e9c117 	ldw	r3,-22780(r4)
 400a700:	1800683a 	jmp	r3
 400a704:	0400b040 	call	400b04 <__alt_mem_sdram_controller_0-0x3bff4fc>
 400a708:	0400a8a0 	cmpeqi	r16,zero,674
 400a70c:	0400a8a0 	cmpeqi	r16,zero,674
 400a710:	0400b034 	movhi	r16,704
 400a714:	0400a8a0 	cmpeqi	r16,zero,674
 400a718:	0400a8a0 	cmpeqi	r16,zero,674
 400a71c:	0400a8a0 	cmpeqi	r16,zero,674
 400a720:	0400a8a0 	cmpeqi	r16,zero,674
 400a724:	0400a8a0 	cmpeqi	r16,zero,674
 400a728:	0400a8a0 	cmpeqi	r16,zero,674
 400a72c:	0400b00c 	andi	r16,zero,704
 400a730:	0400affc 	xorhi	r16,zero,703
 400a734:	0400a8a0 	cmpeqi	r16,zero,674
 400a738:	0400afe4 	muli	r16,zero,703
 400a73c:	0400af98 	cmpnei	r16,zero,702
 400a740:	0400a8a0 	cmpeqi	r16,zero,674
 400a744:	0400af8c 	andi	r16,zero,702
 400a748:	0400a868 	cmpgeui	r16,zero,673
 400a74c:	0400a868 	cmpgeui	r16,zero,673
 400a750:	0400a868 	cmpgeui	r16,zero,673
 400a754:	0400a868 	cmpgeui	r16,zero,673
 400a758:	0400a868 	cmpgeui	r16,zero,673
 400a75c:	0400a868 	cmpgeui	r16,zero,673
 400a760:	0400a868 	cmpgeui	r16,zero,673
 400a764:	0400a868 	cmpgeui	r16,zero,673
 400a768:	0400a868 	cmpgeui	r16,zero,673
 400a76c:	0400a8a0 	cmpeqi	r16,zero,674
 400a770:	0400a8a0 	cmpeqi	r16,zero,674
 400a774:	0400a8a0 	cmpeqi	r16,zero,674
 400a778:	0400a8a0 	cmpeqi	r16,zero,674
 400a77c:	0400a8a0 	cmpeqi	r16,zero,674
 400a780:	0400a8a0 	cmpeqi	r16,zero,674
 400a784:	0400a8a0 	cmpeqi	r16,zero,674
 400a788:	0400a8a0 	cmpeqi	r16,zero,674
 400a78c:	0400a8a0 	cmpeqi	r16,zero,674
 400a790:	0400a8a0 	cmpeqi	r16,zero,674
 400a794:	0400ae88 	cmpgei	r16,zero,698
 400a798:	0400a8a0 	cmpeqi	r16,zero,674
 400a79c:	0400a8a0 	cmpeqi	r16,zero,674
 400a7a0:	0400a8a0 	cmpeqi	r16,zero,674
 400a7a4:	0400a8a0 	cmpeqi	r16,zero,674
 400a7a8:	0400a8a0 	cmpeqi	r16,zero,674
 400a7ac:	0400a8a0 	cmpeqi	r16,zero,674
 400a7b0:	0400a8a0 	cmpeqi	r16,zero,674
 400a7b4:	0400a8a0 	cmpeqi	r16,zero,674
 400a7b8:	0400a8a0 	cmpeqi	r16,zero,674
 400a7bc:	0400a8a0 	cmpeqi	r16,zero,674
 400a7c0:	0400ab00 	call	400ab0 <__alt_mem_sdram_controller_0-0x3bff550>
 400a7c4:	0400a8a0 	cmpeqi	r16,zero,674
 400a7c8:	0400a8a0 	cmpeqi	r16,zero,674
 400a7cc:	0400a8a0 	cmpeqi	r16,zero,674
 400a7d0:	0400a8a0 	cmpeqi	r16,zero,674
 400a7d4:	0400a8a0 	cmpeqi	r16,zero,674
 400a7d8:	0400aad8 	cmpnei	r16,zero,683
 400a7dc:	0400a8a0 	cmpeqi	r16,zero,674
 400a7e0:	0400a8a0 	cmpeqi	r16,zero,674
 400a7e4:	0400b094 	movui	r16,706
 400a7e8:	0400a8a0 	cmpeqi	r16,zero,674
 400a7ec:	0400a8a0 	cmpeqi	r16,zero,674
 400a7f0:	0400a8a0 	cmpeqi	r16,zero,674
 400a7f4:	0400a8a0 	cmpeqi	r16,zero,674
 400a7f8:	0400a8a0 	cmpeqi	r16,zero,674
 400a7fc:	0400a8a0 	cmpeqi	r16,zero,674
 400a800:	0400a8a0 	cmpeqi	r16,zero,674
 400a804:	0400a8a0 	cmpeqi	r16,zero,674
 400a808:	0400a8a0 	cmpeqi	r16,zero,674
 400a80c:	0400a8a0 	cmpeqi	r16,zero,674
 400a810:	0400b06c 	andhi	r16,zero,705
 400a814:	0400ad20 	cmpeqi	r16,zero,692
 400a818:	0400a8a0 	cmpeqi	r16,zero,674
 400a81c:	0400a8a0 	cmpeqi	r16,zero,674
 400a820:	0400a8a0 	cmpeqi	r16,zero,674
 400a824:	0400ad94 	movui	r16,694
 400a828:	0400ad20 	cmpeqi	r16,zero,692
 400a82c:	0400a8a0 	cmpeqi	r16,zero,674
 400a830:	0400a8a0 	cmpeqi	r16,zero,674
 400a834:	0400b118 	cmpnei	r16,zero,708
 400a838:	0400a8a0 	cmpeqi	r16,zero,674
 400a83c:	0400b0dc 	xori	r16,zero,707
 400a840:	0400ab04 	movi	r16,684
 400a844:	0400ae4c 	andi	r16,zero,697
 400a848:	0400ae40 	call	400ae4 <__alt_mem_sdram_controller_0-0x3bff51c>
 400a84c:	0400a8a0 	cmpeqi	r16,zero,674
 400a850:	0400ade8 	cmpgeui	r16,zero,695
 400a854:	0400a8a0 	cmpeqi	r16,zero,674
 400a858:	0400aadc 	xori	r16,zero,683
 400a85c:	0400a8a0 	cmpeqi	r16,zero,674
 400a860:	0400a8a0 	cmpeqi	r16,zero,674
 400a864:	0400ada0 	cmpeqi	r16,zero,694
 400a868:	0023883a 	mov	r17,zero
 400a86c:	113ff404 	addi	r4,r2,-48
 400a870:	880690ba 	slli	r3,r17,2
 400a874:	a0800007 	ldb	r2,0(r20)
 400a878:	a5000044 	addi	r20,r20,1
 400a87c:	1c63883a 	add	r17,r3,r17
 400a880:	8c63883a 	add	r17,r17,r17
 400a884:	2463883a 	add	r17,r4,r17
 400a888:	113ff404 	addi	r4,r2,-48
 400a88c:	20c002b0 	cmpltui	r3,r4,10
 400a890:	183ff71e 	bne	r3,zero,400a870 <___vfiprintf_internal_r+0x294>
 400a894:	10fff804 	addi	r3,r2,-32
 400a898:	19001668 	cmpgeui	r4,r3,89
 400a89c:	203f9426 	beq	r4,zero,400a6f0 <___vfiprintf_internal_r+0x114>
 400a8a0:	29403fcc 	andi	r5,r5,255
 400a8a4:	2803ed1e 	bne	r5,zero,400b85c <___vfiprintf_internal_r+0x1280>
 400a8a8:	10005f26 	beq	r2,zero,400aa28 <___vfiprintf_internal_r+0x44c>
 400a8ac:	d8800d05 	stb	r2,52(sp)
 400a8b0:	d8000945 	stb	zero,37(sp)
 400a8b4:	05c00044 	movi	r23,1
 400a8b8:	07000044 	movi	fp,1
 400a8bc:	dcc00d04 	addi	r19,sp,52
 400a8c0:	db400015 	stw	r13,0(sp)
 400a8c4:	0011883a 	mov	r8,zero
 400a8c8:	d8800017 	ldw	r2,0(sp)
 400a8cc:	1380008c 	andi	r14,r2,2
 400a8d0:	70000126 	beq	r14,zero,400a8d8 <___vfiprintf_internal_r+0x2fc>
 400a8d4:	bdc00084 	addi	r23,r23,2
 400a8d8:	d8800017 	ldw	r2,0(sp)
 400a8dc:	d9000b17 	ldw	r4,44(sp)
 400a8e0:	1340210c 	andi	r13,r2,132
 400a8e4:	21800044 	addi	r6,r4,1
 400a8e8:	d8800c17 	ldw	r2,48(sp)
 400a8ec:	300b883a 	mov	r5,r6
 400a8f0:	6800021e 	bne	r13,zero,400a8fc <___vfiprintf_internal_r+0x320>
 400a8f4:	8dc7c83a 	sub	r3,r17,r23
 400a8f8:	00c2e216 	blt	zero,r3,400b484 <___vfiprintf_internal_r+0xea8>
 400a8fc:	d8c00947 	ldb	r3,37(sp)
 400a900:	81800204 	addi	r6,r16,8
 400a904:	18000d26 	beq	r3,zero,400a93c <___vfiprintf_internal_r+0x360>
 400a908:	d8c00944 	addi	r3,sp,37
 400a90c:	10800044 	addi	r2,r2,1
 400a910:	80c00015 	stw	r3,0(r16)
 400a914:	00c00044 	movi	r3,1
 400a918:	80c00115 	stw	r3,4(r16)
 400a91c:	d8800c15 	stw	r2,48(sp)
 400a920:	d9400b15 	stw	r5,44(sp)
 400a924:	28c00208 	cmpgei	r3,r5,8
 400a928:	18029a1e 	bne	r3,zero,400b394 <___vfiprintf_internal_r+0xdb8>
 400a92c:	2809883a 	mov	r4,r5
 400a930:	3021883a 	mov	r16,r6
 400a934:	29400044 	addi	r5,r5,1
 400a938:	31800204 	addi	r6,r6,8
 400a93c:	70001826 	beq	r14,zero,400a9a0 <___vfiprintf_internal_r+0x3c4>
 400a940:	d8c00984 	addi	r3,sp,38
 400a944:	10800084 	addi	r2,r2,2
 400a948:	80c00015 	stw	r3,0(r16)
 400a94c:	00c00084 	movi	r3,2
 400a950:	80c00115 	stw	r3,4(r16)
 400a954:	d8800c15 	stw	r2,48(sp)
 400a958:	d9400b15 	stw	r5,44(sp)
 400a95c:	28c00208 	cmpgei	r3,r5,8
 400a960:	1802a426 	beq	r3,zero,400b3f4 <___vfiprintf_internal_r+0xe18>
 400a964:	10032226 	beq	r2,zero,400b5f0 <___vfiprintf_internal_r+0x1014>
 400a968:	d9800a04 	addi	r6,sp,40
 400a96c:	a80b883a 	mov	r5,r21
 400a970:	b009883a 	mov	r4,r22
 400a974:	da000315 	stw	r8,12(sp)
 400a978:	db400215 	stw	r13,8(sp)
 400a97c:	400a4d00 	call	400a4d0 <__sprint_r.part.0>
 400a980:	10002b1e 	bne	r2,zero,400aa30 <___vfiprintf_internal_r+0x454>
 400a984:	d9000b17 	ldw	r4,44(sp)
 400a988:	d8800c17 	ldw	r2,48(sp)
 400a98c:	da000317 	ldw	r8,12(sp)
 400a990:	db400217 	ldw	r13,8(sp)
 400a994:	d9801904 	addi	r6,sp,100
 400a998:	21400044 	addi	r5,r4,1
 400a99c:	9021883a 	mov	r16,r18
 400a9a0:	6b402018 	cmpnei	r13,r13,128
 400a9a4:	6801e526 	beq	r13,zero,400b13c <___vfiprintf_internal_r+0xb60>
 400a9a8:	4711c83a 	sub	r8,r8,fp
 400a9ac:	02022416 	blt	zero,r8,400b240 <___vfiprintf_internal_r+0xc64>
 400a9b0:	e085883a 	add	r2,fp,r2
 400a9b4:	d9400b15 	stw	r5,44(sp)
 400a9b8:	84c00015 	stw	r19,0(r16)
 400a9bc:	87000115 	stw	fp,4(r16)
 400a9c0:	d8800c15 	stw	r2,48(sp)
 400a9c4:	29400210 	cmplti	r5,r5,8
 400a9c8:	2800081e 	bne	r5,zero,400a9ec <___vfiprintf_internal_r+0x410>
 400a9cc:	10009826 	beq	r2,zero,400ac30 <___vfiprintf_internal_r+0x654>
 400a9d0:	d9800a04 	addi	r6,sp,40
 400a9d4:	a80b883a 	mov	r5,r21
 400a9d8:	b009883a 	mov	r4,r22
 400a9dc:	400a4d00 	call	400a4d0 <__sprint_r.part.0>
 400a9e0:	1000131e 	bne	r2,zero,400aa30 <___vfiprintf_internal_r+0x454>
 400a9e4:	d8800c17 	ldw	r2,48(sp)
 400a9e8:	900d883a 	mov	r6,r18
 400a9ec:	d8c00017 	ldw	r3,0(sp)
 400a9f0:	1cc0010c 	andi	r19,r3,4
 400a9f4:	98000226 	beq	r19,zero,400aa00 <___vfiprintf_internal_r+0x424>
 400a9f8:	8de1c83a 	sub	r16,r17,r23
 400a9fc:	04009316 	blt	zero,r16,400ac4c <___vfiprintf_internal_r+0x670>
 400aa00:	8dc0010e 	bge	r17,r23,400aa08 <___vfiprintf_internal_r+0x42c>
 400aa04:	b823883a 	mov	r17,r23
 400aa08:	d8c00117 	ldw	r3,4(sp)
 400aa0c:	1c47883a 	add	r3,r3,r17
 400aa10:	d8c00115 	stw	r3,4(sp)
 400aa14:	1002551e 	bne	r2,zero,400b36c <___vfiprintf_internal_r+0xd90>
 400aa18:	a0800007 	ldb	r2,0(r20)
 400aa1c:	d8000b15 	stw	zero,44(sp)
 400aa20:	9021883a 	mov	r16,r18
 400aa24:	103f181e 	bne	r2,zero,400a688 <___vfiprintf_internal_r+0xac>
 400aa28:	d8800c17 	ldw	r2,48(sp)
 400aa2c:	10038d1e 	bne	r2,zero,400b864 <___vfiprintf_internal_r+0x1288>
 400aa30:	a880030b 	ldhu	r2,12(r21)
 400aa34:	1080100c 	andi	r2,r2,64
 400aa38:	1003a51e 	bne	r2,zero,400b8d0 <___vfiprintf_internal_r+0x12f4>
 400aa3c:	d8800117 	ldw	r2,4(sp)
 400aa40:	dfc03017 	ldw	ra,192(sp)
 400aa44:	df002f17 	ldw	fp,188(sp)
 400aa48:	ddc02e17 	ldw	r23,184(sp)
 400aa4c:	dd802d17 	ldw	r22,180(sp)
 400aa50:	dd402c17 	ldw	r21,176(sp)
 400aa54:	dd002b17 	ldw	r20,172(sp)
 400aa58:	dcc02a17 	ldw	r19,168(sp)
 400aa5c:	dc802917 	ldw	r18,164(sp)
 400aa60:	dc402817 	ldw	r17,160(sp)
 400aa64:	dc002717 	ldw	r16,156(sp)
 400aa68:	dec03104 	addi	sp,sp,196
 400aa6c:	f800283a 	ret
 400aa70:	a80b883a 	mov	r5,r21
 400aa74:	b009883a 	mov	r4,r22
 400aa78:	400b9fc0 	call	400b9fc <__swsetup_r>
 400aa7c:	1003941e 	bne	r2,zero,400b8d0 <___vfiprintf_internal_r+0x12f4>
 400aa80:	a880030b 	ldhu	r2,12(r21)
 400aa84:	1080068c 	andi	r2,r2,26
 400aa88:	10800298 	cmpnei	r2,r2,10
 400aa8c:	103ef51e 	bne	r2,zero,400a664 <___vfiprintf_internal_r+0x88>
 400aa90:	a880038f 	ldh	r2,14(r21)
 400aa94:	103ef316 	blt	r2,zero,400a664 <___vfiprintf_internal_r+0x88>
 400aa98:	d9c00417 	ldw	r7,16(sp)
 400aa9c:	a00d883a 	mov	r6,r20
 400aaa0:	a80b883a 	mov	r5,r21
 400aaa4:	b009883a 	mov	r4,r22
 400aaa8:	dfc03017 	ldw	ra,192(sp)
 400aaac:	df002f17 	ldw	fp,188(sp)
 400aab0:	ddc02e17 	ldw	r23,184(sp)
 400aab4:	dd802d17 	ldw	r22,180(sp)
 400aab8:	dd402c17 	ldw	r21,176(sp)
 400aabc:	dd002b17 	ldw	r20,172(sp)
 400aac0:	dcc02a17 	ldw	r19,168(sp)
 400aac4:	dc802917 	ldw	r18,164(sp)
 400aac8:	dc402817 	ldw	r17,160(sp)
 400aacc:	dc002717 	ldw	r16,156(sp)
 400aad0:	dec03104 	addi	sp,sp,196
 400aad4:	400b93c1 	jmpi	400b93c <__sbprintf>
 400aad8:	6b400414 	ori	r13,r13,16
 400aadc:	6880080c 	andi	r2,r13,32
 400aae0:	10004726 	beq	r2,zero,400ac00 <___vfiprintf_internal_r+0x624>
 400aae4:	d8c00417 	ldw	r3,16(sp)
 400aae8:	00800044 	movi	r2,1
 400aaec:	1dc00017 	ldw	r23,0(r3)
 400aaf0:	1f000117 	ldw	fp,4(r3)
 400aaf4:	18c00204 	addi	r3,r3,8
 400aaf8:	d8c00415 	stw	r3,16(sp)
 400aafc:	00000906 	br	400ab24 <___vfiprintf_internal_r+0x548>
 400ab00:	6b400414 	ori	r13,r13,16
 400ab04:	6880080c 	andi	r2,r13,32
 400ab08:	10003126 	beq	r2,zero,400abd0 <___vfiprintf_internal_r+0x5f4>
 400ab0c:	d8c00417 	ldw	r3,16(sp)
 400ab10:	0005883a 	mov	r2,zero
 400ab14:	1dc00017 	ldw	r23,0(r3)
 400ab18:	1f000117 	ldw	fp,4(r3)
 400ab1c:	18c00204 	addi	r3,r3,8
 400ab20:	d8c00415 	stw	r3,16(sp)
 400ab24:	d8000945 	stb	zero,37(sp)
 400ab28:	40ffffe0 	cmpeqi	r3,r8,-1
 400ab2c:	001d883a 	mov	r14,zero
 400ab30:	1800f01e 	bne	r3,zero,400aef4 <___vfiprintf_internal_r+0x918>
 400ab34:	04ffdfc4 	movi	r19,-129
 400ab38:	6cc8703a 	and	r4,r13,r19
 400ab3c:	bf06b03a 	or	r3,r23,fp
 400ab40:	d9000015 	stw	r4,0(sp)
 400ab44:	1802301e 	bne	r3,zero,400b408 <___vfiprintf_internal_r+0xe2c>
 400ab48:	4001f31e 	bne	r8,zero,400b318 <___vfiprintf_internal_r+0xd3c>
 400ab4c:	10029e1e 	bne	r2,zero,400b5c8 <___vfiprintf_internal_r+0xfec>
 400ab50:	6f00004c 	andi	fp,r13,1
 400ab54:	e002bc26 	beq	fp,zero,400b648 <___vfiprintf_internal_r+0x106c>
 400ab58:	00800c04 	movi	r2,48
 400ab5c:	d88016c5 	stb	r2,91(sp)
 400ab60:	dcc016c4 	addi	r19,sp,91
 400ab64:	00010006 	br	400af68 <___vfiprintf_internal_r+0x98c>
 400ab68:	8d27c83a 	sub	r19,r17,r20
 400ab6c:	8d3fae26 	beq	r17,r20,400aa28 <___vfiprintf_internal_r+0x44c>
 400ab70:	d8c00c17 	ldw	r3,48(sp)
 400ab74:	d8800b17 	ldw	r2,44(sp)
 400ab78:	85000015 	stw	r20,0(r16)
 400ab7c:	98c7883a 	add	r3,r19,r3
 400ab80:	10800044 	addi	r2,r2,1
 400ab84:	d8800b15 	stw	r2,44(sp)
 400ab88:	84c00115 	stw	r19,4(r16)
 400ab8c:	d8c00c15 	stw	r3,48(sp)
 400ab90:	10800208 	cmpgei	r2,r2,8
 400ab94:	1000061e 	bne	r2,zero,400abb0 <___vfiprintf_internal_r+0x5d4>
 400ab98:	84000204 	addi	r16,r16,8
 400ab9c:	d8c00117 	ldw	r3,4(sp)
 400aba0:	88800003 	ldbu	r2,0(r17)
 400aba4:	1cc7883a 	add	r3,r3,r19
 400aba8:	d8c00115 	stw	r3,4(sp)
 400abac:	003ec006 	br	400a6b0 <___vfiprintf_internal_r+0xd4>
 400abb0:	18028126 	beq	r3,zero,400b5b8 <___vfiprintf_internal_r+0xfdc>
 400abb4:	d9800a04 	addi	r6,sp,40
 400abb8:	a80b883a 	mov	r5,r21
 400abbc:	b009883a 	mov	r4,r22
 400abc0:	400a4d00 	call	400a4d0 <__sprint_r.part.0>
 400abc4:	103f9a1e 	bne	r2,zero,400aa30 <___vfiprintf_internal_r+0x454>
 400abc8:	9021883a 	mov	r16,r18
 400abcc:	003ff306 	br	400ab9c <___vfiprintf_internal_r+0x5c0>
 400abd0:	d9000417 	ldw	r4,16(sp)
 400abd4:	6880040c 	andi	r2,r13,16
 400abd8:	20c00104 	addi	r3,r4,4
 400abdc:	1002ac1e 	bne	r2,zero,400b690 <___vfiprintf_internal_r+0x10b4>
 400abe0:	6880100c 	andi	r2,r13,64
 400abe4:	1002fb26 	beq	r2,zero,400b7d4 <___vfiprintf_internal_r+0x11f8>
 400abe8:	d8800417 	ldw	r2,16(sp)
 400abec:	0039883a 	mov	fp,zero
 400abf0:	d8c00415 	stw	r3,16(sp)
 400abf4:	15c0000b 	ldhu	r23,0(r2)
 400abf8:	0005883a 	mov	r2,zero
 400abfc:	003fc906 	br	400ab24 <___vfiprintf_internal_r+0x548>
 400ac00:	d9000417 	ldw	r4,16(sp)
 400ac04:	6880040c 	andi	r2,r13,16
 400ac08:	20c00104 	addi	r3,r4,4
 400ac0c:	1002af1e 	bne	r2,zero,400b6cc <___vfiprintf_internal_r+0x10f0>
 400ac10:	6880100c 	andi	r2,r13,64
 400ac14:	1002fb26 	beq	r2,zero,400b804 <___vfiprintf_internal_r+0x1228>
 400ac18:	d8800417 	ldw	r2,16(sp)
 400ac1c:	0039883a 	mov	fp,zero
 400ac20:	d8c00415 	stw	r3,16(sp)
 400ac24:	15c0000b 	ldhu	r23,0(r2)
 400ac28:	00800044 	movi	r2,1
 400ac2c:	003fbd06 	br	400ab24 <___vfiprintf_internal_r+0x548>
 400ac30:	d8c00017 	ldw	r3,0(sp)
 400ac34:	d8000b15 	stw	zero,44(sp)
 400ac38:	1cc0010c 	andi	r19,r3,4
 400ac3c:	98024c26 	beq	r19,zero,400b570 <___vfiprintf_internal_r+0xf94>
 400ac40:	8de1c83a 	sub	r16,r17,r23
 400ac44:	04024a0e 	bge	zero,r16,400b570 <___vfiprintf_internal_r+0xf94>
 400ac48:	900d883a 	mov	r6,r18
 400ac4c:	80c00450 	cmplti	r3,r16,17
 400ac50:	d9000b17 	ldw	r4,44(sp)
 400ac54:	01c10074 	movhi	r7,1025
 400ac58:	18031a1e 	bne	r3,zero,400b8c4 <___vfiprintf_internal_r+0x12e8>
 400ac5c:	39c9d004 	addi	r7,r7,10048
 400ac60:	04c00404 	movi	r19,16
 400ac64:	00000606 	br	400ac80 <___vfiprintf_internal_r+0x6a4>
 400ac68:	21400084 	addi	r5,r4,2
 400ac6c:	31800204 	addi	r6,r6,8
 400ac70:	1809883a 	mov	r4,r3
 400ac74:	843ffc04 	addi	r16,r16,-16
 400ac78:	80c00448 	cmpgei	r3,r16,17
 400ac7c:	18001726 	beq	r3,zero,400acdc <___vfiprintf_internal_r+0x700>
 400ac80:	20c00044 	addi	r3,r4,1
 400ac84:	10800404 	addi	r2,r2,16
 400ac88:	31c00015 	stw	r7,0(r6)
 400ac8c:	34c00115 	stw	r19,4(r6)
 400ac90:	d8800c15 	stw	r2,48(sp)
 400ac94:	d8c00b15 	stw	r3,44(sp)
 400ac98:	19400208 	cmpgei	r5,r3,8
 400ac9c:	283ff226 	beq	r5,zero,400ac68 <___vfiprintf_internal_r+0x68c>
 400aca0:	d9800a04 	addi	r6,sp,40
 400aca4:	a80b883a 	mov	r5,r21
 400aca8:	b009883a 	mov	r4,r22
 400acac:	10011f26 	beq	r2,zero,400b12c <___vfiprintf_internal_r+0xb50>
 400acb0:	d9c00015 	stw	r7,0(sp)
 400acb4:	400a4d00 	call	400a4d0 <__sprint_r.part.0>
 400acb8:	103f5d1e 	bne	r2,zero,400aa30 <___vfiprintf_internal_r+0x454>
 400acbc:	d9000b17 	ldw	r4,44(sp)
 400acc0:	843ffc04 	addi	r16,r16,-16
 400acc4:	80c00448 	cmpgei	r3,r16,17
 400acc8:	d8800c17 	ldw	r2,48(sp)
 400accc:	d9c00017 	ldw	r7,0(sp)
 400acd0:	900d883a 	mov	r6,r18
 400acd4:	21400044 	addi	r5,r4,1
 400acd8:	183fe91e 	bne	r3,zero,400ac80 <___vfiprintf_internal_r+0x6a4>
 400acdc:	1405883a 	add	r2,r2,r16
 400ace0:	d9400b15 	stw	r5,44(sp)
 400ace4:	31c00015 	stw	r7,0(r6)
 400ace8:	34000115 	stw	r16,4(r6)
 400acec:	d8800c15 	stw	r2,48(sp)
 400acf0:	29400210 	cmplti	r5,r5,8
 400acf4:	283f421e 	bne	r5,zero,400aa00 <___vfiprintf_internal_r+0x424>
 400acf8:	10021d26 	beq	r2,zero,400b570 <___vfiprintf_internal_r+0xf94>
 400acfc:	d9800a04 	addi	r6,sp,40
 400ad00:	a80b883a 	mov	r5,r21
 400ad04:	b009883a 	mov	r4,r22
 400ad08:	400a4d00 	call	400a4d0 <__sprint_r.part.0>
 400ad0c:	103f481e 	bne	r2,zero,400aa30 <___vfiprintf_internal_r+0x454>
 400ad10:	d8800c17 	ldw	r2,48(sp)
 400ad14:	003f3a06 	br	400aa00 <___vfiprintf_internal_r+0x424>
 400ad18:	400c1d00 	call	400c1d0 <__sinit>
 400ad1c:	003e4106 	br	400a624 <___vfiprintf_internal_r+0x48>
 400ad20:	29403fcc 	andi	r5,r5,255
 400ad24:	2802da1e 	bne	r5,zero,400b890 <___vfiprintf_internal_r+0x12b4>
 400ad28:	6880080c 	andi	r2,r13,32
 400ad2c:	10005b26 	beq	r2,zero,400ae9c <___vfiprintf_internal_r+0x8c0>
 400ad30:	d8c00417 	ldw	r3,16(sp)
 400ad34:	18800117 	ldw	r2,4(r3)
 400ad38:	1dc00017 	ldw	r23,0(r3)
 400ad3c:	18c00204 	addi	r3,r3,8
 400ad40:	d8c00415 	stw	r3,16(sp)
 400ad44:	1039883a 	mov	fp,r2
 400ad48:	10006016 	blt	r2,zero,400aecc <___vfiprintf_internal_r+0x8f0>
 400ad4c:	40bfffd8 	cmpnei	r2,r8,-1
 400ad50:	db800943 	ldbu	r14,37(sp)
 400ad54:	10000626 	beq	r2,zero,400ad70 <___vfiprintf_internal_r+0x794>
 400ad58:	04ffdfc4 	movi	r19,-129
 400ad5c:	6cc6703a 	and	r3,r13,r19
 400ad60:	bf04b03a 	or	r2,r23,fp
 400ad64:	d8c00015 	stw	r3,0(sp)
 400ad68:	10021626 	beq	r2,zero,400b5c4 <___vfiprintf_internal_r+0xfe8>
 400ad6c:	db400017 	ldw	r13,0(sp)
 400ad70:	e001a71e 	bne	fp,zero,400b410 <___vfiprintf_internal_r+0xe34>
 400ad74:	b88002a8 	cmpgeui	r2,r23,10
 400ad78:	1001a51e 	bne	r2,zero,400b410 <___vfiprintf_internal_r+0xe34>
 400ad7c:	bdc00c04 	addi	r23,r23,48
 400ad80:	ddc016c5 	stb	r23,91(sp)
 400ad84:	db400015 	stw	r13,0(sp)
 400ad88:	07000044 	movi	fp,1
 400ad8c:	dcc016c4 	addi	r19,sp,91
 400ad90:	00007506 	br	400af68 <___vfiprintf_internal_r+0x98c>
 400ad94:	a0800007 	ldb	r2,0(r20)
 400ad98:	6b401014 	ori	r13,r13,64
 400ad9c:	003e5006 	br	400a6e0 <___vfiprintf_internal_r+0x104>
 400ada0:	29403fcc 	andi	r5,r5,255
 400ada4:	2802bc1e 	bne	r5,zero,400b898 <___vfiprintf_internal_r+0x12bc>
 400ada8:	00c10074 	movhi	r3,1025
 400adac:	18c88804 	addi	r3,r3,8736
 400adb0:	d8c00515 	stw	r3,20(sp)
 400adb4:	68c0080c 	andi	r3,r13,32
 400adb8:	1800bd26 	beq	r3,zero,400b0b0 <___vfiprintf_internal_r+0xad4>
 400adbc:	d8c00417 	ldw	r3,16(sp)
 400adc0:	1dc00017 	ldw	r23,0(r3)
 400adc4:	1f000117 	ldw	fp,4(r3)
 400adc8:	18c00204 	addi	r3,r3,8
 400adcc:	d8c00415 	stw	r3,16(sp)
 400add0:	68c0004c 	andi	r3,r13,1
 400add4:	18000226 	beq	r3,zero,400ade0 <___vfiprintf_internal_r+0x804>
 400add8:	bf06b03a 	or	r3,r23,fp
 400addc:	1802261e 	bne	r3,zero,400b678 <___vfiprintf_internal_r+0x109c>
 400ade0:	00800084 	movi	r2,2
 400ade4:	003f4f06 	br	400ab24 <___vfiprintf_internal_r+0x548>
 400ade8:	d8800417 	ldw	r2,16(sp)
 400adec:	d8000945 	stb	zero,37(sp)
 400adf0:	14c00017 	ldw	r19,0(r2)
 400adf4:	10c00104 	addi	r3,r2,4
 400adf8:	98026926 	beq	r19,zero,400b7a0 <___vfiprintf_internal_r+0x11c4>
 400adfc:	40bfffe0 	cmpeqi	r2,r8,-1
 400ae00:	1002411e 	bne	r2,zero,400b708 <___vfiprintf_internal_r+0x112c>
 400ae04:	400d883a 	mov	r6,r8
 400ae08:	000b883a 	mov	r5,zero
 400ae0c:	9809883a 	mov	r4,r19
 400ae10:	d8c00315 	stw	r3,12(sp)
 400ae14:	db400215 	stw	r13,8(sp)
 400ae18:	da000015 	stw	r8,0(sp)
 400ae1c:	400688c0 	call	400688c <memchr>
 400ae20:	da000017 	ldw	r8,0(sp)
 400ae24:	db400217 	ldw	r13,8(sp)
 400ae28:	d8c00317 	ldw	r3,12(sp)
 400ae2c:	10029426 	beq	r2,zero,400b880 <___vfiprintf_internal_r+0x12a4>
 400ae30:	14f9c83a 	sub	fp,r2,r19
 400ae34:	e02f883a 	mov	r23,fp
 400ae38:	d8c00415 	stw	r3,16(sp)
 400ae3c:	003ea006 	br	400a8c0 <___vfiprintf_internal_r+0x2e4>
 400ae40:	a0800007 	ldb	r2,0(r20)
 400ae44:	6b400814 	ori	r13,r13,32
 400ae48:	003e2506 	br	400a6e0 <___vfiprintf_internal_r+0x104>
 400ae4c:	d8c00417 	ldw	r3,16(sp)
 400ae50:	00800c04 	movi	r2,48
 400ae54:	d8800985 	stb	r2,38(sp)
 400ae58:	00801e04 	movi	r2,120
 400ae5c:	01010074 	movhi	r4,1025
 400ae60:	d88009c5 	stb	r2,39(sp)
 400ae64:	18800104 	addi	r2,r3,4
 400ae68:	d8800415 	stw	r2,16(sp)
 400ae6c:	20888804 	addi	r2,r4,8736
 400ae70:	d8800515 	stw	r2,20(sp)
 400ae74:	1dc00017 	ldw	r23,0(r3)
 400ae78:	0039883a 	mov	fp,zero
 400ae7c:	6b400094 	ori	r13,r13,2
 400ae80:	00800084 	movi	r2,2
 400ae84:	003f2706 	br	400ab24 <___vfiprintf_internal_r+0x548>
 400ae88:	29403fcc 	andi	r5,r5,255
 400ae8c:	2802841e 	bne	r5,zero,400b8a0 <___vfiprintf_internal_r+0x12c4>
 400ae90:	6b400414 	ori	r13,r13,16
 400ae94:	6880080c 	andi	r2,r13,32
 400ae98:	103fa51e 	bne	r2,zero,400ad30 <___vfiprintf_internal_r+0x754>
 400ae9c:	d9000417 	ldw	r4,16(sp)
 400aea0:	6880040c 	andi	r2,r13,16
 400aea4:	20c00104 	addi	r3,r4,4
 400aea8:	1001ee1e 	bne	r2,zero,400b664 <___vfiprintf_internal_r+0x1088>
 400aeac:	6880100c 	andi	r2,r13,64
 400aeb0:	10024e26 	beq	r2,zero,400b7ec <___vfiprintf_internal_r+0x1210>
 400aeb4:	d8800417 	ldw	r2,16(sp)
 400aeb8:	d8c00415 	stw	r3,16(sp)
 400aebc:	15c0000f 	ldh	r23,0(r2)
 400aec0:	b839d7fa 	srai	fp,r23,31
 400aec4:	e005883a 	mov	r2,fp
 400aec8:	103fa00e 	bge	r2,zero,400ad4c <___vfiprintf_internal_r+0x770>
 400aecc:	b804c03a 	cmpne	r2,r23,zero
 400aed0:	0739c83a 	sub	fp,zero,fp
 400aed4:	e0b9c83a 	sub	fp,fp,r2
 400aed8:	00800b44 	movi	r2,45
 400aedc:	d8800945 	stb	r2,37(sp)
 400aee0:	40ffffe0 	cmpeqi	r3,r8,-1
 400aee4:	05efc83a 	sub	r23,zero,r23
 400aee8:	03800b44 	movi	r14,45
 400aeec:	00800044 	movi	r2,1
 400aef0:	183f1026 	beq	r3,zero,400ab34 <___vfiprintf_internal_r+0x558>
 400aef4:	10c00060 	cmpeqi	r3,r2,1
 400aef8:	183f9d1e 	bne	r3,zero,400ad70 <___vfiprintf_internal_r+0x794>
 400aefc:	108000a0 	cmpeqi	r2,r2,2
 400af00:	10010a1e 	bne	r2,zero,400b32c <___vfiprintf_internal_r+0xd50>
 400af04:	9027883a 	mov	r19,r18
 400af08:	e008977a 	slli	r4,fp,29
 400af0c:	b806d0fa 	srli	r3,r23,3
 400af10:	e038d0fa 	srli	fp,fp,3
 400af14:	b88001cc 	andi	r2,r23,7
 400af18:	10800c04 	addi	r2,r2,48
 400af1c:	20eeb03a 	or	r23,r4,r3
 400af20:	98bfffc5 	stb	r2,-1(r19)
 400af24:	bf06b03a 	or	r3,r23,fp
 400af28:	980b883a 	mov	r5,r19
 400af2c:	9cffffc4 	addi	r19,r19,-1
 400af30:	183ff51e 	bne	r3,zero,400af08 <___vfiprintf_internal_r+0x92c>
 400af34:	68c0004c 	andi	r3,r13,1
 400af38:	18010926 	beq	r3,zero,400b360 <___vfiprintf_internal_r+0xd84>
 400af3c:	10803fcc 	andi	r2,r2,255
 400af40:	1080201c 	xori	r2,r2,128
 400af44:	10bfe004 	addi	r2,r2,-128
 400af48:	10800c18 	cmpnei	r2,r2,48
 400af4c:	10010426 	beq	r2,zero,400b360 <___vfiprintf_internal_r+0xd84>
 400af50:	297fff84 	addi	r5,r5,-2
 400af54:	00800c04 	movi	r2,48
 400af58:	98bfffc5 	stb	r2,-1(r19)
 400af5c:	9179c83a 	sub	fp,r18,r5
 400af60:	db400015 	stw	r13,0(sp)
 400af64:	2827883a 	mov	r19,r5
 400af68:	402f883a 	mov	r23,r8
 400af6c:	4700010e 	bge	r8,fp,400af74 <___vfiprintf_internal_r+0x998>
 400af70:	e02f883a 	mov	r23,fp
 400af74:	73803fcc 	andi	r14,r14,255
 400af78:	7380201c 	xori	r14,r14,128
 400af7c:	73bfe004 	addi	r14,r14,-128
 400af80:	703e5126 	beq	r14,zero,400a8c8 <___vfiprintf_internal_r+0x2ec>
 400af84:	bdc00044 	addi	r23,r23,1
 400af88:	003e4f06 	br	400a8c8 <___vfiprintf_internal_r+0x2ec>
 400af8c:	a0800007 	ldb	r2,0(r20)
 400af90:	6b402014 	ori	r13,r13,128
 400af94:	003dd206 	br	400a6e0 <___vfiprintf_internal_r+0x104>
 400af98:	a0800007 	ldb	r2,0(r20)
 400af9c:	a0c00044 	addi	r3,r20,1
 400afa0:	11000aa0 	cmpeqi	r4,r2,42
 400afa4:	2002521e 	bne	r4,zero,400b8f0 <___vfiprintf_internal_r+0x1314>
 400afa8:	113ff404 	addi	r4,r2,-48
 400afac:	21c002b0 	cmpltui	r7,r4,10
 400afb0:	1829883a 	mov	r20,r3
 400afb4:	0011883a 	mov	r8,zero
 400afb8:	383dca26 	beq	r7,zero,400a6e4 <___vfiprintf_internal_r+0x108>
 400afbc:	400690ba 	slli	r3,r8,2
 400afc0:	a0800007 	ldb	r2,0(r20)
 400afc4:	a5000044 	addi	r20,r20,1
 400afc8:	1a11883a 	add	r8,r3,r8
 400afcc:	4211883a 	add	r8,r8,r8
 400afd0:	4111883a 	add	r8,r8,r4
 400afd4:	113ff404 	addi	r4,r2,-48
 400afd8:	20c002b0 	cmpltui	r3,r4,10
 400afdc:	183ff71e 	bne	r3,zero,400afbc <___vfiprintf_internal_r+0x9e0>
 400afe0:	003dc006 	br	400a6e4 <___vfiprintf_internal_r+0x108>
 400afe4:	a0800003 	ldbu	r2,0(r20)
 400afe8:	10803fcc 	andi	r2,r2,255
 400afec:	1080201c 	xori	r2,r2,128
 400aff0:	6b400114 	ori	r13,r13,4
 400aff4:	10bfe004 	addi	r2,r2,-128
 400aff8:	003db906 	br	400a6e0 <___vfiprintf_internal_r+0x104>
 400affc:	a0800007 	ldb	r2,0(r20)
 400b000:	01400044 	movi	r5,1
 400b004:	01800ac4 	movi	r6,43
 400b008:	003db506 	br	400a6e0 <___vfiprintf_internal_r+0x104>
 400b00c:	d8c00417 	ldw	r3,16(sp)
 400b010:	a0800003 	ldbu	r2,0(r20)
 400b014:	1c400017 	ldw	r17,0(r3)
 400b018:	18c00104 	addi	r3,r3,4
 400b01c:	8801b716 	blt	r17,zero,400b6fc <___vfiprintf_internal_r+0x1120>
 400b020:	d8c00415 	stw	r3,16(sp)
 400b024:	10803fcc 	andi	r2,r2,255
 400b028:	1080201c 	xori	r2,r2,128
 400b02c:	10bfe004 	addi	r2,r2,-128
 400b030:	003dab06 	br	400a6e0 <___vfiprintf_internal_r+0x104>
 400b034:	a0800007 	ldb	r2,0(r20)
 400b038:	6b400054 	ori	r13,r13,1
 400b03c:	003da806 	br	400a6e0 <___vfiprintf_internal_r+0x104>
 400b040:	30c03fcc 	andi	r3,r6,255
 400b044:	18c0201c 	xori	r3,r3,128
 400b048:	18ffe004 	addi	r3,r3,-128
 400b04c:	a0800003 	ldbu	r2,0(r20)
 400b050:	183ff41e 	bne	r3,zero,400b024 <___vfiprintf_internal_r+0xa48>
 400b054:	10803fcc 	andi	r2,r2,255
 400b058:	1080201c 	xori	r2,r2,128
 400b05c:	01400044 	movi	r5,1
 400b060:	01800804 	movi	r6,32
 400b064:	10bfe004 	addi	r2,r2,-128
 400b068:	003d9d06 	br	400a6e0 <___vfiprintf_internal_r+0x104>
 400b06c:	d8c00417 	ldw	r3,16(sp)
 400b070:	d8000945 	stb	zero,37(sp)
 400b074:	05c00044 	movi	r23,1
 400b078:	18800017 	ldw	r2,0(r3)
 400b07c:	18c00104 	addi	r3,r3,4
 400b080:	d8c00415 	stw	r3,16(sp)
 400b084:	d8800d05 	stb	r2,52(sp)
 400b088:	07000044 	movi	fp,1
 400b08c:	dcc00d04 	addi	r19,sp,52
 400b090:	003e0b06 	br	400a8c0 <___vfiprintf_internal_r+0x2e4>
 400b094:	29403fcc 	andi	r5,r5,255
 400b098:	2802061e 	bne	r5,zero,400b8b4 <___vfiprintf_internal_r+0x12d8>
 400b09c:	00c10074 	movhi	r3,1025
 400b0a0:	18c88d04 	addi	r3,r3,8756
 400b0a4:	d8c00515 	stw	r3,20(sp)
 400b0a8:	68c0080c 	andi	r3,r13,32
 400b0ac:	183f431e 	bne	r3,zero,400adbc <___vfiprintf_internal_r+0x7e0>
 400b0b0:	d9400417 	ldw	r5,16(sp)
 400b0b4:	68c0040c 	andi	r3,r13,16
 400b0b8:	29000104 	addi	r4,r5,4
 400b0bc:	18017f1e 	bne	r3,zero,400b6bc <___vfiprintf_internal_r+0x10e0>
 400b0c0:	68c0100c 	andi	r3,r13,64
 400b0c4:	1801be26 	beq	r3,zero,400b7c0 <___vfiprintf_internal_r+0x11e4>
 400b0c8:	d8c00417 	ldw	r3,16(sp)
 400b0cc:	0039883a 	mov	fp,zero
 400b0d0:	d9000415 	stw	r4,16(sp)
 400b0d4:	1dc0000b 	ldhu	r23,0(r3)
 400b0d8:	003f3d06 	br	400add0 <___vfiprintf_internal_r+0x7f4>
 400b0dc:	29403fcc 	andi	r5,r5,255
 400b0e0:	2801f61e 	bne	r5,zero,400b8bc <___vfiprintf_internal_r+0x12e0>
 400b0e4:	d9000417 	ldw	r4,16(sp)
 400b0e8:	6880080c 	andi	r2,r13,32
 400b0ec:	20c00017 	ldw	r3,0(r4)
 400b0f0:	21000104 	addi	r4,r4,4
 400b0f4:	10016b1e 	bne	r2,zero,400b6a4 <___vfiprintf_internal_r+0x10c8>
 400b0f8:	6880040c 	andi	r2,r13,16
 400b0fc:	1001951e 	bne	r2,zero,400b754 <___vfiprintf_internal_r+0x1178>
 400b100:	6b40100c 	andi	r13,r13,64
 400b104:	68019326 	beq	r13,zero,400b754 <___vfiprintf_internal_r+0x1178>
 400b108:	d8800117 	ldw	r2,4(sp)
 400b10c:	d9000415 	stw	r4,16(sp)
 400b110:	1880000d 	sth	r2,0(r3)
 400b114:	003d5a06 	br	400a680 <___vfiprintf_internal_r+0xa4>
 400b118:	a0800007 	ldb	r2,0(r20)
 400b11c:	10c01b18 	cmpnei	r3,r2,108
 400b120:	18019826 	beq	r3,zero,400b784 <___vfiprintf_internal_r+0x11a8>
 400b124:	6b400414 	ori	r13,r13,16
 400b128:	003d6d06 	br	400a6e0 <___vfiprintf_internal_r+0x104>
 400b12c:	01400044 	movi	r5,1
 400b130:	0009883a 	mov	r4,zero
 400b134:	900d883a 	mov	r6,r18
 400b138:	003ece06 	br	400ac74 <___vfiprintf_internal_r+0x698>
 400b13c:	8dc7c83a 	sub	r3,r17,r23
 400b140:	00fe190e 	bge	zero,r3,400a9a8 <___vfiprintf_internal_r+0x3cc>
 400b144:	19c00450 	cmplti	r7,r3,17
 400b148:	3801e41e 	bne	r7,zero,400b8dc <___vfiprintf_internal_r+0x1300>
 400b14c:	01c10074 	movhi	r7,1025
 400b150:	39c9cc04 	addi	r7,r7,10032
 400b154:	03400404 	movi	r13,16
 400b158:	00000606 	br	400b174 <___vfiprintf_internal_r+0xb98>
 400b15c:	23800084 	addi	r14,r4,2
 400b160:	84000204 	addi	r16,r16,8
 400b164:	2809883a 	mov	r4,r5
 400b168:	18fffc04 	addi	r3,r3,-16
 400b16c:	19400448 	cmpgei	r5,r3,17
 400b170:	28001c26 	beq	r5,zero,400b1e4 <___vfiprintf_internal_r+0xc08>
 400b174:	21400044 	addi	r5,r4,1
 400b178:	10800404 	addi	r2,r2,16
 400b17c:	81c00015 	stw	r7,0(r16)
 400b180:	83400115 	stw	r13,4(r16)
 400b184:	d8800c15 	stw	r2,48(sp)
 400b188:	d9400b15 	stw	r5,44(sp)
 400b18c:	29800208 	cmpgei	r6,r5,8
 400b190:	303ff226 	beq	r6,zero,400b15c <___vfiprintf_internal_r+0xb80>
 400b194:	d9800a04 	addi	r6,sp,40
 400b198:	a80b883a 	mov	r5,r21
 400b19c:	b009883a 	mov	r4,r22
 400b1a0:	10007826 	beq	r2,zero,400b384 <___vfiprintf_internal_r+0xda8>
 400b1a4:	d9c00615 	stw	r7,24(sp)
 400b1a8:	d8c00315 	stw	r3,12(sp)
 400b1ac:	da000215 	stw	r8,8(sp)
 400b1b0:	400a4d00 	call	400a4d0 <__sprint_r.part.0>
 400b1b4:	103e1e1e 	bne	r2,zero,400aa30 <___vfiprintf_internal_r+0x454>
 400b1b8:	d8c00317 	ldw	r3,12(sp)
 400b1bc:	d9000b17 	ldw	r4,44(sp)
 400b1c0:	d8800c17 	ldw	r2,48(sp)
 400b1c4:	18fffc04 	addi	r3,r3,-16
 400b1c8:	19400448 	cmpgei	r5,r3,17
 400b1cc:	d9c00617 	ldw	r7,24(sp)
 400b1d0:	da000217 	ldw	r8,8(sp)
 400b1d4:	9021883a 	mov	r16,r18
 400b1d8:	23800044 	addi	r14,r4,1
 400b1dc:	03400404 	movi	r13,16
 400b1e0:	283fe41e 	bne	r5,zero,400b174 <___vfiprintf_internal_r+0xb98>
 400b1e4:	83400204 	addi	r13,r16,8
 400b1e8:	10c5883a 	add	r2,r2,r3
 400b1ec:	80c00115 	stw	r3,4(r16)
 400b1f0:	81c00015 	stw	r7,0(r16)
 400b1f4:	d8800c15 	stw	r2,48(sp)
 400b1f8:	db800b15 	stw	r14,44(sp)
 400b1fc:	70c00208 	cmpgei	r3,r14,8
 400b200:	18011326 	beq	r3,zero,400b650 <___vfiprintf_internal_r+0x1074>
 400b204:	10018826 	beq	r2,zero,400b828 <___vfiprintf_internal_r+0x124c>
 400b208:	d9800a04 	addi	r6,sp,40
 400b20c:	a80b883a 	mov	r5,r21
 400b210:	b009883a 	mov	r4,r22
 400b214:	da000215 	stw	r8,8(sp)
 400b218:	400a4d00 	call	400a4d0 <__sprint_r.part.0>
 400b21c:	103e041e 	bne	r2,zero,400aa30 <___vfiprintf_internal_r+0x454>
 400b220:	da000217 	ldw	r8,8(sp)
 400b224:	d9000b17 	ldw	r4,44(sp)
 400b228:	d8800c17 	ldw	r2,48(sp)
 400b22c:	4711c83a 	sub	r8,r8,fp
 400b230:	d9801904 	addi	r6,sp,100
 400b234:	21400044 	addi	r5,r4,1
 400b238:	9021883a 	mov	r16,r18
 400b23c:	023ddc0e 	bge	zero,r8,400a9b0 <___vfiprintf_internal_r+0x3d4>
 400b240:	40c00450 	cmplti	r3,r8,17
 400b244:	01c10074 	movhi	r7,1025
 400b248:	1801741e 	bne	r3,zero,400b81c <___vfiprintf_internal_r+0x1240>
 400b24c:	39c9cc04 	addi	r7,r7,10032
 400b250:	03400404 	movi	r13,16
 400b254:	00000606 	br	400b270 <___vfiprintf_internal_r+0xc94>
 400b258:	21400084 	addi	r5,r4,2
 400b25c:	84000204 	addi	r16,r16,8
 400b260:	1809883a 	mov	r4,r3
 400b264:	423ffc04 	addi	r8,r8,-16
 400b268:	40c00448 	cmpgei	r3,r8,17
 400b26c:	18001a26 	beq	r3,zero,400b2d8 <___vfiprintf_internal_r+0xcfc>
 400b270:	20c00044 	addi	r3,r4,1
 400b274:	10800404 	addi	r2,r2,16
 400b278:	81c00015 	stw	r7,0(r16)
 400b27c:	83400115 	stw	r13,4(r16)
 400b280:	d8800c15 	stw	r2,48(sp)
 400b284:	d8c00b15 	stw	r3,44(sp)
 400b288:	19400208 	cmpgei	r5,r3,8
 400b28c:	283ff226 	beq	r5,zero,400b258 <___vfiprintf_internal_r+0xc7c>
 400b290:	d9800a04 	addi	r6,sp,40
 400b294:	a80b883a 	mov	r5,r21
 400b298:	b009883a 	mov	r4,r22
 400b29c:	10001a26 	beq	r2,zero,400b308 <___vfiprintf_internal_r+0xd2c>
 400b2a0:	d9c00315 	stw	r7,12(sp)
 400b2a4:	da000215 	stw	r8,8(sp)
 400b2a8:	400a4d00 	call	400a4d0 <__sprint_r.part.0>
 400b2ac:	103de01e 	bne	r2,zero,400aa30 <___vfiprintf_internal_r+0x454>
 400b2b0:	da000217 	ldw	r8,8(sp)
 400b2b4:	d9000b17 	ldw	r4,44(sp)
 400b2b8:	d8800c17 	ldw	r2,48(sp)
 400b2bc:	423ffc04 	addi	r8,r8,-16
 400b2c0:	40c00448 	cmpgei	r3,r8,17
 400b2c4:	d9c00317 	ldw	r7,12(sp)
 400b2c8:	9021883a 	mov	r16,r18
 400b2cc:	21400044 	addi	r5,r4,1
 400b2d0:	03400404 	movi	r13,16
 400b2d4:	183fe61e 	bne	r3,zero,400b270 <___vfiprintf_internal_r+0xc94>
 400b2d8:	81000204 	addi	r4,r16,8
 400b2dc:	1205883a 	add	r2,r2,r8
 400b2e0:	81c00015 	stw	r7,0(r16)
 400b2e4:	82000115 	stw	r8,4(r16)
 400b2e8:	d8800c15 	stw	r2,48(sp)
 400b2ec:	d9400b15 	stw	r5,44(sp)
 400b2f0:	28c00208 	cmpgei	r3,r5,8
 400b2f4:	1800a41e 	bne	r3,zero,400b588 <___vfiprintf_internal_r+0xfac>
 400b2f8:	29400044 	addi	r5,r5,1
 400b2fc:	21800204 	addi	r6,r4,8
 400b300:	2021883a 	mov	r16,r4
 400b304:	003daa06 	br	400a9b0 <___vfiprintf_internal_r+0x3d4>
 400b308:	01400044 	movi	r5,1
 400b30c:	0009883a 	mov	r4,zero
 400b310:	9021883a 	mov	r16,r18
 400b314:	003fd306 	br	400b264 <___vfiprintf_internal_r+0xc88>
 400b318:	10c00060 	cmpeqi	r3,r2,1
 400b31c:	1801561e 	bne	r3,zero,400b878 <___vfiprintf_internal_r+0x129c>
 400b320:	108000a0 	cmpeqi	r2,r2,2
 400b324:	db400017 	ldw	r13,0(sp)
 400b328:	103ef626 	beq	r2,zero,400af04 <___vfiprintf_internal_r+0x928>
 400b32c:	9027883a 	mov	r19,r18
 400b330:	d9000517 	ldw	r4,20(sp)
 400b334:	b88003cc 	andi	r2,r23,15
 400b338:	e006973a 	slli	r3,fp,28
 400b33c:	b82ed13a 	srli	r23,r23,4
 400b340:	2085883a 	add	r2,r4,r2
 400b344:	10800003 	ldbu	r2,0(r2)
 400b348:	e038d13a 	srli	fp,fp,4
 400b34c:	1deeb03a 	or	r23,r3,r23
 400b350:	98bfffc5 	stb	r2,-1(r19)
 400b354:	bf04b03a 	or	r2,r23,fp
 400b358:	9cffffc4 	addi	r19,r19,-1
 400b35c:	103ff41e 	bne	r2,zero,400b330 <___vfiprintf_internal_r+0xd54>
 400b360:	94f9c83a 	sub	fp,r18,r19
 400b364:	db400015 	stw	r13,0(sp)
 400b368:	003eff06 	br	400af68 <___vfiprintf_internal_r+0x98c>
 400b36c:	d9800a04 	addi	r6,sp,40
 400b370:	a80b883a 	mov	r5,r21
 400b374:	b009883a 	mov	r4,r22
 400b378:	400a4d00 	call	400a4d0 <__sprint_r.part.0>
 400b37c:	103da626 	beq	r2,zero,400aa18 <___vfiprintf_internal_r+0x43c>
 400b380:	003dab06 	br	400aa30 <___vfiprintf_internal_r+0x454>
 400b384:	03800044 	movi	r14,1
 400b388:	0009883a 	mov	r4,zero
 400b38c:	9021883a 	mov	r16,r18
 400b390:	003f7506 	br	400b168 <___vfiprintf_internal_r+0xb8c>
 400b394:	10009026 	beq	r2,zero,400b5d8 <___vfiprintf_internal_r+0xffc>
 400b398:	d9800a04 	addi	r6,sp,40
 400b39c:	a80b883a 	mov	r5,r21
 400b3a0:	b009883a 	mov	r4,r22
 400b3a4:	da000615 	stw	r8,24(sp)
 400b3a8:	db400315 	stw	r13,12(sp)
 400b3ac:	db800215 	stw	r14,8(sp)
 400b3b0:	400a4d00 	call	400a4d0 <__sprint_r.part.0>
 400b3b4:	103d9e1e 	bne	r2,zero,400aa30 <___vfiprintf_internal_r+0x454>
 400b3b8:	d9000b17 	ldw	r4,44(sp)
 400b3bc:	d8800c17 	ldw	r2,48(sp)
 400b3c0:	da000617 	ldw	r8,24(sp)
 400b3c4:	db400317 	ldw	r13,12(sp)
 400b3c8:	db800217 	ldw	r14,8(sp)
 400b3cc:	d9801904 	addi	r6,sp,100
 400b3d0:	21400044 	addi	r5,r4,1
 400b3d4:	9021883a 	mov	r16,r18
 400b3d8:	003d5806 	br	400a93c <___vfiprintf_internal_r+0x360>
 400b3dc:	d8800984 	addi	r2,sp,38
 400b3e0:	d8801715 	stw	r2,92(sp)
 400b3e4:	00800084 	movi	r2,2
 400b3e8:	d8801815 	stw	r2,96(sp)
 400b3ec:	d9801904 	addi	r6,sp,100
 400b3f0:	01400044 	movi	r5,1
 400b3f4:	3021883a 	mov	r16,r6
 400b3f8:	2809883a 	mov	r4,r5
 400b3fc:	21400044 	addi	r5,r4,1
 400b400:	81800204 	addi	r6,r16,8
 400b404:	003d6606 	br	400a9a0 <___vfiprintf_internal_r+0x3c4>
 400b408:	db400017 	ldw	r13,0(sp)
 400b40c:	003eb906 	br	400aef4 <___vfiprintf_internal_r+0x918>
 400b410:	9027883a 	mov	r19,r18
 400b414:	b809883a 	mov	r4,r23
 400b418:	e00b883a 	mov	r5,fp
 400b41c:	01800284 	movi	r6,10
 400b420:	000f883a 	mov	r7,zero
 400b424:	db800315 	stw	r14,12(sp)
 400b428:	da000215 	stw	r8,8(sp)
 400b42c:	db400015 	stw	r13,0(sp)
 400b430:	400d9f80 	call	400d9f8 <__umoddi3>
 400b434:	10800c04 	addi	r2,r2,48
 400b438:	b809883a 	mov	r4,r23
 400b43c:	e00b883a 	mov	r5,fp
 400b440:	98bfffc5 	stb	r2,-1(r19)
 400b444:	01800284 	movi	r6,10
 400b448:	000f883a 	mov	r7,zero
 400b44c:	400d3d80 	call	400d3d8 <__udivdi3>
 400b450:	e009883a 	mov	r4,fp
 400b454:	b80b883a 	mov	r5,r23
 400b458:	db400017 	ldw	r13,0(sp)
 400b45c:	da000217 	ldw	r8,8(sp)
 400b460:	db800317 	ldw	r14,12(sp)
 400b464:	9cffffc4 	addi	r19,r19,-1
 400b468:	102f883a 	mov	r23,r2
 400b46c:	1839883a 	mov	fp,r3
 400b470:	203fe81e 	bne	r4,zero,400b414 <___vfiprintf_internal_r+0xe38>
 400b474:	294002a8 	cmpgeui	r5,r5,10
 400b478:	283fe61e 	bne	r5,zero,400b414 <___vfiprintf_internal_r+0xe38>
 400b47c:	94f9c83a 	sub	fp,r18,r19
 400b480:	003eb906 	br	400af68 <___vfiprintf_internal_r+0x98c>
 400b484:	19400450 	cmplti	r5,r3,17
 400b488:	01c10074 	movhi	r7,1025
 400b48c:	2801061e 	bne	r5,zero,400b8a8 <___vfiprintf_internal_r+0x12cc>
 400b490:	39c9d004 	addi	r7,r7,10048
 400b494:	03c00404 	movi	r15,16
 400b498:	00000706 	br	400b4b8 <___vfiprintf_internal_r+0xedc>
 400b49c:	27c00084 	addi	ra,r4,2
 400b4a0:	84000204 	addi	r16,r16,8
 400b4a4:	3009883a 	mov	r4,r6
 400b4a8:	18fffc04 	addi	r3,r3,-16
 400b4ac:	19400448 	cmpgei	r5,r3,17
 400b4b0:	28002026 	beq	r5,zero,400b534 <___vfiprintf_internal_r+0xf58>
 400b4b4:	21800044 	addi	r6,r4,1
 400b4b8:	10800404 	addi	r2,r2,16
 400b4bc:	81c00015 	stw	r7,0(r16)
 400b4c0:	83c00115 	stw	r15,4(r16)
 400b4c4:	d8800c15 	stw	r2,48(sp)
 400b4c8:	d9800b15 	stw	r6,44(sp)
 400b4cc:	31400208 	cmpgei	r5,r6,8
 400b4d0:	283ff226 	beq	r5,zero,400b49c <___vfiprintf_internal_r+0xec0>
 400b4d4:	d9800a04 	addi	r6,sp,40
 400b4d8:	a80b883a 	mov	r5,r21
 400b4dc:	b009883a 	mov	r4,r22
 400b4e0:	10001f26 	beq	r2,zero,400b560 <___vfiprintf_internal_r+0xf84>
 400b4e4:	d9c00815 	stw	r7,32(sp)
 400b4e8:	d8c00715 	stw	r3,28(sp)
 400b4ec:	da000615 	stw	r8,24(sp)
 400b4f0:	db400315 	stw	r13,12(sp)
 400b4f4:	db800215 	stw	r14,8(sp)
 400b4f8:	400a4d00 	call	400a4d0 <__sprint_r.part.0>
 400b4fc:	103d4c1e 	bne	r2,zero,400aa30 <___vfiprintf_internal_r+0x454>
 400b500:	d8c00717 	ldw	r3,28(sp)
 400b504:	d9000b17 	ldw	r4,44(sp)
 400b508:	d8800c17 	ldw	r2,48(sp)
 400b50c:	18fffc04 	addi	r3,r3,-16
 400b510:	19400448 	cmpgei	r5,r3,17
 400b514:	d9c00817 	ldw	r7,32(sp)
 400b518:	da000617 	ldw	r8,24(sp)
 400b51c:	db400317 	ldw	r13,12(sp)
 400b520:	db800217 	ldw	r14,8(sp)
 400b524:	9021883a 	mov	r16,r18
 400b528:	27c00044 	addi	ra,r4,1
 400b52c:	03c00404 	movi	r15,16
 400b530:	283fe01e 	bne	r5,zero,400b4b4 <___vfiprintf_internal_r+0xed8>
 400b534:	10c5883a 	add	r2,r2,r3
 400b538:	80c00115 	stw	r3,4(r16)
 400b53c:	81c00015 	stw	r7,0(r16)
 400b540:	d8800c15 	stw	r2,48(sp)
 400b544:	dfc00b15 	stw	ra,44(sp)
 400b548:	f8c00208 	cmpgei	r3,ra,8
 400b54c:	18002d1e 	bne	r3,zero,400b604 <___vfiprintf_internal_r+0x1028>
 400b550:	84000204 	addi	r16,r16,8
 400b554:	f9400044 	addi	r5,ra,1
 400b558:	f809883a 	mov	r4,ra
 400b55c:	003ce706 	br	400a8fc <___vfiprintf_internal_r+0x320>
 400b560:	0009883a 	mov	r4,zero
 400b564:	07c00044 	movi	ra,1
 400b568:	9021883a 	mov	r16,r18
 400b56c:	003fce06 	br	400b4a8 <___vfiprintf_internal_r+0xecc>
 400b570:	8dc0010e 	bge	r17,r23,400b578 <___vfiprintf_internal_r+0xf9c>
 400b574:	b823883a 	mov	r17,r23
 400b578:	d8800117 	ldw	r2,4(sp)
 400b57c:	1445883a 	add	r2,r2,r17
 400b580:	d8800115 	stw	r2,4(sp)
 400b584:	003d2406 	br	400aa18 <___vfiprintf_internal_r+0x43c>
 400b588:	10007626 	beq	r2,zero,400b764 <___vfiprintf_internal_r+0x1188>
 400b58c:	d9800a04 	addi	r6,sp,40
 400b590:	a80b883a 	mov	r5,r21
 400b594:	b009883a 	mov	r4,r22
 400b598:	400a4d00 	call	400a4d0 <__sprint_r.part.0>
 400b59c:	103d241e 	bne	r2,zero,400aa30 <___vfiprintf_internal_r+0x454>
 400b5a0:	d9400b17 	ldw	r5,44(sp)
 400b5a4:	d8800c17 	ldw	r2,48(sp)
 400b5a8:	d9801904 	addi	r6,sp,100
 400b5ac:	29400044 	addi	r5,r5,1
 400b5b0:	9021883a 	mov	r16,r18
 400b5b4:	003cfe06 	br	400a9b0 <___vfiprintf_internal_r+0x3d4>
 400b5b8:	d8000b15 	stw	zero,44(sp)
 400b5bc:	9021883a 	mov	r16,r18
 400b5c0:	003d7606 	br	400ab9c <___vfiprintf_internal_r+0x5c0>
 400b5c4:	4000ac1e 	bne	r8,zero,400b878 <___vfiprintf_internal_r+0x129c>
 400b5c8:	0011883a 	mov	r8,zero
 400b5cc:	0039883a 	mov	fp,zero
 400b5d0:	9027883a 	mov	r19,r18
 400b5d4:	003e6406 	br	400af68 <___vfiprintf_internal_r+0x98c>
 400b5d8:	7000411e 	bne	r14,zero,400b6e0 <___vfiprintf_internal_r+0x1104>
 400b5dc:	0009883a 	mov	r4,zero
 400b5e0:	d9801904 	addi	r6,sp,100
 400b5e4:	01400044 	movi	r5,1
 400b5e8:	9021883a 	mov	r16,r18
 400b5ec:	003cec06 	br	400a9a0 <___vfiprintf_internal_r+0x3c4>
 400b5f0:	d9801904 	addi	r6,sp,100
 400b5f4:	01400044 	movi	r5,1
 400b5f8:	0009883a 	mov	r4,zero
 400b5fc:	9021883a 	mov	r16,r18
 400b600:	003ce706 	br	400a9a0 <___vfiprintf_internal_r+0x3c4>
 400b604:	10004a26 	beq	r2,zero,400b730 <___vfiprintf_internal_r+0x1154>
 400b608:	d9800a04 	addi	r6,sp,40
 400b60c:	a80b883a 	mov	r5,r21
 400b610:	b009883a 	mov	r4,r22
 400b614:	da000615 	stw	r8,24(sp)
 400b618:	db400315 	stw	r13,12(sp)
 400b61c:	db800215 	stw	r14,8(sp)
 400b620:	400a4d00 	call	400a4d0 <__sprint_r.part.0>
 400b624:	103d021e 	bne	r2,zero,400aa30 <___vfiprintf_internal_r+0x454>
 400b628:	d9000b17 	ldw	r4,44(sp)
 400b62c:	d8800c17 	ldw	r2,48(sp)
 400b630:	da000617 	ldw	r8,24(sp)
 400b634:	db400317 	ldw	r13,12(sp)
 400b638:	db800217 	ldw	r14,8(sp)
 400b63c:	9021883a 	mov	r16,r18
 400b640:	21400044 	addi	r5,r4,1
 400b644:	003cad06 	br	400a8fc <___vfiprintf_internal_r+0x320>
 400b648:	9027883a 	mov	r19,r18
 400b64c:	003e4606 	br	400af68 <___vfiprintf_internal_r+0x98c>
 400b650:	71400044 	addi	r5,r14,1
 400b654:	69800204 	addi	r6,r13,8
 400b658:	7009883a 	mov	r4,r14
 400b65c:	6821883a 	mov	r16,r13
 400b660:	003cd106 	br	400a9a8 <___vfiprintf_internal_r+0x3cc>
 400b664:	25c00017 	ldw	r23,0(r4)
 400b668:	d8c00415 	stw	r3,16(sp)
 400b66c:	b839d7fa 	srai	fp,r23,31
 400b670:	e005883a 	mov	r2,fp
 400b674:	003db406 	br	400ad48 <___vfiprintf_internal_r+0x76c>
 400b678:	00c00c04 	movi	r3,48
 400b67c:	d88009c5 	stb	r2,39(sp)
 400b680:	d8c00985 	stb	r3,38(sp)
 400b684:	6b400094 	ori	r13,r13,2
 400b688:	00800084 	movi	r2,2
 400b68c:	003d2506 	br	400ab24 <___vfiprintf_internal_r+0x548>
 400b690:	25c00017 	ldw	r23,0(r4)
 400b694:	0039883a 	mov	fp,zero
 400b698:	d8c00415 	stw	r3,16(sp)
 400b69c:	0005883a 	mov	r2,zero
 400b6a0:	003d2006 	br	400ab24 <___vfiprintf_internal_r+0x548>
 400b6a4:	d9400117 	ldw	r5,4(sp)
 400b6a8:	d9000415 	stw	r4,16(sp)
 400b6ac:	2805d7fa 	srai	r2,r5,31
 400b6b0:	19400015 	stw	r5,0(r3)
 400b6b4:	18800115 	stw	r2,4(r3)
 400b6b8:	003bf106 	br	400a680 <___vfiprintf_internal_r+0xa4>
 400b6bc:	2dc00017 	ldw	r23,0(r5)
 400b6c0:	0039883a 	mov	fp,zero
 400b6c4:	d9000415 	stw	r4,16(sp)
 400b6c8:	003dc106 	br	400add0 <___vfiprintf_internal_r+0x7f4>
 400b6cc:	25c00017 	ldw	r23,0(r4)
 400b6d0:	0039883a 	mov	fp,zero
 400b6d4:	d8c00415 	stw	r3,16(sp)
 400b6d8:	00800044 	movi	r2,1
 400b6dc:	003d1106 	br	400ab24 <___vfiprintf_internal_r+0x548>
 400b6e0:	d8800984 	addi	r2,sp,38
 400b6e4:	d8801715 	stw	r2,92(sp)
 400b6e8:	00800084 	movi	r2,2
 400b6ec:	d8801815 	stw	r2,96(sp)
 400b6f0:	dc001904 	addi	r16,sp,100
 400b6f4:	01000044 	movi	r4,1
 400b6f8:	003f4006 	br	400b3fc <___vfiprintf_internal_r+0xe20>
 400b6fc:	0463c83a 	sub	r17,zero,r17
 400b700:	d8c00415 	stw	r3,16(sp)
 400b704:	003e3806 	br	400afe8 <___vfiprintf_internal_r+0xa0c>
 400b708:	9809883a 	mov	r4,r19
 400b70c:	d8c00215 	stw	r3,8(sp)
 400b710:	db400015 	stw	r13,0(sp)
 400b714:	4007ca40 	call	4007ca4 <strlen>
 400b718:	d8c00217 	ldw	r3,8(sp)
 400b71c:	db400017 	ldw	r13,0(sp)
 400b720:	1039883a 	mov	fp,r2
 400b724:	102f883a 	mov	r23,r2
 400b728:	d8c00415 	stw	r3,16(sp)
 400b72c:	003c6406 	br	400a8c0 <___vfiprintf_internal_r+0x2e4>
 400b730:	d8c00947 	ldb	r3,37(sp)
 400b734:	18004326 	beq	r3,zero,400b844 <___vfiprintf_internal_r+0x1268>
 400b738:	d8800944 	addi	r2,sp,37
 400b73c:	d8801715 	stw	r2,92(sp)
 400b740:	00800044 	movi	r2,1
 400b744:	d8801815 	stw	r2,96(sp)
 400b748:	d9801904 	addi	r6,sp,100
 400b74c:	01400044 	movi	r5,1
 400b750:	003c7606 	br	400a92c <___vfiprintf_internal_r+0x350>
 400b754:	d8800117 	ldw	r2,4(sp)
 400b758:	18800015 	stw	r2,0(r3)
 400b75c:	d9000415 	stw	r4,16(sp)
 400b760:	003bc706 	br	400a680 <___vfiprintf_internal_r+0xa4>
 400b764:	00c00044 	movi	r3,1
 400b768:	e005883a 	mov	r2,fp
 400b76c:	dcc01715 	stw	r19,92(sp)
 400b770:	df001815 	stw	fp,96(sp)
 400b774:	df000c15 	stw	fp,48(sp)
 400b778:	d8c00b15 	stw	r3,44(sp)
 400b77c:	d9801904 	addi	r6,sp,100
 400b780:	003c9a06 	br	400a9ec <___vfiprintf_internal_r+0x410>
 400b784:	a0800043 	ldbu	r2,1(r20)
 400b788:	6b400814 	ori	r13,r13,32
 400b78c:	a5000044 	addi	r20,r20,1
 400b790:	10803fcc 	andi	r2,r2,255
 400b794:	1080201c 	xori	r2,r2,128
 400b798:	10bfe004 	addi	r2,r2,-128
 400b79c:	003bd006 	br	400a6e0 <___vfiprintf_internal_r+0x104>
 400b7a0:	408001f0 	cmpltui	r2,r8,7
 400b7a4:	4039883a 	mov	fp,r8
 400b7a8:	10002426 	beq	r2,zero,400b83c <___vfiprintf_internal_r+0x1260>
 400b7ac:	04c10074 	movhi	r19,1025
 400b7b0:	e02f883a 	mov	r23,fp
 400b7b4:	d8c00415 	stw	r3,16(sp)
 400b7b8:	9cc89204 	addi	r19,r19,8776
 400b7bc:	003c4006 	br	400a8c0 <___vfiprintf_internal_r+0x2e4>
 400b7c0:	d8c00417 	ldw	r3,16(sp)
 400b7c4:	0039883a 	mov	fp,zero
 400b7c8:	d9000415 	stw	r4,16(sp)
 400b7cc:	1dc00017 	ldw	r23,0(r3)
 400b7d0:	003d7f06 	br	400add0 <___vfiprintf_internal_r+0x7f4>
 400b7d4:	d8800417 	ldw	r2,16(sp)
 400b7d8:	0039883a 	mov	fp,zero
 400b7dc:	d8c00415 	stw	r3,16(sp)
 400b7e0:	15c00017 	ldw	r23,0(r2)
 400b7e4:	0005883a 	mov	r2,zero
 400b7e8:	003cce06 	br	400ab24 <___vfiprintf_internal_r+0x548>
 400b7ec:	d8800417 	ldw	r2,16(sp)
 400b7f0:	d8c00415 	stw	r3,16(sp)
 400b7f4:	15c00017 	ldw	r23,0(r2)
 400b7f8:	b839d7fa 	srai	fp,r23,31
 400b7fc:	e005883a 	mov	r2,fp
 400b800:	003d5106 	br	400ad48 <___vfiprintf_internal_r+0x76c>
 400b804:	d8800417 	ldw	r2,16(sp)
 400b808:	0039883a 	mov	fp,zero
 400b80c:	d8c00415 	stw	r3,16(sp)
 400b810:	15c00017 	ldw	r23,0(r2)
 400b814:	00800044 	movi	r2,1
 400b818:	003cc206 	br	400ab24 <___vfiprintf_internal_r+0x548>
 400b81c:	3009883a 	mov	r4,r6
 400b820:	39c9cc04 	addi	r7,r7,10032
 400b824:	003ead06 	br	400b2dc <___vfiprintf_internal_r+0xd00>
 400b828:	d9801904 	addi	r6,sp,100
 400b82c:	01400044 	movi	r5,1
 400b830:	0009883a 	mov	r4,zero
 400b834:	9021883a 	mov	r16,r18
 400b838:	003c5b06 	br	400a9a8 <___vfiprintf_internal_r+0x3cc>
 400b83c:	07000184 	movi	fp,6
 400b840:	003fda06 	br	400b7ac <___vfiprintf_internal_r+0x11d0>
 400b844:	703ee51e 	bne	r14,zero,400b3dc <___vfiprintf_internal_r+0xe00>
 400b848:	0009883a 	mov	r4,zero
 400b84c:	d9801904 	addi	r6,sp,100
 400b850:	01400044 	movi	r5,1
 400b854:	9021883a 	mov	r16,r18
 400b858:	003c5306 	br	400a9a8 <___vfiprintf_internal_r+0x3cc>
 400b85c:	d9800945 	stb	r6,37(sp)
 400b860:	003c1106 	br	400a8a8 <___vfiprintf_internal_r+0x2cc>
 400b864:	d9800a04 	addi	r6,sp,40
 400b868:	a80b883a 	mov	r5,r21
 400b86c:	b009883a 	mov	r4,r22
 400b870:	400a4d00 	call	400a4d0 <__sprint_r.part.0>
 400b874:	003c6e06 	br	400aa30 <___vfiprintf_internal_r+0x454>
 400b878:	db400017 	ldw	r13,0(sp)
 400b87c:	003d3f06 	br	400ad7c <___vfiprintf_internal_r+0x7a0>
 400b880:	402f883a 	mov	r23,r8
 400b884:	d8c00415 	stw	r3,16(sp)
 400b888:	4039883a 	mov	fp,r8
 400b88c:	003c0c06 	br	400a8c0 <___vfiprintf_internal_r+0x2e4>
 400b890:	d9800945 	stb	r6,37(sp)
 400b894:	003d2406 	br	400ad28 <___vfiprintf_internal_r+0x74c>
 400b898:	d9800945 	stb	r6,37(sp)
 400b89c:	003d4206 	br	400ada8 <___vfiprintf_internal_r+0x7cc>
 400b8a0:	d9800945 	stb	r6,37(sp)
 400b8a4:	003d7a06 	br	400ae90 <___vfiprintf_internal_r+0x8b4>
 400b8a8:	303f883a 	mov	ra,r6
 400b8ac:	39c9d004 	addi	r7,r7,10048
 400b8b0:	003f2006 	br	400b534 <___vfiprintf_internal_r+0xf58>
 400b8b4:	d9800945 	stb	r6,37(sp)
 400b8b8:	003df806 	br	400b09c <___vfiprintf_internal_r+0xac0>
 400b8bc:	d9800945 	stb	r6,37(sp)
 400b8c0:	003e0806 	br	400b0e4 <___vfiprintf_internal_r+0xb08>
 400b8c4:	21400044 	addi	r5,r4,1
 400b8c8:	39c9d004 	addi	r7,r7,10048
 400b8cc:	003d0306 	br	400acdc <___vfiprintf_internal_r+0x700>
 400b8d0:	00bfffc4 	movi	r2,-1
 400b8d4:	d8800115 	stw	r2,4(sp)
 400b8d8:	003c5806 	br	400aa3c <___vfiprintf_internal_r+0x460>
 400b8dc:	01c10074 	movhi	r7,1025
 400b8e0:	301b883a 	mov	r13,r6
 400b8e4:	281d883a 	mov	r14,r5
 400b8e8:	39c9cc04 	addi	r7,r7,10032
 400b8ec:	003e3e06 	br	400b1e8 <___vfiprintf_internal_r+0xc0c>
 400b8f0:	d8800417 	ldw	r2,16(sp)
 400b8f4:	12000017 	ldw	r8,0(r2)
 400b8f8:	11000104 	addi	r4,r2,4
 400b8fc:	4000010e 	bge	r8,zero,400b904 <___vfiprintf_internal_r+0x1328>
 400b900:	023fffc4 	movi	r8,-1
 400b904:	a0800043 	ldbu	r2,1(r20)
 400b908:	d9000415 	stw	r4,16(sp)
 400b90c:	1829883a 	mov	r20,r3
 400b910:	10803fcc 	andi	r2,r2,255
 400b914:	1080201c 	xori	r2,r2,128
 400b918:	10bfe004 	addi	r2,r2,-128
 400b91c:	003b7006 	br	400a6e0 <___vfiprintf_internal_r+0x104>

0400b920 <__vfiprintf_internal>:
 400b920:	00c10074 	movhi	r3,1025
 400b924:	2005883a 	mov	r2,r4
 400b928:	190cad17 	ldw	r4,12980(r3)
 400b92c:	300f883a 	mov	r7,r6
 400b930:	280d883a 	mov	r6,r5
 400b934:	100b883a 	mov	r5,r2
 400b938:	400a5dc1 	jmpi	400a5dc <___vfiprintf_internal_r>

0400b93c <__sbprintf>:
 400b93c:	2880030b 	ldhu	r2,12(r5)
 400b940:	2b001917 	ldw	r12,100(r5)
 400b944:	2ac0038b 	ldhu	r11,14(r5)
 400b948:	2a800717 	ldw	r10,28(r5)
 400b94c:	2a400917 	ldw	r9,36(r5)
 400b950:	defee204 	addi	sp,sp,-1144
 400b954:	da001a04 	addi	r8,sp,104
 400b958:	00c10004 	movi	r3,1024
 400b95c:	dc011a15 	stw	r16,1128(sp)
 400b960:	10bfff4c 	andi	r2,r2,65533
 400b964:	2821883a 	mov	r16,r5
 400b968:	d80b883a 	mov	r5,sp
 400b96c:	dc811c15 	stw	r18,1136(sp)
 400b970:	dc411b15 	stw	r17,1132(sp)
 400b974:	dfc11d15 	stw	ra,1140(sp)
 400b978:	2025883a 	mov	r18,r4
 400b97c:	d880030d 	sth	r2,12(sp)
 400b980:	db001915 	stw	r12,100(sp)
 400b984:	dac0038d 	sth	r11,14(sp)
 400b988:	da800715 	stw	r10,28(sp)
 400b98c:	da400915 	stw	r9,36(sp)
 400b990:	da000015 	stw	r8,0(sp)
 400b994:	da000415 	stw	r8,16(sp)
 400b998:	d8c00215 	stw	r3,8(sp)
 400b99c:	d8c00515 	stw	r3,20(sp)
 400b9a0:	d8000615 	stw	zero,24(sp)
 400b9a4:	400a5dc0 	call	400a5dc <___vfiprintf_internal_r>
 400b9a8:	1023883a 	mov	r17,r2
 400b9ac:	10000d0e 	bge	r2,zero,400b9e4 <__sbprintf+0xa8>
 400b9b0:	d880030b 	ldhu	r2,12(sp)
 400b9b4:	1080100c 	andi	r2,r2,64
 400b9b8:	10000326 	beq	r2,zero,400b9c8 <__sbprintf+0x8c>
 400b9bc:	8080030b 	ldhu	r2,12(r16)
 400b9c0:	10801014 	ori	r2,r2,64
 400b9c4:	8080030d 	sth	r2,12(r16)
 400b9c8:	8805883a 	mov	r2,r17
 400b9cc:	dfc11d17 	ldw	ra,1140(sp)
 400b9d0:	dc811c17 	ldw	r18,1136(sp)
 400b9d4:	dc411b17 	ldw	r17,1132(sp)
 400b9d8:	dc011a17 	ldw	r16,1128(sp)
 400b9dc:	dec11e04 	addi	sp,sp,1144
 400b9e0:	f800283a 	ret
 400b9e4:	d80b883a 	mov	r5,sp
 400b9e8:	9009883a 	mov	r4,r18
 400b9ec:	400bd880 	call	400bd88 <_fflush_r>
 400b9f0:	103fef26 	beq	r2,zero,400b9b0 <__sbprintf+0x74>
 400b9f4:	047fffc4 	movi	r17,-1
 400b9f8:	003fed06 	br	400b9b0 <__sbprintf+0x74>

0400b9fc <__swsetup_r>:
 400b9fc:	00810074 	movhi	r2,1025
 400ba00:	108cad17 	ldw	r2,12980(r2)
 400ba04:	defffd04 	addi	sp,sp,-12
 400ba08:	dc400115 	stw	r17,4(sp)
 400ba0c:	dc000015 	stw	r16,0(sp)
 400ba10:	dfc00215 	stw	ra,8(sp)
 400ba14:	2023883a 	mov	r17,r4
 400ba18:	2821883a 	mov	r16,r5
 400ba1c:	10000226 	beq	r2,zero,400ba28 <__swsetup_r+0x2c>
 400ba20:	10c00e17 	ldw	r3,56(r2)
 400ba24:	18001f26 	beq	r3,zero,400baa4 <__swsetup_r+0xa8>
 400ba28:	8180030b 	ldhu	r6,12(r16)
 400ba2c:	30c0020c 	andi	r3,r6,8
 400ba30:	3005883a 	mov	r2,r6
 400ba34:	18002126 	beq	r3,zero,400babc <__swsetup_r+0xc0>
 400ba38:	80c00417 	ldw	r3,16(r16)
 400ba3c:	18002826 	beq	r3,zero,400bae0 <__swsetup_r+0xe4>
 400ba40:	1100004c 	andi	r4,r2,1
 400ba44:	20000b1e 	bne	r4,zero,400ba74 <__swsetup_r+0x78>
 400ba48:	1100008c 	andi	r4,r2,2
 400ba4c:	20002e1e 	bne	r4,zero,400bb08 <__swsetup_r+0x10c>
 400ba50:	81000517 	ldw	r4,20(r16)
 400ba54:	81000215 	stw	r4,8(r16)
 400ba58:	18000b26 	beq	r3,zero,400ba88 <__swsetup_r+0x8c>
 400ba5c:	0005883a 	mov	r2,zero
 400ba60:	dfc00217 	ldw	ra,8(sp)
 400ba64:	dc400117 	ldw	r17,4(sp)
 400ba68:	dc000017 	ldw	r16,0(sp)
 400ba6c:	dec00304 	addi	sp,sp,12
 400ba70:	f800283a 	ret
 400ba74:	81000517 	ldw	r4,20(r16)
 400ba78:	80000215 	stw	zero,8(r16)
 400ba7c:	0109c83a 	sub	r4,zero,r4
 400ba80:	81000615 	stw	r4,24(r16)
 400ba84:	183ff51e 	bne	r3,zero,400ba5c <__swsetup_r+0x60>
 400ba88:	10c0200c 	andi	r3,r2,128
 400ba8c:	0005883a 	mov	r2,zero
 400ba90:	183ff326 	beq	r3,zero,400ba60 <__swsetup_r+0x64>
 400ba94:	31801014 	ori	r6,r6,64
 400ba98:	8180030d 	sth	r6,12(r16)
 400ba9c:	00bfffc4 	movi	r2,-1
 400baa0:	003fef06 	br	400ba60 <__swsetup_r+0x64>
 400baa4:	1009883a 	mov	r4,r2
 400baa8:	400c1d00 	call	400c1d0 <__sinit>
 400baac:	8180030b 	ldhu	r6,12(r16)
 400bab0:	30c0020c 	andi	r3,r6,8
 400bab4:	3005883a 	mov	r2,r6
 400bab8:	183fdf1e 	bne	r3,zero,400ba38 <__swsetup_r+0x3c>
 400babc:	3080040c 	andi	r2,r6,16
 400bac0:	10002126 	beq	r2,zero,400bb48 <__swsetup_r+0x14c>
 400bac4:	3080010c 	andi	r2,r6,4
 400bac8:	1000111e 	bne	r2,zero,400bb10 <__swsetup_r+0x114>
 400bacc:	80c00417 	ldw	r3,16(r16)
 400bad0:	30800214 	ori	r2,r6,8
 400bad4:	8080030d 	sth	r2,12(r16)
 400bad8:	100d883a 	mov	r6,r2
 400badc:	183fd81e 	bne	r3,zero,400ba40 <__swsetup_r+0x44>
 400bae0:	1100a00c 	andi	r4,r2,640
 400bae4:	21008020 	cmpeqi	r4,r4,512
 400bae8:	203fd51e 	bne	r4,zero,400ba40 <__swsetup_r+0x44>
 400baec:	800b883a 	mov	r5,r16
 400baf0:	8809883a 	mov	r4,r17
 400baf4:	400ca200 	call	400ca20 <__smakebuf_r>
 400baf8:	8180030b 	ldhu	r6,12(r16)
 400bafc:	80c00417 	ldw	r3,16(r16)
 400bb00:	3005883a 	mov	r2,r6
 400bb04:	003fce06 	br	400ba40 <__swsetup_r+0x44>
 400bb08:	0009883a 	mov	r4,zero
 400bb0c:	003fd106 	br	400ba54 <__swsetup_r+0x58>
 400bb10:	81400c17 	ldw	r5,48(r16)
 400bb14:	28000626 	beq	r5,zero,400bb30 <__swsetup_r+0x134>
 400bb18:	80801004 	addi	r2,r16,64
 400bb1c:	28800326 	beq	r5,r2,400bb2c <__swsetup_r+0x130>
 400bb20:	8809883a 	mov	r4,r17
 400bb24:	40092b00 	call	40092b0 <_free_r>
 400bb28:	8180030b 	ldhu	r6,12(r16)
 400bb2c:	80000c15 	stw	zero,48(r16)
 400bb30:	80c00417 	ldw	r3,16(r16)
 400bb34:	00bff6c4 	movi	r2,-37
 400bb38:	118c703a 	and	r6,r2,r6
 400bb3c:	80000115 	stw	zero,4(r16)
 400bb40:	80c00015 	stw	r3,0(r16)
 400bb44:	003fe206 	br	400bad0 <__swsetup_r+0xd4>
 400bb48:	00800244 	movi	r2,9
 400bb4c:	88800015 	stw	r2,0(r17)
 400bb50:	31801014 	ori	r6,r6,64
 400bb54:	8180030d 	sth	r6,12(r16)
 400bb58:	00bfffc4 	movi	r2,-1
 400bb5c:	003fc006 	br	400ba60 <__swsetup_r+0x64>

0400bb60 <__sflush_r>:
 400bb60:	2880030b 	ldhu	r2,12(r5)
 400bb64:	defffb04 	addi	sp,sp,-20
 400bb68:	dcc00315 	stw	r19,12(sp)
 400bb6c:	dc000015 	stw	r16,0(sp)
 400bb70:	dfc00415 	stw	ra,16(sp)
 400bb74:	dc800215 	stw	r18,8(sp)
 400bb78:	dc400115 	stw	r17,4(sp)
 400bb7c:	10c0020c 	andi	r3,r2,8
 400bb80:	2821883a 	mov	r16,r5
 400bb84:	2027883a 	mov	r19,r4
 400bb88:	18003f1e 	bne	r3,zero,400bc88 <__sflush_r+0x128>
 400bb8c:	28c00117 	ldw	r3,4(r5)
 400bb90:	10820014 	ori	r2,r2,2048
 400bb94:	2880030d 	sth	r2,12(r5)
 400bb98:	00c0550e 	bge	zero,r3,400bcf0 <__sflush_r+0x190>
 400bb9c:	82000a17 	ldw	r8,40(r16)
 400bba0:	40003126 	beq	r8,zero,400bc68 <__sflush_r+0x108>
 400bba4:	9c400017 	ldw	r17,0(r19)
 400bba8:	1104000c 	andi	r4,r2,4096
 400bbac:	98000015 	stw	zero,0(r19)
 400bbb0:	81400717 	ldw	r5,28(r16)
 400bbb4:	1007883a 	mov	r3,r2
 400bbb8:	2000521e 	bne	r4,zero,400bd04 <__sflush_r+0x1a4>
 400bbbc:	01c00044 	movi	r7,1
 400bbc0:	000d883a 	mov	r6,zero
 400bbc4:	9809883a 	mov	r4,r19
 400bbc8:	403ee83a 	callr	r8
 400bbcc:	10ffffd8 	cmpnei	r3,r2,-1
 400bbd0:	18005826 	beq	r3,zero,400bd34 <__sflush_r+0x1d4>
 400bbd4:	80c0030b 	ldhu	r3,12(r16)
 400bbd8:	82000a17 	ldw	r8,40(r16)
 400bbdc:	81400717 	ldw	r5,28(r16)
 400bbe0:	18c0010c 	andi	r3,r3,4
 400bbe4:	18000626 	beq	r3,zero,400bc00 <__sflush_r+0xa0>
 400bbe8:	81000117 	ldw	r4,4(r16)
 400bbec:	80c00c17 	ldw	r3,48(r16)
 400bbf0:	1105c83a 	sub	r2,r2,r4
 400bbf4:	18000226 	beq	r3,zero,400bc00 <__sflush_r+0xa0>
 400bbf8:	80c00f17 	ldw	r3,60(r16)
 400bbfc:	10c5c83a 	sub	r2,r2,r3
 400bc00:	100d883a 	mov	r6,r2
 400bc04:	000f883a 	mov	r7,zero
 400bc08:	9809883a 	mov	r4,r19
 400bc0c:	403ee83a 	callr	r8
 400bc10:	10ffffd8 	cmpnei	r3,r2,-1
 400bc14:	18003d1e 	bne	r3,zero,400bd0c <__sflush_r+0x1ac>
 400bc18:	99000017 	ldw	r4,0(r19)
 400bc1c:	80c0030b 	ldhu	r3,12(r16)
 400bc20:	20004e26 	beq	r4,zero,400bd5c <__sflush_r+0x1fc>
 400bc24:	21400760 	cmpeqi	r5,r4,29
 400bc28:	2800021e 	bne	r5,zero,400bc34 <__sflush_r+0xd4>
 400bc2c:	210005a0 	cmpeqi	r4,r4,22
 400bc30:	20002c26 	beq	r4,zero,400bce4 <__sflush_r+0x184>
 400bc34:	80800417 	ldw	r2,16(r16)
 400bc38:	18fdffcc 	andi	r3,r3,63487
 400bc3c:	80c0030d 	sth	r3,12(r16)
 400bc40:	80000115 	stw	zero,4(r16)
 400bc44:	80800015 	stw	r2,0(r16)
 400bc48:	81400c17 	ldw	r5,48(r16)
 400bc4c:	9c400015 	stw	r17,0(r19)
 400bc50:	28000526 	beq	r5,zero,400bc68 <__sflush_r+0x108>
 400bc54:	80801004 	addi	r2,r16,64
 400bc58:	28800226 	beq	r5,r2,400bc64 <__sflush_r+0x104>
 400bc5c:	9809883a 	mov	r4,r19
 400bc60:	40092b00 	call	40092b0 <_free_r>
 400bc64:	80000c15 	stw	zero,48(r16)
 400bc68:	0005883a 	mov	r2,zero
 400bc6c:	dfc00417 	ldw	ra,16(sp)
 400bc70:	dcc00317 	ldw	r19,12(sp)
 400bc74:	dc800217 	ldw	r18,8(sp)
 400bc78:	dc400117 	ldw	r17,4(sp)
 400bc7c:	dc000017 	ldw	r16,0(sp)
 400bc80:	dec00504 	addi	sp,sp,20
 400bc84:	f800283a 	ret
 400bc88:	2c800417 	ldw	r18,16(r5)
 400bc8c:	903ff626 	beq	r18,zero,400bc68 <__sflush_r+0x108>
 400bc90:	2c400017 	ldw	r17,0(r5)
 400bc94:	108000cc 	andi	r2,r2,3
 400bc98:	2c800015 	stw	r18,0(r5)
 400bc9c:	8ca3c83a 	sub	r17,r17,r18
 400bca0:	1000161e 	bne	r2,zero,400bcfc <__sflush_r+0x19c>
 400bca4:	28800517 	ldw	r2,20(r5)
 400bca8:	80800215 	stw	r2,8(r16)
 400bcac:	04400316 	blt	zero,r17,400bcbc <__sflush_r+0x15c>
 400bcb0:	003fed06 	br	400bc68 <__sflush_r+0x108>
 400bcb4:	90a5883a 	add	r18,r18,r2
 400bcb8:	047feb0e 	bge	zero,r17,400bc68 <__sflush_r+0x108>
 400bcbc:	80800917 	ldw	r2,36(r16)
 400bcc0:	81400717 	ldw	r5,28(r16)
 400bcc4:	880f883a 	mov	r7,r17
 400bcc8:	900d883a 	mov	r6,r18
 400bccc:	9809883a 	mov	r4,r19
 400bcd0:	103ee83a 	callr	r2
 400bcd4:	88a3c83a 	sub	r17,r17,r2
 400bcd8:	00bff616 	blt	zero,r2,400bcb4 <__sflush_r+0x154>
 400bcdc:	80c0030b 	ldhu	r3,12(r16)
 400bce0:	00bfffc4 	movi	r2,-1
 400bce4:	18c01014 	ori	r3,r3,64
 400bce8:	80c0030d 	sth	r3,12(r16)
 400bcec:	003fdf06 	br	400bc6c <__sflush_r+0x10c>
 400bcf0:	28c00f17 	ldw	r3,60(r5)
 400bcf4:	00ffa916 	blt	zero,r3,400bb9c <__sflush_r+0x3c>
 400bcf8:	003fdb06 	br	400bc68 <__sflush_r+0x108>
 400bcfc:	0005883a 	mov	r2,zero
 400bd00:	003fe906 	br	400bca8 <__sflush_r+0x148>
 400bd04:	80801417 	ldw	r2,80(r16)
 400bd08:	003fb506 	br	400bbe0 <__sflush_r+0x80>
 400bd0c:	80c0030b 	ldhu	r3,12(r16)
 400bd10:	81000417 	ldw	r4,16(r16)
 400bd14:	80000115 	stw	zero,4(r16)
 400bd18:	197dffcc 	andi	r5,r3,63487
 400bd1c:	8140030d 	sth	r5,12(r16)
 400bd20:	81000015 	stw	r4,0(r16)
 400bd24:	18c4000c 	andi	r3,r3,4096
 400bd28:	183fc726 	beq	r3,zero,400bc48 <__sflush_r+0xe8>
 400bd2c:	80801415 	stw	r2,80(r16)
 400bd30:	003fc506 	br	400bc48 <__sflush_r+0xe8>
 400bd34:	98c00017 	ldw	r3,0(r19)
 400bd38:	183fa626 	beq	r3,zero,400bbd4 <__sflush_r+0x74>
 400bd3c:	19000760 	cmpeqi	r4,r3,29
 400bd40:	20000e1e 	bne	r4,zero,400bd7c <__sflush_r+0x21c>
 400bd44:	18c00598 	cmpnei	r3,r3,22
 400bd48:	18000c26 	beq	r3,zero,400bd7c <__sflush_r+0x21c>
 400bd4c:	80c0030b 	ldhu	r3,12(r16)
 400bd50:	18c01014 	ori	r3,r3,64
 400bd54:	80c0030d 	sth	r3,12(r16)
 400bd58:	003fc406 	br	400bc6c <__sflush_r+0x10c>
 400bd5c:	81000417 	ldw	r4,16(r16)
 400bd60:	197dffcc 	andi	r5,r3,63487
 400bd64:	8140030d 	sth	r5,12(r16)
 400bd68:	80000115 	stw	zero,4(r16)
 400bd6c:	81000015 	stw	r4,0(r16)
 400bd70:	18c4000c 	andi	r3,r3,4096
 400bd74:	183fb426 	beq	r3,zero,400bc48 <__sflush_r+0xe8>
 400bd78:	003fec06 	br	400bd2c <__sflush_r+0x1cc>
 400bd7c:	9c400015 	stw	r17,0(r19)
 400bd80:	0005883a 	mov	r2,zero
 400bd84:	003fb906 	br	400bc6c <__sflush_r+0x10c>

0400bd88 <_fflush_r>:
 400bd88:	defffd04 	addi	sp,sp,-12
 400bd8c:	dc000115 	stw	r16,4(sp)
 400bd90:	dfc00215 	stw	ra,8(sp)
 400bd94:	2021883a 	mov	r16,r4
 400bd98:	20000226 	beq	r4,zero,400bda4 <_fflush_r+0x1c>
 400bd9c:	20800e17 	ldw	r2,56(r4)
 400bda0:	10000726 	beq	r2,zero,400bdc0 <_fflush_r+0x38>
 400bda4:	2880030f 	ldh	r2,12(r5)
 400bda8:	10000a1e 	bne	r2,zero,400bdd4 <_fflush_r+0x4c>
 400bdac:	0005883a 	mov	r2,zero
 400bdb0:	dfc00217 	ldw	ra,8(sp)
 400bdb4:	dc000117 	ldw	r16,4(sp)
 400bdb8:	dec00304 	addi	sp,sp,12
 400bdbc:	f800283a 	ret
 400bdc0:	d9400015 	stw	r5,0(sp)
 400bdc4:	400c1d00 	call	400c1d0 <__sinit>
 400bdc8:	d9400017 	ldw	r5,0(sp)
 400bdcc:	2880030f 	ldh	r2,12(r5)
 400bdd0:	103ff626 	beq	r2,zero,400bdac <_fflush_r+0x24>
 400bdd4:	8009883a 	mov	r4,r16
 400bdd8:	dfc00217 	ldw	ra,8(sp)
 400bddc:	dc000117 	ldw	r16,4(sp)
 400bde0:	dec00304 	addi	sp,sp,12
 400bde4:	400bb601 	jmpi	400bb60 <__sflush_r>

0400bde8 <fflush>:
 400bde8:	20001726 	beq	r4,zero,400be48 <fflush+0x60>
 400bdec:	00810074 	movhi	r2,1025
 400bdf0:	200b883a 	mov	r5,r4
 400bdf4:	110cad17 	ldw	r4,12980(r2)
 400bdf8:	20000226 	beq	r4,zero,400be04 <fflush+0x1c>
 400bdfc:	20800e17 	ldw	r2,56(r4)
 400be00:	10000526 	beq	r2,zero,400be18 <fflush+0x30>
 400be04:	2880030f 	ldh	r2,12(r5)
 400be08:	1000021e 	bne	r2,zero,400be14 <fflush+0x2c>
 400be0c:	0005883a 	mov	r2,zero
 400be10:	f800283a 	ret
 400be14:	400bb601 	jmpi	400bb60 <__sflush_r>
 400be18:	defffd04 	addi	sp,sp,-12
 400be1c:	d9400115 	stw	r5,4(sp)
 400be20:	d9000015 	stw	r4,0(sp)
 400be24:	dfc00215 	stw	ra,8(sp)
 400be28:	400c1d00 	call	400c1d0 <__sinit>
 400be2c:	d9400117 	ldw	r5,4(sp)
 400be30:	d9000017 	ldw	r4,0(sp)
 400be34:	2880030f 	ldh	r2,12(r5)
 400be38:	10000826 	beq	r2,zero,400be5c <fflush+0x74>
 400be3c:	dfc00217 	ldw	ra,8(sp)
 400be40:	dec00304 	addi	sp,sp,12
 400be44:	400bb601 	jmpi	400bb60 <__sflush_r>
 400be48:	00810074 	movhi	r2,1025
 400be4c:	110cac17 	ldw	r4,12976(r2)
 400be50:	01410074 	movhi	r5,1025
 400be54:	296f6204 	addi	r5,r5,-17016
 400be58:	400c9781 	jmpi	400c978 <_fwalk_reent>
 400be5c:	0005883a 	mov	r2,zero
 400be60:	dfc00217 	ldw	ra,8(sp)
 400be64:	dec00304 	addi	sp,sp,12
 400be68:	f800283a 	ret

0400be6c <__fp_lock>:
 400be6c:	0005883a 	mov	r2,zero
 400be70:	f800283a 	ret

0400be74 <_cleanup_r>:
 400be74:	01410074 	movhi	r5,1025
 400be78:	29745e04 	addi	r5,r5,-11912
 400be7c:	400c9781 	jmpi	400c978 <_fwalk_reent>

0400be80 <__fp_unlock>:
 400be80:	0005883a 	mov	r2,zero
 400be84:	f800283a 	ret

0400be88 <__sinit.part.0>:
 400be88:	00c10074 	movhi	r3,1025
 400be8c:	20800117 	ldw	r2,4(r4)
 400be90:	18ef9d04 	addi	r3,r3,-16780
 400be94:	20c00f15 	stw	r3,60(r4)
 400be98:	2140bb04 	addi	r5,r4,748
 400be9c:	00c000c4 	movi	r3,3
 400bea0:	20c0b915 	stw	r3,740(r4)
 400bea4:	2140ba15 	stw	r5,744(r4)
 400bea8:	2000b815 	stw	zero,736(r4)
 400beac:	10001705 	stb	zero,92(r2)
 400beb0:	10001745 	stb	zero,93(r2)
 400beb4:	10001785 	stb	zero,94(r2)
 400beb8:	100017c5 	stb	zero,95(r2)
 400bebc:	10001805 	stb	zero,96(r2)
 400bec0:	10001845 	stb	zero,97(r2)
 400bec4:	10001885 	stb	zero,98(r2)
 400bec8:	100018c5 	stb	zero,99(r2)
 400becc:	00c00104 	movi	r3,4
 400bed0:	10c00315 	stw	r3,12(r2)
 400bed4:	02010074 	movhi	r8,1025
 400bed8:	20c00217 	ldw	r3,8(r4)
 400bedc:	01c10074 	movhi	r7,1025
 400bee0:	01810074 	movhi	r6,1025
 400bee4:	01410074 	movhi	r5,1025
 400bee8:	42331a04 	addi	r8,r8,-13208
 400beec:	39f33104 	addi	r7,r7,-13116
 400bef0:	31b35104 	addi	r6,r6,-12988
 400bef4:	29736804 	addi	r5,r5,-12896
 400bef8:	02400074 	movhi	r9,1
 400befc:	10001915 	stw	zero,100(r2)
 400bf00:	10000015 	stw	zero,0(r2)
 400bf04:	10000115 	stw	zero,4(r2)
 400bf08:	10000215 	stw	zero,8(r2)
 400bf0c:	10000415 	stw	zero,16(r2)
 400bf10:	10000515 	stw	zero,20(r2)
 400bf14:	10000615 	stw	zero,24(r2)
 400bf18:	10800715 	stw	r2,28(r2)
 400bf1c:	12000815 	stw	r8,32(r2)
 400bf20:	11c00915 	stw	r7,36(r2)
 400bf24:	11800a15 	stw	r6,40(r2)
 400bf28:	11400b15 	stw	r5,44(r2)
 400bf2c:	4a400284 	addi	r9,r9,10
 400bf30:	1a400315 	stw	r9,12(r3)
 400bf34:	18001915 	stw	zero,100(r3)
 400bf38:	18000015 	stw	zero,0(r3)
 400bf3c:	18000115 	stw	zero,4(r3)
 400bf40:	18000215 	stw	zero,8(r3)
 400bf44:	18000415 	stw	zero,16(r3)
 400bf48:	18001705 	stb	zero,92(r3)
 400bf4c:	18001745 	stb	zero,93(r3)
 400bf50:	18001785 	stb	zero,94(r3)
 400bf54:	180017c5 	stb	zero,95(r3)
 400bf58:	18001805 	stb	zero,96(r3)
 400bf5c:	18001845 	stb	zero,97(r3)
 400bf60:	18001885 	stb	zero,98(r3)
 400bf64:	180018c5 	stb	zero,99(r3)
 400bf68:	20800317 	ldw	r2,12(r4)
 400bf6c:	024000b4 	movhi	r9,2
 400bf70:	18000515 	stw	zero,20(r3)
 400bf74:	18000615 	stw	zero,24(r3)
 400bf78:	18c00715 	stw	r3,28(r3)
 400bf7c:	1a000815 	stw	r8,32(r3)
 400bf80:	19c00915 	stw	r7,36(r3)
 400bf84:	19800a15 	stw	r6,40(r3)
 400bf88:	19400b15 	stw	r5,44(r3)
 400bf8c:	4a400484 	addi	r9,r9,18
 400bf90:	10001915 	stw	zero,100(r2)
 400bf94:	10000015 	stw	zero,0(r2)
 400bf98:	10000115 	stw	zero,4(r2)
 400bf9c:	10000215 	stw	zero,8(r2)
 400bfa0:	12400315 	stw	r9,12(r2)
 400bfa4:	10000415 	stw	zero,16(r2)
 400bfa8:	10000515 	stw	zero,20(r2)
 400bfac:	10000615 	stw	zero,24(r2)
 400bfb0:	10001705 	stb	zero,92(r2)
 400bfb4:	10001745 	stb	zero,93(r2)
 400bfb8:	10001785 	stb	zero,94(r2)
 400bfbc:	100017c5 	stb	zero,95(r2)
 400bfc0:	10001805 	stb	zero,96(r2)
 400bfc4:	10001845 	stb	zero,97(r2)
 400bfc8:	10001885 	stb	zero,98(r2)
 400bfcc:	100018c5 	stb	zero,99(r2)
 400bfd0:	10800715 	stw	r2,28(r2)
 400bfd4:	12000815 	stw	r8,32(r2)
 400bfd8:	11c00915 	stw	r7,36(r2)
 400bfdc:	11800a15 	stw	r6,40(r2)
 400bfe0:	11400b15 	stw	r5,44(r2)
 400bfe4:	00800044 	movi	r2,1
 400bfe8:	20800e15 	stw	r2,56(r4)
 400bfec:	f800283a 	ret

0400bff0 <__sfmoreglue>:
 400bff0:	defffc04 	addi	sp,sp,-16
 400bff4:	dc800215 	stw	r18,8(sp)
 400bff8:	2825883a 	mov	r18,r5
 400bffc:	dc000015 	stw	r16,0(sp)
 400c000:	01401a04 	movi	r5,104
 400c004:	2021883a 	mov	r16,r4
 400c008:	913fffc4 	addi	r4,r18,-1
 400c00c:	dfc00315 	stw	ra,12(sp)
 400c010:	dc400115 	stw	r17,4(sp)
 400c014:	4001e240 	call	4001e24 <__mulsi3>
 400c018:	8009883a 	mov	r4,r16
 400c01c:	11401d04 	addi	r5,r2,116
 400c020:	1023883a 	mov	r17,r2
 400c024:	40060ac0 	call	40060ac <_malloc_r>
 400c028:	1021883a 	mov	r16,r2
 400c02c:	10000726 	beq	r2,zero,400c04c <__sfmoreglue+0x5c>
 400c030:	11000304 	addi	r4,r2,12
 400c034:	10000015 	stw	zero,0(r2)
 400c038:	14800115 	stw	r18,4(r2)
 400c03c:	11000215 	stw	r4,8(r2)
 400c040:	89801a04 	addi	r6,r17,104
 400c044:	000b883a 	mov	r5,zero
 400c048:	400981c0 	call	400981c <memset>
 400c04c:	8005883a 	mov	r2,r16
 400c050:	dfc00317 	ldw	ra,12(sp)
 400c054:	dc800217 	ldw	r18,8(sp)
 400c058:	dc400117 	ldw	r17,4(sp)
 400c05c:	dc000017 	ldw	r16,0(sp)
 400c060:	dec00404 	addi	sp,sp,16
 400c064:	f800283a 	ret

0400c068 <__sfp>:
 400c068:	defffb04 	addi	sp,sp,-20
 400c06c:	00810074 	movhi	r2,1025
 400c070:	dc000015 	stw	r16,0(sp)
 400c074:	140cac17 	ldw	r16,12976(r2)
 400c078:	dc400115 	stw	r17,4(sp)
 400c07c:	dfc00415 	stw	ra,16(sp)
 400c080:	80800e17 	ldw	r2,56(r16)
 400c084:	dcc00315 	stw	r19,12(sp)
 400c088:	dc800215 	stw	r18,8(sp)
 400c08c:	2023883a 	mov	r17,r4
 400c090:	10003126 	beq	r2,zero,400c158 <__sfp+0xf0>
 400c094:	8100ba17 	ldw	r4,744(r16)
 400c098:	8140b917 	ldw	r5,740(r16)
 400c09c:	04c00104 	movi	r19,4
 400c0a0:	8400b804 	addi	r16,r16,736
 400c0a4:	297fffc4 	addi	r5,r5,-1
 400c0a8:	2800050e 	bge	r5,zero,400c0c0 <__sfp+0x58>
 400c0ac:	00002406 	br	400c140 <__sfp+0xd8>
 400c0b0:	297fffc4 	addi	r5,r5,-1
 400c0b4:	28bfffd8 	cmpnei	r2,r5,-1
 400c0b8:	21001a04 	addi	r4,r4,104
 400c0bc:	10002026 	beq	r2,zero,400c140 <__sfp+0xd8>
 400c0c0:	2080030f 	ldh	r2,12(r4)
 400c0c4:	103ffa1e 	bne	r2,zero,400c0b0 <__sfp+0x48>
 400c0c8:	00bffff4 	movhi	r2,65535
 400c0cc:	10800044 	addi	r2,r2,1
 400c0d0:	20001915 	stw	zero,100(r4)
 400c0d4:	20000015 	stw	zero,0(r4)
 400c0d8:	20000115 	stw	zero,4(r4)
 400c0dc:	20000215 	stw	zero,8(r4)
 400c0e0:	20800315 	stw	r2,12(r4)
 400c0e4:	20000415 	stw	zero,16(r4)
 400c0e8:	20000515 	stw	zero,20(r4)
 400c0ec:	20000615 	stw	zero,24(r4)
 400c0f0:	20001705 	stb	zero,92(r4)
 400c0f4:	20001745 	stb	zero,93(r4)
 400c0f8:	20001785 	stb	zero,94(r4)
 400c0fc:	200017c5 	stb	zero,95(r4)
 400c100:	20001805 	stb	zero,96(r4)
 400c104:	20001845 	stb	zero,97(r4)
 400c108:	20001885 	stb	zero,98(r4)
 400c10c:	200018c5 	stb	zero,99(r4)
 400c110:	20000c15 	stw	zero,48(r4)
 400c114:	20000d15 	stw	zero,52(r4)
 400c118:	20001115 	stw	zero,68(r4)
 400c11c:	20001215 	stw	zero,72(r4)
 400c120:	2005883a 	mov	r2,r4
 400c124:	dfc00417 	ldw	ra,16(sp)
 400c128:	dcc00317 	ldw	r19,12(sp)
 400c12c:	dc800217 	ldw	r18,8(sp)
 400c130:	dc400117 	ldw	r17,4(sp)
 400c134:	dc000017 	ldw	r16,0(sp)
 400c138:	dec00504 	addi	sp,sp,20
 400c13c:	f800283a 	ret
 400c140:	80800017 	ldw	r2,0(r16)
 400c144:	10000726 	beq	r2,zero,400c164 <__sfp+0xfc>
 400c148:	11000217 	ldw	r4,8(r2)
 400c14c:	11400117 	ldw	r5,4(r2)
 400c150:	1021883a 	mov	r16,r2
 400c154:	003fd306 	br	400c0a4 <__sfp+0x3c>
 400c158:	8009883a 	mov	r4,r16
 400c15c:	400be880 	call	400be88 <__sinit.part.0>
 400c160:	003fcc06 	br	400c094 <__sfp+0x2c>
 400c164:	01406b04 	movi	r5,428
 400c168:	8809883a 	mov	r4,r17
 400c16c:	40060ac0 	call	40060ac <_malloc_r>
 400c170:	1025883a 	mov	r18,r2
 400c174:	10000c26 	beq	r2,zero,400c1a8 <__sfp+0x140>
 400c178:	11000304 	addi	r4,r2,12
 400c17c:	11000215 	stw	r4,8(r2)
 400c180:	000b883a 	mov	r5,zero
 400c184:	10000015 	stw	zero,0(r2)
 400c188:	14c00115 	stw	r19,4(r2)
 400c18c:	01806804 	movi	r6,416
 400c190:	400981c0 	call	400981c <memset>
 400c194:	1009883a 	mov	r4,r2
 400c198:	84800015 	stw	r18,0(r16)
 400c19c:	014000c4 	movi	r5,3
 400c1a0:	9021883a 	mov	r16,r18
 400c1a4:	003fc606 	br	400c0c0 <__sfp+0x58>
 400c1a8:	80000015 	stw	zero,0(r16)
 400c1ac:	00800304 	movi	r2,12
 400c1b0:	88800015 	stw	r2,0(r17)
 400c1b4:	0009883a 	mov	r4,zero
 400c1b8:	003fd906 	br	400c120 <__sfp+0xb8>

0400c1bc <_cleanup>:
 400c1bc:	00810074 	movhi	r2,1025
 400c1c0:	110cac17 	ldw	r4,12976(r2)
 400c1c4:	01410074 	movhi	r5,1025
 400c1c8:	29745e04 	addi	r5,r5,-11912
 400c1cc:	400c9781 	jmpi	400c978 <_fwalk_reent>

0400c1d0 <__sinit>:
 400c1d0:	20800e17 	ldw	r2,56(r4)
 400c1d4:	10000126 	beq	r2,zero,400c1dc <__sinit+0xc>
 400c1d8:	f800283a 	ret
 400c1dc:	400be881 	jmpi	400be88 <__sinit.part.0>

0400c1e0 <__sfp_lock_acquire>:
 400c1e0:	f800283a 	ret

0400c1e4 <__sfp_lock_release>:
 400c1e4:	f800283a 	ret

0400c1e8 <__sinit_lock_acquire>:
 400c1e8:	f800283a 	ret

0400c1ec <__sinit_lock_release>:
 400c1ec:	f800283a 	ret

0400c1f0 <__fp_lock_all>:
 400c1f0:	00810074 	movhi	r2,1025
 400c1f4:	110cad17 	ldw	r4,12980(r2)
 400c1f8:	01410074 	movhi	r5,1025
 400c1fc:	296f9b04 	addi	r5,r5,-16788
 400c200:	400c8e01 	jmpi	400c8e0 <_fwalk>

0400c204 <__fp_unlock_all>:
 400c204:	00810074 	movhi	r2,1025
 400c208:	110cad17 	ldw	r4,12980(r2)
 400c20c:	01410074 	movhi	r5,1025
 400c210:	296fa004 	addi	r5,r5,-16768
 400c214:	400c8e01 	jmpi	400c8e0 <_fwalk>

0400c218 <__fputwc>:
 400c218:	defff904 	addi	sp,sp,-28
 400c21c:	dcc00415 	stw	r19,16(sp)
 400c220:	dc800315 	stw	r18,12(sp)
 400c224:	dc000115 	stw	r16,4(sp)
 400c228:	dfc00615 	stw	ra,24(sp)
 400c22c:	dd000515 	stw	r20,20(sp)
 400c230:	dc400215 	stw	r17,8(sp)
 400c234:	2025883a 	mov	r18,r4
 400c238:	2827883a 	mov	r19,r5
 400c23c:	3021883a 	mov	r16,r6
 400c240:	40096200 	call	4009620 <__locale_mb_cur_max>
 400c244:	10800058 	cmpnei	r2,r2,1
 400c248:	1000071e 	bne	r2,zero,400c268 <__fputwc+0x50>
 400c24c:	98bfffc4 	addi	r2,r19,-1
 400c250:	10803fe8 	cmpgeui	r2,r2,255
 400c254:	1000041e 	bne	r2,zero,400c268 <__fputwc+0x50>
 400c258:	980b883a 	mov	r5,r19
 400c25c:	dcc000c5 	stb	r19,3(sp)
 400c260:	05000044 	movi	r20,1
 400c264:	00000a06 	br	400c290 <__fputwc+0x78>
 400c268:	81c01704 	addi	r7,r16,92
 400c26c:	980d883a 	mov	r6,r19
 400c270:	d94000c4 	addi	r5,sp,3
 400c274:	9009883a 	mov	r4,r18
 400c278:	400cf080 	call	400cf08 <_wcrtomb_r>
 400c27c:	1029883a 	mov	r20,r2
 400c280:	10bfffd8 	cmpnei	r2,r2,-1
 400c284:	10003926 	beq	r2,zero,400c36c <__fputwc+0x154>
 400c288:	a0001f26 	beq	r20,zero,400c308 <__fputwc+0xf0>
 400c28c:	d94000c3 	ldbu	r5,3(sp)
 400c290:	0023883a 	mov	r17,zero
 400c294:	00000a06 	br	400c2c0 <__fputwc+0xa8>
 400c298:	80800017 	ldw	r2,0(r16)
 400c29c:	11400005 	stb	r5,0(r2)
 400c2a0:	80c00017 	ldw	r3,0(r16)
 400c2a4:	18c00044 	addi	r3,r3,1
 400c2a8:	80c00015 	stw	r3,0(r16)
 400c2ac:	8c400044 	addi	r17,r17,1
 400c2b0:	d88000c4 	addi	r2,sp,3
 400c2b4:	1447883a 	add	r3,r2,r17
 400c2b8:	8d00132e 	bgeu	r17,r20,400c308 <__fputwc+0xf0>
 400c2bc:	19400003 	ldbu	r5,0(r3)
 400c2c0:	80c00217 	ldw	r3,8(r16)
 400c2c4:	18ffffc4 	addi	r3,r3,-1
 400c2c8:	80c00215 	stw	r3,8(r16)
 400c2cc:	183ff20e 	bge	r3,zero,400c298 <__fputwc+0x80>
 400c2d0:	80800617 	ldw	r2,24(r16)
 400c2d4:	18801616 	blt	r3,r2,400c330 <__fputwc+0x118>
 400c2d8:	80800017 	ldw	r2,0(r16)
 400c2dc:	11400005 	stb	r5,0(r2)
 400c2e0:	80800017 	ldw	r2,0(r16)
 400c2e4:	10c00003 	ldbu	r3,0(r2)
 400c2e8:	10800044 	addi	r2,r2,1
 400c2ec:	18c002a0 	cmpeqi	r3,r3,10
 400c2f0:	1800171e 	bne	r3,zero,400c350 <__fputwc+0x138>
 400c2f4:	80800015 	stw	r2,0(r16)
 400c2f8:	8c400044 	addi	r17,r17,1
 400c2fc:	d88000c4 	addi	r2,sp,3
 400c300:	1447883a 	add	r3,r2,r17
 400c304:	8d3fed36 	bltu	r17,r20,400c2bc <__fputwc+0xa4>
 400c308:	9829883a 	mov	r20,r19
 400c30c:	a005883a 	mov	r2,r20
 400c310:	dfc00617 	ldw	ra,24(sp)
 400c314:	dd000517 	ldw	r20,20(sp)
 400c318:	dcc00417 	ldw	r19,16(sp)
 400c31c:	dc800317 	ldw	r18,12(sp)
 400c320:	dc400217 	ldw	r17,8(sp)
 400c324:	dc000117 	ldw	r16,4(sp)
 400c328:	dec00704 	addi	sp,sp,28
 400c32c:	f800283a 	ret
 400c330:	29403fcc 	andi	r5,r5,255
 400c334:	800d883a 	mov	r6,r16
 400c338:	9009883a 	mov	r4,r18
 400c33c:	400cda80 	call	400cda8 <__swbuf_r>
 400c340:	10bfffe0 	cmpeqi	r2,r2,-1
 400c344:	103fd926 	beq	r2,zero,400c2ac <__fputwc+0x94>
 400c348:	053fffc4 	movi	r20,-1
 400c34c:	003fef06 	br	400c30c <__fputwc+0xf4>
 400c350:	800d883a 	mov	r6,r16
 400c354:	01400284 	movi	r5,10
 400c358:	9009883a 	mov	r4,r18
 400c35c:	400cda80 	call	400cda8 <__swbuf_r>
 400c360:	10bfffe0 	cmpeqi	r2,r2,-1
 400c364:	103fd126 	beq	r2,zero,400c2ac <__fputwc+0x94>
 400c368:	003ff706 	br	400c348 <__fputwc+0x130>
 400c36c:	8080030b 	ldhu	r2,12(r16)
 400c370:	10801014 	ori	r2,r2,64
 400c374:	8080030d 	sth	r2,12(r16)
 400c378:	003fe406 	br	400c30c <__fputwc+0xf4>

0400c37c <_fputwc_r>:
 400c37c:	3080030b 	ldhu	r2,12(r6)
 400c380:	10c8000c 	andi	r3,r2,8192
 400c384:	1800051e 	bne	r3,zero,400c39c <_fputwc_r+0x20>
 400c388:	30c01917 	ldw	r3,100(r6)
 400c38c:	10880014 	ori	r2,r2,8192
 400c390:	3080030d 	sth	r2,12(r6)
 400c394:	18880014 	ori	r2,r3,8192
 400c398:	30801915 	stw	r2,100(r6)
 400c39c:	400c2181 	jmpi	400c218 <__fputwc>

0400c3a0 <fputwc>:
 400c3a0:	defffc04 	addi	sp,sp,-16
 400c3a4:	00810074 	movhi	r2,1025
 400c3a8:	dc000215 	stw	r16,8(sp)
 400c3ac:	140cad17 	ldw	r16,12980(r2)
 400c3b0:	dfc00315 	stw	ra,12(sp)
 400c3b4:	280d883a 	mov	r6,r5
 400c3b8:	200b883a 	mov	r5,r4
 400c3bc:	80000226 	beq	r16,zero,400c3c8 <fputwc+0x28>
 400c3c0:	80800e17 	ldw	r2,56(r16)
 400c3c4:	10000d26 	beq	r2,zero,400c3fc <fputwc+0x5c>
 400c3c8:	3080030b 	ldhu	r2,12(r6)
 400c3cc:	10c8000c 	andi	r3,r2,8192
 400c3d0:	1800051e 	bne	r3,zero,400c3e8 <fputwc+0x48>
 400c3d4:	30c01917 	ldw	r3,100(r6)
 400c3d8:	10880014 	ori	r2,r2,8192
 400c3dc:	3080030d 	sth	r2,12(r6)
 400c3e0:	18880014 	ori	r2,r3,8192
 400c3e4:	30801915 	stw	r2,100(r6)
 400c3e8:	8009883a 	mov	r4,r16
 400c3ec:	dfc00317 	ldw	ra,12(sp)
 400c3f0:	dc000217 	ldw	r16,8(sp)
 400c3f4:	dec00404 	addi	sp,sp,16
 400c3f8:	400c2181 	jmpi	400c218 <__fputwc>
 400c3fc:	d9000015 	stw	r4,0(sp)
 400c400:	8009883a 	mov	r4,r16
 400c404:	d9800115 	stw	r6,4(sp)
 400c408:	400c1d00 	call	400c1d0 <__sinit>
 400c40c:	d9800117 	ldw	r6,4(sp)
 400c410:	d9400017 	ldw	r5,0(sp)
 400c414:	003fec06 	br	400c3c8 <fputwc+0x28>

0400c418 <__sfvwrite_r>:
 400c418:	30800217 	ldw	r2,8(r6)
 400c41c:	1000a326 	beq	r2,zero,400c6ac <__sfvwrite_r+0x294>
 400c420:	29c0030b 	ldhu	r7,12(r5)
 400c424:	defff404 	addi	sp,sp,-48
 400c428:	ddc00915 	stw	r23,36(sp)
 400c42c:	dd400715 	stw	r21,28(sp)
 400c430:	dc000215 	stw	r16,8(sp)
 400c434:	dfc00b15 	stw	ra,44(sp)
 400c438:	df000a15 	stw	fp,40(sp)
 400c43c:	dd800815 	stw	r22,32(sp)
 400c440:	dd000615 	stw	r20,24(sp)
 400c444:	dcc00515 	stw	r19,20(sp)
 400c448:	dc800415 	stw	r18,16(sp)
 400c44c:	dc400315 	stw	r17,12(sp)
 400c450:	3880020c 	andi	r2,r7,8
 400c454:	302f883a 	mov	r23,r6
 400c458:	202b883a 	mov	r21,r4
 400c45c:	2821883a 	mov	r16,r5
 400c460:	10002226 	beq	r2,zero,400c4ec <__sfvwrite_r+0xd4>
 400c464:	28800417 	ldw	r2,16(r5)
 400c468:	10002026 	beq	r2,zero,400c4ec <__sfvwrite_r+0xd4>
 400c46c:	3880008c 	andi	r2,r7,2
 400c470:	bc400017 	ldw	r17,0(r23)
 400c474:	10002526 	beq	r2,zero,400c50c <__sfvwrite_r+0xf4>
 400c478:	80800917 	ldw	r2,36(r16)
 400c47c:	81400717 	ldw	r5,28(r16)
 400c480:	05200034 	movhi	r20,32768
 400c484:	0027883a 	mov	r19,zero
 400c488:	0025883a 	mov	r18,zero
 400c48c:	a53f0004 	addi	r20,r20,-1024
 400c490:	980d883a 	mov	r6,r19
 400c494:	a809883a 	mov	r4,r21
 400c498:	90001026 	beq	r18,zero,400c4dc <__sfvwrite_r+0xc4>
 400c49c:	900f883a 	mov	r7,r18
 400c4a0:	a480012e 	bgeu	r20,r18,400c4a8 <__sfvwrite_r+0x90>
 400c4a4:	a00f883a 	mov	r7,r20
 400c4a8:	103ee83a 	callr	r2
 400c4ac:	00807a0e 	bge	zero,r2,400c698 <__sfvwrite_r+0x280>
 400c4b0:	b9000217 	ldw	r4,8(r23)
 400c4b4:	98a7883a 	add	r19,r19,r2
 400c4b8:	90a5c83a 	sub	r18,r18,r2
 400c4bc:	2085c83a 	sub	r2,r4,r2
 400c4c0:	b8800215 	stw	r2,8(r23)
 400c4c4:	10006326 	beq	r2,zero,400c654 <__sfvwrite_r+0x23c>
 400c4c8:	80800917 	ldw	r2,36(r16)
 400c4cc:	81400717 	ldw	r5,28(r16)
 400c4d0:	980d883a 	mov	r6,r19
 400c4d4:	a809883a 	mov	r4,r21
 400c4d8:	903ff01e 	bne	r18,zero,400c49c <__sfvwrite_r+0x84>
 400c4dc:	8cc00017 	ldw	r19,0(r17)
 400c4e0:	8c800117 	ldw	r18,4(r17)
 400c4e4:	8c400204 	addi	r17,r17,8
 400c4e8:	003fe906 	br	400c490 <__sfvwrite_r+0x78>
 400c4ec:	800b883a 	mov	r5,r16
 400c4f0:	a809883a 	mov	r4,r21
 400c4f4:	400b9fc0 	call	400b9fc <__swsetup_r>
 400c4f8:	1000f71e 	bne	r2,zero,400c8d8 <__sfvwrite_r+0x4c0>
 400c4fc:	81c0030b 	ldhu	r7,12(r16)
 400c500:	bc400017 	ldw	r17,0(r23)
 400c504:	3880008c 	andi	r2,r7,2
 400c508:	103fdb1e 	bne	r2,zero,400c478 <__sfvwrite_r+0x60>
 400c50c:	3880004c 	andi	r2,r7,1
 400c510:	84800217 	ldw	r18,8(r16)
 400c514:	82000017 	ldw	r8,0(r16)
 400c518:	1000661e 	bne	r2,zero,400c6b4 <__sfvwrite_r+0x29c>
 400c51c:	00a00034 	movhi	r2,32768
 400c520:	10bfff84 	addi	r2,r2,-2
 400c524:	00e00034 	movhi	r3,32768
 400c528:	d8800015 	stw	r2,0(sp)
 400c52c:	18bfffc4 	addi	r2,r3,-1
 400c530:	0039883a 	mov	fp,zero
 400c534:	0027883a 	mov	r19,zero
 400c538:	d8800115 	stw	r2,4(sp)
 400c53c:	98004126 	beq	r19,zero,400c644 <__sfvwrite_r+0x22c>
 400c540:	3880800c 	andi	r2,r7,512
 400c544:	10009726 	beq	r2,zero,400c7a4 <__sfvwrite_r+0x38c>
 400c548:	902d883a 	mov	r22,r18
 400c54c:	9c80be36 	bltu	r19,r18,400c848 <__sfvwrite_r+0x430>
 400c550:	3881200c 	andi	r2,r7,1152
 400c554:	10002626 	beq	r2,zero,400c5f0 <__sfvwrite_r+0x1d8>
 400c558:	81800517 	ldw	r6,20(r16)
 400c55c:	81400417 	ldw	r5,16(r16)
 400c560:	98800044 	addi	r2,r19,1
 400c564:	3189883a 	add	r4,r6,r6
 400c568:	2189883a 	add	r4,r4,r6
 400c56c:	2028d7fa 	srli	r20,r4,31
 400c570:	4165c83a 	sub	r18,r8,r5
 400c574:	1485883a 	add	r2,r2,r18
 400c578:	a109883a 	add	r4,r20,r4
 400c57c:	2029d07a 	srai	r20,r4,1
 400c580:	a00d883a 	mov	r6,r20
 400c584:	a080022e 	bgeu	r20,r2,400c590 <__sfvwrite_r+0x178>
 400c588:	1029883a 	mov	r20,r2
 400c58c:	100d883a 	mov	r6,r2
 400c590:	39c1000c 	andi	r7,r7,1024
 400c594:	3800c026 	beq	r7,zero,400c898 <__sfvwrite_r+0x480>
 400c598:	a809883a 	mov	r4,r21
 400c59c:	300b883a 	mov	r5,r6
 400c5a0:	40060ac0 	call	40060ac <_malloc_r>
 400c5a4:	1009883a 	mov	r4,r2
 400c5a8:	1000c726 	beq	r2,zero,400c8c8 <__sfvwrite_r+0x4b0>
 400c5ac:	81400417 	ldw	r5,16(r16)
 400c5b0:	900d883a 	mov	r6,r18
 400c5b4:	400695c0 	call	400695c <memcpy>
 400c5b8:	1009883a 	mov	r4,r2
 400c5bc:	8080030b 	ldhu	r2,12(r16)
 400c5c0:	00fedfc4 	movi	r3,-1153
 400c5c4:	10c4703a 	and	r2,r2,r3
 400c5c8:	10802014 	ori	r2,r2,128
 400c5cc:	8080030d 	sth	r2,12(r16)
 400c5d0:	2491883a 	add	r8,r4,r18
 400c5d4:	a485c83a 	sub	r2,r20,r18
 400c5d8:	81000415 	stw	r4,16(r16)
 400c5dc:	82000015 	stw	r8,0(r16)
 400c5e0:	85000515 	stw	r20,20(r16)
 400c5e4:	9825883a 	mov	r18,r19
 400c5e8:	80800215 	stw	r2,8(r16)
 400c5ec:	982d883a 	mov	r22,r19
 400c5f0:	4009883a 	mov	r4,r8
 400c5f4:	b00d883a 	mov	r6,r22
 400c5f8:	e00b883a 	mov	r5,fp
 400c5fc:	40096f00 	call	40096f0 <memmove>
 400c600:	81000217 	ldw	r4,8(r16)
 400c604:	80800017 	ldw	r2,0(r16)
 400c608:	9829883a 	mov	r20,r19
 400c60c:	24a5c83a 	sub	r18,r4,r18
 400c610:	1585883a 	add	r2,r2,r22
 400c614:	84800215 	stw	r18,8(r16)
 400c618:	80800015 	stw	r2,0(r16)
 400c61c:	0027883a 	mov	r19,zero
 400c620:	b8800217 	ldw	r2,8(r23)
 400c624:	e539883a 	add	fp,fp,r20
 400c628:	1529c83a 	sub	r20,r2,r20
 400c62c:	bd000215 	stw	r20,8(r23)
 400c630:	a0000826 	beq	r20,zero,400c654 <__sfvwrite_r+0x23c>
 400c634:	81c0030b 	ldhu	r7,12(r16)
 400c638:	84800217 	ldw	r18,8(r16)
 400c63c:	82000017 	ldw	r8,0(r16)
 400c640:	983fbf1e 	bne	r19,zero,400c540 <__sfvwrite_r+0x128>
 400c644:	8f000017 	ldw	fp,0(r17)
 400c648:	8cc00117 	ldw	r19,4(r17)
 400c64c:	8c400204 	addi	r17,r17,8
 400c650:	003fba06 	br	400c53c <__sfvwrite_r+0x124>
 400c654:	0005883a 	mov	r2,zero
 400c658:	dfc00b17 	ldw	ra,44(sp)
 400c65c:	df000a17 	ldw	fp,40(sp)
 400c660:	ddc00917 	ldw	r23,36(sp)
 400c664:	dd800817 	ldw	r22,32(sp)
 400c668:	dd400717 	ldw	r21,28(sp)
 400c66c:	dd000617 	ldw	r20,24(sp)
 400c670:	dcc00517 	ldw	r19,20(sp)
 400c674:	dc800417 	ldw	r18,16(sp)
 400c678:	dc400317 	ldw	r17,12(sp)
 400c67c:	dc000217 	ldw	r16,8(sp)
 400c680:	dec00c04 	addi	sp,sp,48
 400c684:	f800283a 	ret
 400c688:	800b883a 	mov	r5,r16
 400c68c:	a809883a 	mov	r4,r21
 400c690:	400bd880 	call	400bd88 <_fflush_r>
 400c694:	10002026 	beq	r2,zero,400c718 <__sfvwrite_r+0x300>
 400c698:	8080030b 	ldhu	r2,12(r16)
 400c69c:	10801014 	ori	r2,r2,64
 400c6a0:	8080030d 	sth	r2,12(r16)
 400c6a4:	00bfffc4 	movi	r2,-1
 400c6a8:	003feb06 	br	400c658 <__sfvwrite_r+0x240>
 400c6ac:	0005883a 	mov	r2,zero
 400c6b0:	f800283a 	ret
 400c6b4:	002d883a 	mov	r22,zero
 400c6b8:	0027883a 	mov	r19,zero
 400c6bc:	0005883a 	mov	r2,zero
 400c6c0:	0039883a 	mov	fp,zero
 400c6c4:	b0001d26 	beq	r22,zero,400c73c <__sfvwrite_r+0x324>
 400c6c8:	10002026 	beq	r2,zero,400c74c <__sfvwrite_r+0x334>
 400c6cc:	9829883a 	mov	r20,r19
 400c6d0:	b500012e 	bgeu	r22,r20,400c6d8 <__sfvwrite_r+0x2c0>
 400c6d4:	b029883a 	mov	r20,r22
 400c6d8:	80800417 	ldw	r2,16(r16)
 400c6dc:	81c00517 	ldw	r7,20(r16)
 400c6e0:	1200022e 	bgeu	r2,r8,400c6ec <__sfvwrite_r+0x2d4>
 400c6e4:	3ca5883a 	add	r18,r7,r18
 400c6e8:	95002216 	blt	r18,r20,400c774 <__sfvwrite_r+0x35c>
 400c6ec:	a1c05916 	blt	r20,r7,400c854 <__sfvwrite_r+0x43c>
 400c6f0:	80800917 	ldw	r2,36(r16)
 400c6f4:	81400717 	ldw	r5,28(r16)
 400c6f8:	e00d883a 	mov	r6,fp
 400c6fc:	a809883a 	mov	r4,r21
 400c700:	103ee83a 	callr	r2
 400c704:	1025883a 	mov	r18,r2
 400c708:	00bfe30e 	bge	zero,r2,400c698 <__sfvwrite_r+0x280>
 400c70c:	9ca7c83a 	sub	r19,r19,r18
 400c710:	983fdd26 	beq	r19,zero,400c688 <__sfvwrite_r+0x270>
 400c714:	00800044 	movi	r2,1
 400c718:	b9800217 	ldw	r6,8(r23)
 400c71c:	e4b9883a 	add	fp,fp,r18
 400c720:	b4adc83a 	sub	r22,r22,r18
 400c724:	34a5c83a 	sub	r18,r6,r18
 400c728:	bc800215 	stw	r18,8(r23)
 400c72c:	903fc926 	beq	r18,zero,400c654 <__sfvwrite_r+0x23c>
 400c730:	84800217 	ldw	r18,8(r16)
 400c734:	82000017 	ldw	r8,0(r16)
 400c738:	b03fe31e 	bne	r22,zero,400c6c8 <__sfvwrite_r+0x2b0>
 400c73c:	8d800117 	ldw	r22,4(r17)
 400c740:	8f000017 	ldw	fp,0(r17)
 400c744:	8c400204 	addi	r17,r17,8
 400c748:	b03ffc26 	beq	r22,zero,400c73c <__sfvwrite_r+0x324>
 400c74c:	b00d883a 	mov	r6,r22
 400c750:	01400284 	movi	r5,10
 400c754:	e009883a 	mov	r4,fp
 400c758:	da000015 	stw	r8,0(sp)
 400c75c:	400688c0 	call	400688c <memchr>
 400c760:	da000017 	ldw	r8,0(sp)
 400c764:	10004926 	beq	r2,zero,400c88c <__sfvwrite_r+0x474>
 400c768:	10800044 	addi	r2,r2,1
 400c76c:	1727c83a 	sub	r19,r2,fp
 400c770:	003fd606 	br	400c6cc <__sfvwrite_r+0x2b4>
 400c774:	e00b883a 	mov	r5,fp
 400c778:	4009883a 	mov	r4,r8
 400c77c:	900d883a 	mov	r6,r18
 400c780:	40096f00 	call	40096f0 <memmove>
 400c784:	80800017 	ldw	r2,0(r16)
 400c788:	800b883a 	mov	r5,r16
 400c78c:	a809883a 	mov	r4,r21
 400c790:	1485883a 	add	r2,r2,r18
 400c794:	80800015 	stw	r2,0(r16)
 400c798:	400bd880 	call	400bd88 <_fflush_r>
 400c79c:	103fdb26 	beq	r2,zero,400c70c <__sfvwrite_r+0x2f4>
 400c7a0:	003fbd06 	br	400c698 <__sfvwrite_r+0x280>
 400c7a4:	80800417 	ldw	r2,16(r16)
 400c7a8:	12001436 	bltu	r2,r8,400c7fc <__sfvwrite_r+0x3e4>
 400c7ac:	85000517 	ldw	r20,20(r16)
 400c7b0:	9d001236 	bltu	r19,r20,400c7fc <__sfvwrite_r+0x3e4>
 400c7b4:	d8800017 	ldw	r2,0(sp)
 400c7b8:	14c0322e 	bgeu	r2,r19,400c884 <__sfvwrite_r+0x46c>
 400c7bc:	d9000117 	ldw	r4,4(sp)
 400c7c0:	a00b883a 	mov	r5,r20
 400c7c4:	4001c700 	call	4001c70 <__divsi3>
 400c7c8:	a00b883a 	mov	r5,r20
 400c7cc:	1009883a 	mov	r4,r2
 400c7d0:	4001e240 	call	4001e24 <__mulsi3>
 400c7d4:	82000917 	ldw	r8,36(r16)
 400c7d8:	81400717 	ldw	r5,28(r16)
 400c7dc:	100f883a 	mov	r7,r2
 400c7e0:	e00d883a 	mov	r6,fp
 400c7e4:	a809883a 	mov	r4,r21
 400c7e8:	403ee83a 	callr	r8
 400c7ec:	1029883a 	mov	r20,r2
 400c7f0:	00bfa90e 	bge	zero,r2,400c698 <__sfvwrite_r+0x280>
 400c7f4:	9d27c83a 	sub	r19,r19,r20
 400c7f8:	003f8906 	br	400c620 <__sfvwrite_r+0x208>
 400c7fc:	9029883a 	mov	r20,r18
 400c800:	9c80012e 	bgeu	r19,r18,400c808 <__sfvwrite_r+0x3f0>
 400c804:	9829883a 	mov	r20,r19
 400c808:	4009883a 	mov	r4,r8
 400c80c:	a00d883a 	mov	r6,r20
 400c810:	e00b883a 	mov	r5,fp
 400c814:	40096f00 	call	40096f0 <memmove>
 400c818:	80800217 	ldw	r2,8(r16)
 400c81c:	81000017 	ldw	r4,0(r16)
 400c820:	1505c83a 	sub	r2,r2,r20
 400c824:	2509883a 	add	r4,r4,r20
 400c828:	80800215 	stw	r2,8(r16)
 400c82c:	81000015 	stw	r4,0(r16)
 400c830:	103ff01e 	bne	r2,zero,400c7f4 <__sfvwrite_r+0x3dc>
 400c834:	800b883a 	mov	r5,r16
 400c838:	a809883a 	mov	r4,r21
 400c83c:	400bd880 	call	400bd88 <_fflush_r>
 400c840:	103fec26 	beq	r2,zero,400c7f4 <__sfvwrite_r+0x3dc>
 400c844:	003f9406 	br	400c698 <__sfvwrite_r+0x280>
 400c848:	9825883a 	mov	r18,r19
 400c84c:	982d883a 	mov	r22,r19
 400c850:	003f6706 	br	400c5f0 <__sfvwrite_r+0x1d8>
 400c854:	4009883a 	mov	r4,r8
 400c858:	a00d883a 	mov	r6,r20
 400c85c:	e00b883a 	mov	r5,fp
 400c860:	40096f00 	call	40096f0 <memmove>
 400c864:	81000217 	ldw	r4,8(r16)
 400c868:	80800017 	ldw	r2,0(r16)
 400c86c:	a025883a 	mov	r18,r20
 400c870:	2509c83a 	sub	r4,r4,r20
 400c874:	1505883a 	add	r2,r2,r20
 400c878:	81000215 	stw	r4,8(r16)
 400c87c:	80800015 	stw	r2,0(r16)
 400c880:	003fa206 	br	400c70c <__sfvwrite_r+0x2f4>
 400c884:	9809883a 	mov	r4,r19
 400c888:	003fcd06 	br	400c7c0 <__sfvwrite_r+0x3a8>
 400c88c:	b5000044 	addi	r20,r22,1
 400c890:	a027883a 	mov	r19,r20
 400c894:	003f8e06 	br	400c6d0 <__sfvwrite_r+0x2b8>
 400c898:	a809883a 	mov	r4,r21
 400c89c:	400990c0 	call	400990c <_realloc_r>
 400c8a0:	1009883a 	mov	r4,r2
 400c8a4:	103f4a1e 	bne	r2,zero,400c5d0 <__sfvwrite_r+0x1b8>
 400c8a8:	81400417 	ldw	r5,16(r16)
 400c8ac:	a809883a 	mov	r4,r21
 400c8b0:	40092b00 	call	40092b0 <_free_r>
 400c8b4:	8080030b 	ldhu	r2,12(r16)
 400c8b8:	00c00304 	movi	r3,12
 400c8bc:	a8c00015 	stw	r3,0(r21)
 400c8c0:	10bfdfcc 	andi	r2,r2,65407
 400c8c4:	003f7506 	br	400c69c <__sfvwrite_r+0x284>
 400c8c8:	00c00304 	movi	r3,12
 400c8cc:	8080030b 	ldhu	r2,12(r16)
 400c8d0:	a8c00015 	stw	r3,0(r21)
 400c8d4:	003f7106 	br	400c69c <__sfvwrite_r+0x284>
 400c8d8:	00bfffc4 	movi	r2,-1
 400c8dc:	003f5e06 	br	400c658 <__sfvwrite_r+0x240>

0400c8e0 <_fwalk>:
 400c8e0:	defffa04 	addi	sp,sp,-24
 400c8e4:	dd000415 	stw	r20,16(sp)
 400c8e8:	dcc00315 	stw	r19,12(sp)
 400c8ec:	dc800215 	stw	r18,8(sp)
 400c8f0:	dfc00515 	stw	ra,20(sp)
 400c8f4:	dc400115 	stw	r17,4(sp)
 400c8f8:	dc000015 	stw	r16,0(sp)
 400c8fc:	2827883a 	mov	r19,r5
 400c900:	2480b804 	addi	r18,r4,736
 400c904:	0029883a 	mov	r20,zero
 400c908:	94400117 	ldw	r17,4(r18)
 400c90c:	94000217 	ldw	r16,8(r18)
 400c910:	8c7fffc4 	addi	r17,r17,-1
 400c914:	88000d16 	blt	r17,zero,400c94c <_fwalk+0x6c>
 400c918:	8080030b 	ldhu	r2,12(r16)
 400c91c:	8c7fffc4 	addi	r17,r17,-1
 400c920:	108000b0 	cmpltui	r2,r2,2
 400c924:	1000061e 	bne	r2,zero,400c940 <_fwalk+0x60>
 400c928:	8080038f 	ldh	r2,14(r16)
 400c92c:	8009883a 	mov	r4,r16
 400c930:	10bfffe0 	cmpeqi	r2,r2,-1
 400c934:	1000021e 	bne	r2,zero,400c940 <_fwalk+0x60>
 400c938:	983ee83a 	callr	r19
 400c93c:	a0a8b03a 	or	r20,r20,r2
 400c940:	88bfffd8 	cmpnei	r2,r17,-1
 400c944:	84001a04 	addi	r16,r16,104
 400c948:	103ff31e 	bne	r2,zero,400c918 <_fwalk+0x38>
 400c94c:	94800017 	ldw	r18,0(r18)
 400c950:	903fed1e 	bne	r18,zero,400c908 <_fwalk+0x28>
 400c954:	a005883a 	mov	r2,r20
 400c958:	dfc00517 	ldw	ra,20(sp)
 400c95c:	dd000417 	ldw	r20,16(sp)
 400c960:	dcc00317 	ldw	r19,12(sp)
 400c964:	dc800217 	ldw	r18,8(sp)
 400c968:	dc400117 	ldw	r17,4(sp)
 400c96c:	dc000017 	ldw	r16,0(sp)
 400c970:	dec00604 	addi	sp,sp,24
 400c974:	f800283a 	ret

0400c978 <_fwalk_reent>:
 400c978:	defff904 	addi	sp,sp,-28
 400c97c:	dd400515 	stw	r21,20(sp)
 400c980:	dd000415 	stw	r20,16(sp)
 400c984:	dcc00315 	stw	r19,12(sp)
 400c988:	dc800215 	stw	r18,8(sp)
 400c98c:	dfc00615 	stw	ra,24(sp)
 400c990:	dc400115 	stw	r17,4(sp)
 400c994:	dc000015 	stw	r16,0(sp)
 400c998:	202b883a 	mov	r21,r4
 400c99c:	2827883a 	mov	r19,r5
 400c9a0:	2480b804 	addi	r18,r4,736
 400c9a4:	0029883a 	mov	r20,zero
 400c9a8:	94400117 	ldw	r17,4(r18)
 400c9ac:	94000217 	ldw	r16,8(r18)
 400c9b0:	8c7fffc4 	addi	r17,r17,-1
 400c9b4:	88000e16 	blt	r17,zero,400c9f0 <_fwalk_reent+0x78>
 400c9b8:	8080030b 	ldhu	r2,12(r16)
 400c9bc:	8c7fffc4 	addi	r17,r17,-1
 400c9c0:	108000b0 	cmpltui	r2,r2,2
 400c9c4:	1000071e 	bne	r2,zero,400c9e4 <_fwalk_reent+0x6c>
 400c9c8:	8080038f 	ldh	r2,14(r16)
 400c9cc:	800b883a 	mov	r5,r16
 400c9d0:	a809883a 	mov	r4,r21
 400c9d4:	10bfffe0 	cmpeqi	r2,r2,-1
 400c9d8:	1000021e 	bne	r2,zero,400c9e4 <_fwalk_reent+0x6c>
 400c9dc:	983ee83a 	callr	r19
 400c9e0:	a0a8b03a 	or	r20,r20,r2
 400c9e4:	88bfffd8 	cmpnei	r2,r17,-1
 400c9e8:	84001a04 	addi	r16,r16,104
 400c9ec:	103ff21e 	bne	r2,zero,400c9b8 <_fwalk_reent+0x40>
 400c9f0:	94800017 	ldw	r18,0(r18)
 400c9f4:	903fec1e 	bne	r18,zero,400c9a8 <_fwalk_reent+0x30>
 400c9f8:	a005883a 	mov	r2,r20
 400c9fc:	dfc00617 	ldw	ra,24(sp)
 400ca00:	dd400517 	ldw	r21,20(sp)
 400ca04:	dd000417 	ldw	r20,16(sp)
 400ca08:	dcc00317 	ldw	r19,12(sp)
 400ca0c:	dc800217 	ldw	r18,8(sp)
 400ca10:	dc400117 	ldw	r17,4(sp)
 400ca14:	dc000017 	ldw	r16,0(sp)
 400ca18:	dec00704 	addi	sp,sp,28
 400ca1c:	f800283a 	ret

0400ca20 <__smakebuf_r>:
 400ca20:	2880030b 	ldhu	r2,12(r5)
 400ca24:	deffe804 	addi	sp,sp,-96
 400ca28:	dc001215 	stw	r16,72(sp)
 400ca2c:	dfc01715 	stw	ra,92(sp)
 400ca30:	dd001615 	stw	r20,88(sp)
 400ca34:	dcc01515 	stw	r19,84(sp)
 400ca38:	dc801415 	stw	r18,80(sp)
 400ca3c:	dc401315 	stw	r17,76(sp)
 400ca40:	10c0008c 	andi	r3,r2,2
 400ca44:	2821883a 	mov	r16,r5
 400ca48:	18000d26 	beq	r3,zero,400ca80 <__smakebuf_r+0x60>
 400ca4c:	288010c4 	addi	r2,r5,67
 400ca50:	28800015 	stw	r2,0(r5)
 400ca54:	28800415 	stw	r2,16(r5)
 400ca58:	00800044 	movi	r2,1
 400ca5c:	28800515 	stw	r2,20(r5)
 400ca60:	dfc01717 	ldw	ra,92(sp)
 400ca64:	dd001617 	ldw	r20,88(sp)
 400ca68:	dcc01517 	ldw	r19,84(sp)
 400ca6c:	dc801417 	ldw	r18,80(sp)
 400ca70:	dc401317 	ldw	r17,76(sp)
 400ca74:	dc001217 	ldw	r16,72(sp)
 400ca78:	dec01804 	addi	sp,sp,96
 400ca7c:	f800283a 	ret
 400ca80:	2940038f 	ldh	r5,14(r5)
 400ca84:	2023883a 	mov	r17,r4
 400ca88:	28002816 	blt	r5,zero,400cb2c <__smakebuf_r+0x10c>
 400ca8c:	d80d883a 	mov	r6,sp
 400ca90:	400d2580 	call	400d258 <_fstat_r>
 400ca94:	10002416 	blt	r2,zero,400cb28 <__smakebuf_r+0x108>
 400ca98:	d8800117 	ldw	r2,4(sp)
 400ca9c:	10bc000c 	andi	r2,r2,61440
 400caa0:	10880018 	cmpnei	r2,r2,8192
 400caa4:	1000461e 	bne	r2,zero,400cbc0 <__smakebuf_r+0x1a0>
 400caa8:	8140038f 	ldh	r5,14(r16)
 400caac:	8809883a 	mov	r4,r17
 400cab0:	400d2b80 	call	400d2b8 <_isatty_r>
 400cab4:	10003e26 	beq	r2,zero,400cbb0 <__smakebuf_r+0x190>
 400cab8:	8080030b 	ldhu	r2,12(r16)
 400cabc:	80c010c4 	addi	r3,r16,67
 400cac0:	80c00015 	stw	r3,0(r16)
 400cac4:	10800054 	ori	r2,r2,1
 400cac8:	8080030d 	sth	r2,12(r16)
 400cacc:	00800044 	movi	r2,1
 400cad0:	80c00415 	stw	r3,16(r16)
 400cad4:	80800515 	stw	r2,20(r16)
 400cad8:	04c00044 	movi	r19,1
 400cadc:	05010004 	movi	r20,1024
 400cae0:	04820004 	movi	r18,2048
 400cae4:	a00b883a 	mov	r5,r20
 400cae8:	8809883a 	mov	r4,r17
 400caec:	40060ac0 	call	40060ac <_malloc_r>
 400caf0:	10001726 	beq	r2,zero,400cb50 <__smakebuf_r+0x130>
 400caf4:	80c0030b 	ldhu	r3,12(r16)
 400caf8:	01010074 	movhi	r4,1025
 400cafc:	212f9d04 	addi	r4,r4,-16780
 400cb00:	89000f15 	stw	r4,60(r17)
 400cb04:	18c02014 	ori	r3,r3,128
 400cb08:	80c0030d 	sth	r3,12(r16)
 400cb0c:	80800015 	stw	r2,0(r16)
 400cb10:	80800415 	stw	r2,16(r16)
 400cb14:	85000515 	stw	r20,20(r16)
 400cb18:	98001d1e 	bne	r19,zero,400cb90 <__smakebuf_r+0x170>
 400cb1c:	90c6b03a 	or	r3,r18,r3
 400cb20:	80c0030d 	sth	r3,12(r16)
 400cb24:	003fce06 	br	400ca60 <__smakebuf_r+0x40>
 400cb28:	8080030b 	ldhu	r2,12(r16)
 400cb2c:	1080200c 	andi	r2,r2,128
 400cb30:	0027883a 	mov	r19,zero
 400cb34:	10001326 	beq	r2,zero,400cb84 <__smakebuf_r+0x164>
 400cb38:	05001004 	movi	r20,64
 400cb3c:	a00b883a 	mov	r5,r20
 400cb40:	8809883a 	mov	r4,r17
 400cb44:	0025883a 	mov	r18,zero
 400cb48:	40060ac0 	call	40060ac <_malloc_r>
 400cb4c:	103fe91e 	bne	r2,zero,400caf4 <__smakebuf_r+0xd4>
 400cb50:	8080030b 	ldhu	r2,12(r16)
 400cb54:	10c0800c 	andi	r3,r2,512
 400cb58:	183fc11e 	bne	r3,zero,400ca60 <__smakebuf_r+0x40>
 400cb5c:	00ffff04 	movi	r3,-4
 400cb60:	10c4703a 	and	r2,r2,r3
 400cb64:	10800094 	ori	r2,r2,2
 400cb68:	80c010c4 	addi	r3,r16,67
 400cb6c:	8080030d 	sth	r2,12(r16)
 400cb70:	00800044 	movi	r2,1
 400cb74:	80c00015 	stw	r3,0(r16)
 400cb78:	80c00415 	stw	r3,16(r16)
 400cb7c:	80800515 	stw	r2,20(r16)
 400cb80:	003fb706 	br	400ca60 <__smakebuf_r+0x40>
 400cb84:	05010004 	movi	r20,1024
 400cb88:	0025883a 	mov	r18,zero
 400cb8c:	003fd506 	br	400cae4 <__smakebuf_r+0xc4>
 400cb90:	8140038f 	ldh	r5,14(r16)
 400cb94:	8809883a 	mov	r4,r17
 400cb98:	400d2b80 	call	400d2b8 <_isatty_r>
 400cb9c:	80c0030b 	ldhu	r3,12(r16)
 400cba0:	103fde26 	beq	r2,zero,400cb1c <__smakebuf_r+0xfc>
 400cba4:	18ffff0c 	andi	r3,r3,65532
 400cba8:	18c00054 	ori	r3,r3,1
 400cbac:	003fdb06 	br	400cb1c <__smakebuf_r+0xfc>
 400cbb0:	04c00044 	movi	r19,1
 400cbb4:	05010004 	movi	r20,1024
 400cbb8:	04820004 	movi	r18,2048
 400cbbc:	003fc906 	br	400cae4 <__smakebuf_r+0xc4>
 400cbc0:	0027883a 	mov	r19,zero
 400cbc4:	05010004 	movi	r20,1024
 400cbc8:	04820004 	movi	r18,2048
 400cbcc:	003fc506 	br	400cae4 <__smakebuf_r+0xc4>

0400cbd0 <__swhatbuf_r>:
 400cbd0:	deffea04 	addi	sp,sp,-88
 400cbd4:	dc001215 	stw	r16,72(sp)
 400cbd8:	2821883a 	mov	r16,r5
 400cbdc:	2940038f 	ldh	r5,14(r5)
 400cbe0:	dc801415 	stw	r18,80(sp)
 400cbe4:	dc401315 	stw	r17,76(sp)
 400cbe8:	dfc01515 	stw	ra,84(sp)
 400cbec:	3023883a 	mov	r17,r6
 400cbf0:	3825883a 	mov	r18,r7
 400cbf4:	28001016 	blt	r5,zero,400cc38 <__swhatbuf_r+0x68>
 400cbf8:	d80d883a 	mov	r6,sp
 400cbfc:	400d2580 	call	400d258 <_fstat_r>
 400cc00:	10000d16 	blt	r2,zero,400cc38 <__swhatbuf_r+0x68>
 400cc04:	d8c00117 	ldw	r3,4(sp)
 400cc08:	00820004 	movi	r2,2048
 400cc0c:	18fc000c 	andi	r3,r3,61440
 400cc10:	18c80020 	cmpeqi	r3,r3,8192
 400cc14:	90c00015 	stw	r3,0(r18)
 400cc18:	00c10004 	movi	r3,1024
 400cc1c:	88c00015 	stw	r3,0(r17)
 400cc20:	dfc01517 	ldw	ra,84(sp)
 400cc24:	dc801417 	ldw	r18,80(sp)
 400cc28:	dc401317 	ldw	r17,76(sp)
 400cc2c:	dc001217 	ldw	r16,72(sp)
 400cc30:	dec01604 	addi	sp,sp,88
 400cc34:	f800283a 	ret
 400cc38:	8080030b 	ldhu	r2,12(r16)
 400cc3c:	90000015 	stw	zero,0(r18)
 400cc40:	1080200c 	andi	r2,r2,128
 400cc44:	10000426 	beq	r2,zero,400cc58 <__swhatbuf_r+0x88>
 400cc48:	00801004 	movi	r2,64
 400cc4c:	88800015 	stw	r2,0(r17)
 400cc50:	0005883a 	mov	r2,zero
 400cc54:	003ff206 	br	400cc20 <__swhatbuf_r+0x50>
 400cc58:	00810004 	movi	r2,1024
 400cc5c:	88800015 	stw	r2,0(r17)
 400cc60:	0005883a 	mov	r2,zero
 400cc64:	003fee06 	br	400cc20 <__swhatbuf_r+0x50>

0400cc68 <__sread>:
 400cc68:	defffe04 	addi	sp,sp,-8
 400cc6c:	dc000015 	stw	r16,0(sp)
 400cc70:	2821883a 	mov	r16,r5
 400cc74:	2940038f 	ldh	r5,14(r5)
 400cc78:	dfc00115 	stw	ra,4(sp)
 400cc7c:	400d3740 	call	400d374 <_read_r>
 400cc80:	10000716 	blt	r2,zero,400cca0 <__sread+0x38>
 400cc84:	80c01417 	ldw	r3,80(r16)
 400cc88:	1887883a 	add	r3,r3,r2
 400cc8c:	80c01415 	stw	r3,80(r16)
 400cc90:	dfc00117 	ldw	ra,4(sp)
 400cc94:	dc000017 	ldw	r16,0(sp)
 400cc98:	dec00204 	addi	sp,sp,8
 400cc9c:	f800283a 	ret
 400cca0:	80c0030b 	ldhu	r3,12(r16)
 400cca4:	18fbffcc 	andi	r3,r3,61439
 400cca8:	80c0030d 	sth	r3,12(r16)
 400ccac:	dfc00117 	ldw	ra,4(sp)
 400ccb0:	dc000017 	ldw	r16,0(sp)
 400ccb4:	dec00204 	addi	sp,sp,8
 400ccb8:	f800283a 	ret

0400ccbc <__seofread>:
 400ccbc:	0005883a 	mov	r2,zero
 400ccc0:	f800283a 	ret

0400ccc4 <__swrite>:
 400ccc4:	2880030b 	ldhu	r2,12(r5)
 400ccc8:	defffb04 	addi	sp,sp,-20
 400cccc:	dcc00315 	stw	r19,12(sp)
 400ccd0:	dc800215 	stw	r18,8(sp)
 400ccd4:	dc400115 	stw	r17,4(sp)
 400ccd8:	dc000015 	stw	r16,0(sp)
 400ccdc:	dfc00415 	stw	ra,16(sp)
 400cce0:	10c0400c 	andi	r3,r2,256
 400cce4:	2821883a 	mov	r16,r5
 400cce8:	2023883a 	mov	r17,r4
 400ccec:	2940038f 	ldh	r5,14(r5)
 400ccf0:	3025883a 	mov	r18,r6
 400ccf4:	3827883a 	mov	r19,r7
 400ccf8:	18000c1e 	bne	r3,zero,400cd2c <__swrite+0x68>
 400ccfc:	10bbffcc 	andi	r2,r2,61439
 400cd00:	980f883a 	mov	r7,r19
 400cd04:	900d883a 	mov	r6,r18
 400cd08:	8809883a 	mov	r4,r17
 400cd0c:	8080030d 	sth	r2,12(r16)
 400cd10:	dfc00417 	ldw	ra,16(sp)
 400cd14:	dcc00317 	ldw	r19,12(sp)
 400cd18:	dc800217 	ldw	r18,8(sp)
 400cd1c:	dc400117 	ldw	r17,4(sp)
 400cd20:	dc000017 	ldw	r16,0(sp)
 400cd24:	dec00504 	addi	sp,sp,20
 400cd28:	400cffc1 	jmpi	400cffc <_write_r>
 400cd2c:	01c00084 	movi	r7,2
 400cd30:	000d883a 	mov	r6,zero
 400cd34:	400d3100 	call	400d310 <_lseek_r>
 400cd38:	8080030b 	ldhu	r2,12(r16)
 400cd3c:	8140038f 	ldh	r5,14(r16)
 400cd40:	003fee06 	br	400ccfc <__swrite+0x38>

0400cd44 <__sseek>:
 400cd44:	defffe04 	addi	sp,sp,-8
 400cd48:	dc000015 	stw	r16,0(sp)
 400cd4c:	2821883a 	mov	r16,r5
 400cd50:	2940038f 	ldh	r5,14(r5)
 400cd54:	dfc00115 	stw	ra,4(sp)
 400cd58:	400d3100 	call	400d310 <_lseek_r>
 400cd5c:	10ffffd8 	cmpnei	r3,r2,-1
 400cd60:	18000826 	beq	r3,zero,400cd84 <__sseek+0x40>
 400cd64:	80c0030b 	ldhu	r3,12(r16)
 400cd68:	80801415 	stw	r2,80(r16)
 400cd6c:	18c40014 	ori	r3,r3,4096
 400cd70:	80c0030d 	sth	r3,12(r16)
 400cd74:	dfc00117 	ldw	ra,4(sp)
 400cd78:	dc000017 	ldw	r16,0(sp)
 400cd7c:	dec00204 	addi	sp,sp,8
 400cd80:	f800283a 	ret
 400cd84:	80c0030b 	ldhu	r3,12(r16)
 400cd88:	18fbffcc 	andi	r3,r3,61439
 400cd8c:	80c0030d 	sth	r3,12(r16)
 400cd90:	dfc00117 	ldw	ra,4(sp)
 400cd94:	dc000017 	ldw	r16,0(sp)
 400cd98:	dec00204 	addi	sp,sp,8
 400cd9c:	f800283a 	ret

0400cda0 <__sclose>:
 400cda0:	2940038f 	ldh	r5,14(r5)
 400cda4:	400d0601 	jmpi	400d060 <_close_r>

0400cda8 <__swbuf_r>:
 400cda8:	defffb04 	addi	sp,sp,-20
 400cdac:	dcc00315 	stw	r19,12(sp)
 400cdb0:	dc400115 	stw	r17,4(sp)
 400cdb4:	dc000015 	stw	r16,0(sp)
 400cdb8:	dfc00415 	stw	ra,16(sp)
 400cdbc:	dc800215 	stw	r18,8(sp)
 400cdc0:	2027883a 	mov	r19,r4
 400cdc4:	2823883a 	mov	r17,r5
 400cdc8:	3021883a 	mov	r16,r6
 400cdcc:	20000226 	beq	r4,zero,400cdd8 <__swbuf_r+0x30>
 400cdd0:	20800e17 	ldw	r2,56(r4)
 400cdd4:	10003e26 	beq	r2,zero,400ced0 <__swbuf_r+0x128>
 400cdd8:	80800617 	ldw	r2,24(r16)
 400cddc:	80c0030b 	ldhu	r3,12(r16)
 400cde0:	80800215 	stw	r2,8(r16)
 400cde4:	1880020c 	andi	r2,r3,8
 400cde8:	10001f26 	beq	r2,zero,400ce68 <__swbuf_r+0xc0>
 400cdec:	80800417 	ldw	r2,16(r16)
 400cdf0:	10001d26 	beq	r2,zero,400ce68 <__swbuf_r+0xc0>
 400cdf4:	1948000c 	andi	r5,r3,8192
 400cdf8:	8c803fcc 	andi	r18,r17,255
 400cdfc:	28002326 	beq	r5,zero,400ce8c <__swbuf_r+0xe4>
 400ce00:	80c00017 	ldw	r3,0(r16)
 400ce04:	81000517 	ldw	r4,20(r16)
 400ce08:	1885c83a 	sub	r2,r3,r2
 400ce0c:	1100290e 	bge	r2,r4,400ceb4 <__swbuf_r+0x10c>
 400ce10:	10800044 	addi	r2,r2,1
 400ce14:	81400217 	ldw	r5,8(r16)
 400ce18:	19000044 	addi	r4,r3,1
 400ce1c:	81000015 	stw	r4,0(r16)
 400ce20:	297fffc4 	addi	r5,r5,-1
 400ce24:	81400215 	stw	r5,8(r16)
 400ce28:	1c400005 	stb	r17,0(r3)
 400ce2c:	80c00517 	ldw	r3,20(r16)
 400ce30:	18802926 	beq	r3,r2,400ced8 <__swbuf_r+0x130>
 400ce34:	8080030b 	ldhu	r2,12(r16)
 400ce38:	1080004c 	andi	r2,r2,1
 400ce3c:	10000226 	beq	r2,zero,400ce48 <__swbuf_r+0xa0>
 400ce40:	90800298 	cmpnei	r2,r18,10
 400ce44:	10002426 	beq	r2,zero,400ced8 <__swbuf_r+0x130>
 400ce48:	9005883a 	mov	r2,r18
 400ce4c:	dfc00417 	ldw	ra,16(sp)
 400ce50:	dcc00317 	ldw	r19,12(sp)
 400ce54:	dc800217 	ldw	r18,8(sp)
 400ce58:	dc400117 	ldw	r17,4(sp)
 400ce5c:	dc000017 	ldw	r16,0(sp)
 400ce60:	dec00504 	addi	sp,sp,20
 400ce64:	f800283a 	ret
 400ce68:	800b883a 	mov	r5,r16
 400ce6c:	9809883a 	mov	r4,r19
 400ce70:	400b9fc0 	call	400b9fc <__swsetup_r>
 400ce74:	10001c1e 	bne	r2,zero,400cee8 <__swbuf_r+0x140>
 400ce78:	80c0030b 	ldhu	r3,12(r16)
 400ce7c:	80800417 	ldw	r2,16(r16)
 400ce80:	8c803fcc 	andi	r18,r17,255
 400ce84:	1948000c 	andi	r5,r3,8192
 400ce88:	283fdd1e 	bne	r5,zero,400ce00 <__swbuf_r+0x58>
 400ce8c:	81001917 	ldw	r4,100(r16)
 400ce90:	18c80014 	ori	r3,r3,8192
 400ce94:	0177ffc4 	movi	r5,-8193
 400ce98:	2148703a 	and	r4,r4,r5
 400ce9c:	80c0030d 	sth	r3,12(r16)
 400cea0:	80c00017 	ldw	r3,0(r16)
 400cea4:	81001915 	stw	r4,100(r16)
 400cea8:	81000517 	ldw	r4,20(r16)
 400ceac:	1885c83a 	sub	r2,r3,r2
 400ceb0:	113fd716 	blt	r2,r4,400ce10 <__swbuf_r+0x68>
 400ceb4:	800b883a 	mov	r5,r16
 400ceb8:	9809883a 	mov	r4,r19
 400cebc:	400bd880 	call	400bd88 <_fflush_r>
 400cec0:	1000091e 	bne	r2,zero,400cee8 <__swbuf_r+0x140>
 400cec4:	80c00017 	ldw	r3,0(r16)
 400cec8:	00800044 	movi	r2,1
 400cecc:	003fd106 	br	400ce14 <__swbuf_r+0x6c>
 400ced0:	400c1d00 	call	400c1d0 <__sinit>
 400ced4:	003fc006 	br	400cdd8 <__swbuf_r+0x30>
 400ced8:	800b883a 	mov	r5,r16
 400cedc:	9809883a 	mov	r4,r19
 400cee0:	400bd880 	call	400bd88 <_fflush_r>
 400cee4:	103fd826 	beq	r2,zero,400ce48 <__swbuf_r+0xa0>
 400cee8:	04bfffc4 	movi	r18,-1
 400ceec:	003fd606 	br	400ce48 <__swbuf_r+0xa0>

0400cef0 <__swbuf>:
 400cef0:	00c10074 	movhi	r3,1025
 400cef4:	2005883a 	mov	r2,r4
 400cef8:	190cad17 	ldw	r4,12980(r3)
 400cefc:	280d883a 	mov	r6,r5
 400cf00:	100b883a 	mov	r5,r2
 400cf04:	400cda81 	jmpi	400cda8 <__swbuf_r>

0400cf08 <_wcrtomb_r>:
 400cf08:	defffa04 	addi	sp,sp,-24
 400cf0c:	dc400415 	stw	r17,16(sp)
 400cf10:	dc000315 	stw	r16,12(sp)
 400cf14:	00810074 	movhi	r2,1025
 400cf18:	dfc00515 	stw	ra,20(sp)
 400cf1c:	108c1d17 	ldw	r2,12404(r2)
 400cf20:	2023883a 	mov	r17,r4
 400cf24:	3821883a 	mov	r16,r7
 400cf28:	28000826 	beq	r5,zero,400cf4c <_wcrtomb_r+0x44>
 400cf2c:	103ee83a 	callr	r2
 400cf30:	10ffffd8 	cmpnei	r3,r2,-1
 400cf34:	18000a26 	beq	r3,zero,400cf60 <_wcrtomb_r+0x58>
 400cf38:	dfc00517 	ldw	ra,20(sp)
 400cf3c:	dc400417 	ldw	r17,16(sp)
 400cf40:	dc000317 	ldw	r16,12(sp)
 400cf44:	dec00604 	addi	sp,sp,24
 400cf48:	f800283a 	ret
 400cf4c:	000d883a 	mov	r6,zero
 400cf50:	d9400084 	addi	r5,sp,2
 400cf54:	103ee83a 	callr	r2
 400cf58:	10ffffd8 	cmpnei	r3,r2,-1
 400cf5c:	183ff61e 	bne	r3,zero,400cf38 <_wcrtomb_r+0x30>
 400cf60:	00802284 	movi	r2,138
 400cf64:	80000015 	stw	zero,0(r16)
 400cf68:	88800015 	stw	r2,0(r17)
 400cf6c:	00bfffc4 	movi	r2,-1
 400cf70:	003ff106 	br	400cf38 <_wcrtomb_r+0x30>

0400cf74 <wcrtomb>:
 400cf74:	defffa04 	addi	sp,sp,-24
 400cf78:	00c10074 	movhi	r3,1025
 400cf7c:	dc400415 	stw	r17,16(sp)
 400cf80:	dc000315 	stw	r16,12(sp)
 400cf84:	1c4cad17 	ldw	r17,12980(r3)
 400cf88:	dfc00515 	stw	ra,20(sp)
 400cf8c:	00c10074 	movhi	r3,1025
 400cf90:	18cc1d17 	ldw	r3,12404(r3)
 400cf94:	3021883a 	mov	r16,r6
 400cf98:	20000c26 	beq	r4,zero,400cfcc <wcrtomb+0x58>
 400cf9c:	280d883a 	mov	r6,r5
 400cfa0:	800f883a 	mov	r7,r16
 400cfa4:	200b883a 	mov	r5,r4
 400cfa8:	8809883a 	mov	r4,r17
 400cfac:	183ee83a 	callr	r3
 400cfb0:	10ffffd8 	cmpnei	r3,r2,-1
 400cfb4:	18000c26 	beq	r3,zero,400cfe8 <wcrtomb+0x74>
 400cfb8:	dfc00517 	ldw	ra,20(sp)
 400cfbc:	dc400417 	ldw	r17,16(sp)
 400cfc0:	dc000317 	ldw	r16,12(sp)
 400cfc4:	dec00604 	addi	sp,sp,24
 400cfc8:	f800283a 	ret
 400cfcc:	300f883a 	mov	r7,r6
 400cfd0:	d9400084 	addi	r5,sp,2
 400cfd4:	000d883a 	mov	r6,zero
 400cfd8:	8809883a 	mov	r4,r17
 400cfdc:	183ee83a 	callr	r3
 400cfe0:	10ffffd8 	cmpnei	r3,r2,-1
 400cfe4:	183ff41e 	bne	r3,zero,400cfb8 <wcrtomb+0x44>
 400cfe8:	00802284 	movi	r2,138
 400cfec:	80000015 	stw	zero,0(r16)
 400cff0:	88800015 	stw	r2,0(r17)
 400cff4:	00bfffc4 	movi	r2,-1
 400cff8:	003fef06 	br	400cfb8 <wcrtomb+0x44>

0400cffc <_write_r>:
 400cffc:	2807883a 	mov	r3,r5
 400d000:	defffe04 	addi	sp,sp,-8
 400d004:	dc000015 	stw	r16,0(sp)
 400d008:	300b883a 	mov	r5,r6
 400d00c:	00810074 	movhi	r2,1025
 400d010:	380d883a 	mov	r6,r7
 400d014:	2021883a 	mov	r16,r4
 400d018:	1809883a 	mov	r4,r3
 400d01c:	dfc00115 	stw	ra,4(sp)
 400d020:	100fa715 	stw	zero,16028(r2)
 400d024:	401139c0 	call	401139c <write>
 400d028:	10ffffd8 	cmpnei	r3,r2,-1
 400d02c:	18000426 	beq	r3,zero,400d040 <_write_r+0x44>
 400d030:	dfc00117 	ldw	ra,4(sp)
 400d034:	dc000017 	ldw	r16,0(sp)
 400d038:	dec00204 	addi	sp,sp,8
 400d03c:	f800283a 	ret
 400d040:	00c10074 	movhi	r3,1025
 400d044:	18cfa717 	ldw	r3,16028(r3)
 400d048:	183ff926 	beq	r3,zero,400d030 <_write_r+0x34>
 400d04c:	80c00015 	stw	r3,0(r16)
 400d050:	dfc00117 	ldw	ra,4(sp)
 400d054:	dc000017 	ldw	r16,0(sp)
 400d058:	dec00204 	addi	sp,sp,8
 400d05c:	f800283a 	ret

0400d060 <_close_r>:
 400d060:	defffe04 	addi	sp,sp,-8
 400d064:	dc000015 	stw	r16,0(sp)
 400d068:	00810074 	movhi	r2,1025
 400d06c:	2021883a 	mov	r16,r4
 400d070:	2809883a 	mov	r4,r5
 400d074:	dfc00115 	stw	ra,4(sp)
 400d078:	100fa715 	stw	zero,16028(r2)
 400d07c:	40106e40 	call	40106e4 <close>
 400d080:	10ffffd8 	cmpnei	r3,r2,-1
 400d084:	18000426 	beq	r3,zero,400d098 <_close_r+0x38>
 400d088:	dfc00117 	ldw	ra,4(sp)
 400d08c:	dc000017 	ldw	r16,0(sp)
 400d090:	dec00204 	addi	sp,sp,8
 400d094:	f800283a 	ret
 400d098:	00c10074 	movhi	r3,1025
 400d09c:	18cfa717 	ldw	r3,16028(r3)
 400d0a0:	183ff926 	beq	r3,zero,400d088 <_close_r+0x28>
 400d0a4:	80c00015 	stw	r3,0(r16)
 400d0a8:	dfc00117 	ldw	ra,4(sp)
 400d0ac:	dc000017 	ldw	r16,0(sp)
 400d0b0:	dec00204 	addi	sp,sp,8
 400d0b4:	f800283a 	ret

0400d0b8 <_fclose_r.part.0>:
 400d0b8:	defffc04 	addi	sp,sp,-16
 400d0bc:	dc800215 	stw	r18,8(sp)
 400d0c0:	dc400115 	stw	r17,4(sp)
 400d0c4:	dc000015 	stw	r16,0(sp)
 400d0c8:	dfc00315 	stw	ra,12(sp)
 400d0cc:	2821883a 	mov	r16,r5
 400d0d0:	2023883a 	mov	r17,r4
 400d0d4:	400bb600 	call	400bb60 <__sflush_r>
 400d0d8:	80c00b17 	ldw	r3,44(r16)
 400d0dc:	1025883a 	mov	r18,r2
 400d0e0:	18000426 	beq	r3,zero,400d0f4 <_fclose_r.part.0+0x3c>
 400d0e4:	81400717 	ldw	r5,28(r16)
 400d0e8:	8809883a 	mov	r4,r17
 400d0ec:	183ee83a 	callr	r3
 400d0f0:	10001916 	blt	r2,zero,400d158 <_fclose_r.part.0+0xa0>
 400d0f4:	8080030b 	ldhu	r2,12(r16)
 400d0f8:	1080200c 	andi	r2,r2,128
 400d0fc:	10001a1e 	bne	r2,zero,400d168 <_fclose_r.part.0+0xb0>
 400d100:	81400c17 	ldw	r5,48(r16)
 400d104:	28000526 	beq	r5,zero,400d11c <_fclose_r.part.0+0x64>
 400d108:	80801004 	addi	r2,r16,64
 400d10c:	28800226 	beq	r5,r2,400d118 <_fclose_r.part.0+0x60>
 400d110:	8809883a 	mov	r4,r17
 400d114:	40092b00 	call	40092b0 <_free_r>
 400d118:	80000c15 	stw	zero,48(r16)
 400d11c:	81401117 	ldw	r5,68(r16)
 400d120:	28000326 	beq	r5,zero,400d130 <_fclose_r.part.0+0x78>
 400d124:	8809883a 	mov	r4,r17
 400d128:	40092b00 	call	40092b0 <_free_r>
 400d12c:	80001115 	stw	zero,68(r16)
 400d130:	400c1e00 	call	400c1e0 <__sfp_lock_acquire>
 400d134:	8000030d 	sth	zero,12(r16)
 400d138:	400c1e40 	call	400c1e4 <__sfp_lock_release>
 400d13c:	9005883a 	mov	r2,r18
 400d140:	dfc00317 	ldw	ra,12(sp)
 400d144:	dc800217 	ldw	r18,8(sp)
 400d148:	dc400117 	ldw	r17,4(sp)
 400d14c:	dc000017 	ldw	r16,0(sp)
 400d150:	dec00404 	addi	sp,sp,16
 400d154:	f800283a 	ret
 400d158:	8080030b 	ldhu	r2,12(r16)
 400d15c:	04bfffc4 	movi	r18,-1
 400d160:	1080200c 	andi	r2,r2,128
 400d164:	103fe626 	beq	r2,zero,400d100 <_fclose_r.part.0+0x48>
 400d168:	81400417 	ldw	r5,16(r16)
 400d16c:	8809883a 	mov	r4,r17
 400d170:	40092b00 	call	40092b0 <_free_r>
 400d174:	003fe206 	br	400d100 <_fclose_r.part.0+0x48>

0400d178 <_fclose_r>:
 400d178:	28001926 	beq	r5,zero,400d1e0 <_fclose_r+0x68>
 400d17c:	defffd04 	addi	sp,sp,-12
 400d180:	dc000115 	stw	r16,4(sp)
 400d184:	dfc00215 	stw	ra,8(sp)
 400d188:	2021883a 	mov	r16,r4
 400d18c:	20000226 	beq	r4,zero,400d198 <_fclose_r+0x20>
 400d190:	20800e17 	ldw	r2,56(r4)
 400d194:	10000c26 	beq	r2,zero,400d1c8 <_fclose_r+0x50>
 400d198:	2880030f 	ldh	r2,12(r5)
 400d19c:	1000051e 	bne	r2,zero,400d1b4 <_fclose_r+0x3c>
 400d1a0:	0005883a 	mov	r2,zero
 400d1a4:	dfc00217 	ldw	ra,8(sp)
 400d1a8:	dc000117 	ldw	r16,4(sp)
 400d1ac:	dec00304 	addi	sp,sp,12
 400d1b0:	f800283a 	ret
 400d1b4:	8009883a 	mov	r4,r16
 400d1b8:	dfc00217 	ldw	ra,8(sp)
 400d1bc:	dc000117 	ldw	r16,4(sp)
 400d1c0:	dec00304 	addi	sp,sp,12
 400d1c4:	400d0b81 	jmpi	400d0b8 <_fclose_r.part.0>
 400d1c8:	d9400015 	stw	r5,0(sp)
 400d1cc:	400c1d00 	call	400c1d0 <__sinit>
 400d1d0:	d9400017 	ldw	r5,0(sp)
 400d1d4:	2880030f 	ldh	r2,12(r5)
 400d1d8:	103ff126 	beq	r2,zero,400d1a0 <_fclose_r+0x28>
 400d1dc:	003ff506 	br	400d1b4 <_fclose_r+0x3c>
 400d1e0:	0005883a 	mov	r2,zero
 400d1e4:	f800283a 	ret

0400d1e8 <fclose>:
 400d1e8:	20000826 	beq	r4,zero,400d20c <fclose+0x24>
 400d1ec:	00810074 	movhi	r2,1025
 400d1f0:	200b883a 	mov	r5,r4
 400d1f4:	110cad17 	ldw	r4,12980(r2)
 400d1f8:	20000226 	beq	r4,zero,400d204 <fclose+0x1c>
 400d1fc:	20800e17 	ldw	r2,56(r4)
 400d200:	10000526 	beq	r2,zero,400d218 <fclose+0x30>
 400d204:	2880030f 	ldh	r2,12(r5)
 400d208:	1000021e 	bne	r2,zero,400d214 <fclose+0x2c>
 400d20c:	0005883a 	mov	r2,zero
 400d210:	f800283a 	ret
 400d214:	400d0b81 	jmpi	400d0b8 <_fclose_r.part.0>
 400d218:	defffd04 	addi	sp,sp,-12
 400d21c:	d9400115 	stw	r5,4(sp)
 400d220:	d9000015 	stw	r4,0(sp)
 400d224:	dfc00215 	stw	ra,8(sp)
 400d228:	400c1d00 	call	400c1d0 <__sinit>
 400d22c:	d9400117 	ldw	r5,4(sp)
 400d230:	d9000017 	ldw	r4,0(sp)
 400d234:	2880030f 	ldh	r2,12(r5)
 400d238:	10000326 	beq	r2,zero,400d248 <fclose+0x60>
 400d23c:	dfc00217 	ldw	ra,8(sp)
 400d240:	dec00304 	addi	sp,sp,12
 400d244:	400d0b81 	jmpi	400d0b8 <_fclose_r.part.0>
 400d248:	0005883a 	mov	r2,zero
 400d24c:	dfc00217 	ldw	ra,8(sp)
 400d250:	dec00304 	addi	sp,sp,12
 400d254:	f800283a 	ret

0400d258 <_fstat_r>:
 400d258:	2807883a 	mov	r3,r5
 400d25c:	defffe04 	addi	sp,sp,-8
 400d260:	dc000015 	stw	r16,0(sp)
 400d264:	00810074 	movhi	r2,1025
 400d268:	300b883a 	mov	r5,r6
 400d26c:	2021883a 	mov	r16,r4
 400d270:	1809883a 	mov	r4,r3
 400d274:	dfc00115 	stw	ra,4(sp)
 400d278:	100fa715 	stw	zero,16028(r2)
 400d27c:	40108600 	call	4010860 <fstat>
 400d280:	10ffffd8 	cmpnei	r3,r2,-1
 400d284:	18000426 	beq	r3,zero,400d298 <_fstat_r+0x40>
 400d288:	dfc00117 	ldw	ra,4(sp)
 400d28c:	dc000017 	ldw	r16,0(sp)
 400d290:	dec00204 	addi	sp,sp,8
 400d294:	f800283a 	ret
 400d298:	00c10074 	movhi	r3,1025
 400d29c:	18cfa717 	ldw	r3,16028(r3)
 400d2a0:	183ff926 	beq	r3,zero,400d288 <_fstat_r+0x30>
 400d2a4:	80c00015 	stw	r3,0(r16)
 400d2a8:	dfc00117 	ldw	ra,4(sp)
 400d2ac:	dc000017 	ldw	r16,0(sp)
 400d2b0:	dec00204 	addi	sp,sp,8
 400d2b4:	f800283a 	ret

0400d2b8 <_isatty_r>:
 400d2b8:	defffe04 	addi	sp,sp,-8
 400d2bc:	dc000015 	stw	r16,0(sp)
 400d2c0:	00810074 	movhi	r2,1025
 400d2c4:	2021883a 	mov	r16,r4
 400d2c8:	2809883a 	mov	r4,r5
 400d2cc:	dfc00115 	stw	ra,4(sp)
 400d2d0:	100fa715 	stw	zero,16028(r2)
 400d2d4:	4010c100 	call	4010c10 <isatty>
 400d2d8:	10ffffd8 	cmpnei	r3,r2,-1
 400d2dc:	18000426 	beq	r3,zero,400d2f0 <_isatty_r+0x38>
 400d2e0:	dfc00117 	ldw	ra,4(sp)
 400d2e4:	dc000017 	ldw	r16,0(sp)
 400d2e8:	dec00204 	addi	sp,sp,8
 400d2ec:	f800283a 	ret
 400d2f0:	00c10074 	movhi	r3,1025
 400d2f4:	18cfa717 	ldw	r3,16028(r3)
 400d2f8:	183ff926 	beq	r3,zero,400d2e0 <_isatty_r+0x28>
 400d2fc:	80c00015 	stw	r3,0(r16)
 400d300:	dfc00117 	ldw	ra,4(sp)
 400d304:	dc000017 	ldw	r16,0(sp)
 400d308:	dec00204 	addi	sp,sp,8
 400d30c:	f800283a 	ret

0400d310 <_lseek_r>:
 400d310:	2807883a 	mov	r3,r5
 400d314:	defffe04 	addi	sp,sp,-8
 400d318:	dc000015 	stw	r16,0(sp)
 400d31c:	300b883a 	mov	r5,r6
 400d320:	00810074 	movhi	r2,1025
 400d324:	380d883a 	mov	r6,r7
 400d328:	2021883a 	mov	r16,r4
 400d32c:	1809883a 	mov	r4,r3
 400d330:	dfc00115 	stw	ra,4(sp)
 400d334:	100fa715 	stw	zero,16028(r2)
 400d338:	4010f500 	call	4010f50 <lseek>
 400d33c:	10ffffd8 	cmpnei	r3,r2,-1
 400d340:	18000426 	beq	r3,zero,400d354 <_lseek_r+0x44>
 400d344:	dfc00117 	ldw	ra,4(sp)
 400d348:	dc000017 	ldw	r16,0(sp)
 400d34c:	dec00204 	addi	sp,sp,8
 400d350:	f800283a 	ret
 400d354:	00c10074 	movhi	r3,1025
 400d358:	18cfa717 	ldw	r3,16028(r3)
 400d35c:	183ff926 	beq	r3,zero,400d344 <_lseek_r+0x34>
 400d360:	80c00015 	stw	r3,0(r16)
 400d364:	dfc00117 	ldw	ra,4(sp)
 400d368:	dc000017 	ldw	r16,0(sp)
 400d36c:	dec00204 	addi	sp,sp,8
 400d370:	f800283a 	ret

0400d374 <_read_r>:
 400d374:	2807883a 	mov	r3,r5
 400d378:	defffe04 	addi	sp,sp,-8
 400d37c:	dc000015 	stw	r16,0(sp)
 400d380:	300b883a 	mov	r5,r6
 400d384:	00810074 	movhi	r2,1025
 400d388:	380d883a 	mov	r6,r7
 400d38c:	2021883a 	mov	r16,r4
 400d390:	1809883a 	mov	r4,r3
 400d394:	dfc00115 	stw	ra,4(sp)
 400d398:	100fa715 	stw	zero,16028(r2)
 400d39c:	40111300 	call	4011130 <read>
 400d3a0:	10ffffd8 	cmpnei	r3,r2,-1
 400d3a4:	18000426 	beq	r3,zero,400d3b8 <_read_r+0x44>
 400d3a8:	dfc00117 	ldw	ra,4(sp)
 400d3ac:	dc000017 	ldw	r16,0(sp)
 400d3b0:	dec00204 	addi	sp,sp,8
 400d3b4:	f800283a 	ret
 400d3b8:	00c10074 	movhi	r3,1025
 400d3bc:	18cfa717 	ldw	r3,16028(r3)
 400d3c0:	183ff926 	beq	r3,zero,400d3a8 <_read_r+0x34>
 400d3c4:	80c00015 	stw	r3,0(r16)
 400d3c8:	dfc00117 	ldw	ra,4(sp)
 400d3cc:	dc000017 	ldw	r16,0(sp)
 400d3d0:	dec00204 	addi	sp,sp,8
 400d3d4:	f800283a 	ret

0400d3d8 <__udivdi3>:
 400d3d8:	defff504 	addi	sp,sp,-44
 400d3dc:	dd000515 	stw	r20,20(sp)
 400d3e0:	dc800315 	stw	r18,12(sp)
 400d3e4:	dfc00a15 	stw	ra,40(sp)
 400d3e8:	df000915 	stw	fp,36(sp)
 400d3ec:	ddc00815 	stw	r23,32(sp)
 400d3f0:	dd800715 	stw	r22,28(sp)
 400d3f4:	dd400615 	stw	r21,24(sp)
 400d3f8:	dcc00415 	stw	r19,16(sp)
 400d3fc:	dc400215 	stw	r17,8(sp)
 400d400:	dc000115 	stw	r16,4(sp)
 400d404:	2029883a 	mov	r20,r4
 400d408:	2825883a 	mov	r18,r5
 400d40c:	3800461e 	bne	r7,zero,400d528 <__udivdi3+0x150>
 400d410:	3823883a 	mov	r17,r7
 400d414:	3021883a 	mov	r16,r6
 400d418:	2027883a 	mov	r19,r4
 400d41c:	2980622e 	bgeu	r5,r6,400d5a8 <__udivdi3+0x1d0>
 400d420:	00bfffd4 	movui	r2,65535
 400d424:	282b883a 	mov	r21,r5
 400d428:	1180aa2e 	bgeu	r2,r6,400d6d4 <__udivdi3+0x2fc>
 400d42c:	00804034 	movhi	r2,256
 400d430:	30815a36 	bltu	r6,r2,400d99c <__udivdi3+0x5c4>
 400d434:	3006d63a 	srli	r3,r6,24
 400d438:	04400604 	movi	r17,24
 400d43c:	00810074 	movhi	r2,1025
 400d440:	1885883a 	add	r2,r3,r2
 400d444:	10884403 	ldbu	r2,8464(r2)
 400d448:	00c00804 	movi	r3,32
 400d44c:	1463883a 	add	r17,r2,r17
 400d450:	1c45c83a 	sub	r2,r3,r17
 400d454:	1c400526 	beq	r3,r17,400d46c <__udivdi3+0x94>
 400d458:	9086983a 	sll	r3,r18,r2
 400d45c:	a462d83a 	srl	r17,r20,r17
 400d460:	30a0983a 	sll	r16,r6,r2
 400d464:	a0a6983a 	sll	r19,r20,r2
 400d468:	88eab03a 	or	r21,r17,r3
 400d46c:	802cd43a 	srli	r22,r16,16
 400d470:	a809883a 	mov	r4,r21
 400d474:	853fffcc 	andi	r20,r16,65535
 400d478:	b00b883a 	mov	r5,r22
 400d47c:	4001dc80 	call	4001dc8 <__umodsi3>
 400d480:	a809883a 	mov	r4,r21
 400d484:	b00b883a 	mov	r5,r22
 400d488:	1025883a 	mov	r18,r2
 400d48c:	4001d640 	call	4001d64 <__udivsi3>
 400d490:	a009883a 	mov	r4,r20
 400d494:	100b883a 	mov	r5,r2
 400d498:	102b883a 	mov	r21,r2
 400d49c:	4001e240 	call	4001e24 <__mulsi3>
 400d4a0:	9024943a 	slli	r18,r18,16
 400d4a4:	9808d43a 	srli	r4,r19,16
 400d4a8:	9108b03a 	or	r4,r18,r4
 400d4ac:	2080052e 	bgeu	r4,r2,400d4c4 <__udivdi3+0xec>
 400d4b0:	2409883a 	add	r4,r4,r16
 400d4b4:	a8ffffc4 	addi	r3,r21,-1
 400d4b8:	24000136 	bltu	r4,r16,400d4c0 <__udivdi3+0xe8>
 400d4bc:	20814836 	bltu	r4,r2,400d9e0 <__udivdi3+0x608>
 400d4c0:	182b883a 	mov	r21,r3
 400d4c4:	20a3c83a 	sub	r17,r4,r2
 400d4c8:	8809883a 	mov	r4,r17
 400d4cc:	b00b883a 	mov	r5,r22
 400d4d0:	4001dc80 	call	4001dc8 <__umodsi3>
 400d4d4:	8809883a 	mov	r4,r17
 400d4d8:	1023883a 	mov	r17,r2
 400d4dc:	b00b883a 	mov	r5,r22
 400d4e0:	8822943a 	slli	r17,r17,16
 400d4e4:	4001d640 	call	4001d64 <__udivsi3>
 400d4e8:	100b883a 	mov	r5,r2
 400d4ec:	a009883a 	mov	r4,r20
 400d4f0:	9cffffcc 	andi	r19,r19,65535
 400d4f4:	1025883a 	mov	r18,r2
 400d4f8:	8ce6b03a 	or	r19,r17,r19
 400d4fc:	4001e240 	call	4001e24 <__mulsi3>
 400d500:	9880052e 	bgeu	r19,r2,400d518 <__udivdi3+0x140>
 400d504:	84e7883a 	add	r19,r16,r19
 400d508:	90ffffc4 	addi	r3,r18,-1
 400d50c:	9c000136 	bltu	r19,r16,400d514 <__udivdi3+0x13c>
 400d510:	98813136 	bltu	r19,r2,400d9d8 <__udivdi3+0x600>
 400d514:	1825883a 	mov	r18,r3
 400d518:	a80c943a 	slli	r6,r21,16
 400d51c:	0007883a 	mov	r3,zero
 400d520:	3484b03a 	or	r2,r6,r18
 400d524:	00000306 	br	400d534 <__udivdi3+0x15c>
 400d528:	29c00e2e 	bgeu	r5,r7,400d564 <__udivdi3+0x18c>
 400d52c:	0007883a 	mov	r3,zero
 400d530:	0005883a 	mov	r2,zero
 400d534:	dfc00a17 	ldw	ra,40(sp)
 400d538:	df000917 	ldw	fp,36(sp)
 400d53c:	ddc00817 	ldw	r23,32(sp)
 400d540:	dd800717 	ldw	r22,28(sp)
 400d544:	dd400617 	ldw	r21,24(sp)
 400d548:	dd000517 	ldw	r20,20(sp)
 400d54c:	dcc00417 	ldw	r19,16(sp)
 400d550:	dc800317 	ldw	r18,12(sp)
 400d554:	dc400217 	ldw	r17,8(sp)
 400d558:	dc000117 	ldw	r16,4(sp)
 400d55c:	dec00b04 	addi	sp,sp,44
 400d560:	f800283a 	ret
 400d564:	00bfffd4 	movui	r2,65535
 400d568:	11c05f2e 	bgeu	r2,r7,400d6e8 <__udivdi3+0x310>
 400d56c:	00804034 	movhi	r2,256
 400d570:	3880fc36 	bltu	r7,r2,400d964 <__udivdi3+0x58c>
 400d574:	3804d63a 	srli	r2,r7,24
 400d578:	01000604 	movi	r4,24
 400d57c:	00c10074 	movhi	r3,1025
 400d580:	10c7883a 	add	r3,r2,r3
 400d584:	18884403 	ldbu	r2,8464(r3)
 400d588:	00c00804 	movi	r3,32
 400d58c:	1105883a 	add	r2,r2,r4
 400d590:	18a3c83a 	sub	r17,r3,r2
 400d594:	1880901e 	bne	r3,r2,400d7d8 <__udivdi3+0x400>
 400d598:	3c80f736 	bltu	r7,r18,400d978 <__udivdi3+0x5a0>
 400d59c:	a185403a 	cmpgeu	r2,r20,r6
 400d5a0:	0007883a 	mov	r3,zero
 400d5a4:	003fe306 	br	400d534 <__udivdi3+0x15c>
 400d5a8:	3000041e 	bne	r6,zero,400d5bc <__udivdi3+0x1e4>
 400d5ac:	000b883a 	mov	r5,zero
 400d5b0:	01000044 	movi	r4,1
 400d5b4:	4001d640 	call	4001d64 <__udivsi3>
 400d5b8:	1021883a 	mov	r16,r2
 400d5bc:	00bfffd4 	movui	r2,65535
 400d5c0:	14003f2e 	bgeu	r2,r16,400d6c0 <__udivdi3+0x2e8>
 400d5c4:	00804034 	movhi	r2,256
 400d5c8:	8080f136 	bltu	r16,r2,400d990 <__udivdi3+0x5b8>
 400d5cc:	8006d63a 	srli	r3,r16,24
 400d5d0:	04400604 	movi	r17,24
 400d5d4:	00810074 	movhi	r2,1025
 400d5d8:	1885883a 	add	r2,r3,r2
 400d5dc:	10884403 	ldbu	r2,8464(r2)
 400d5e0:	00c00804 	movi	r3,32
 400d5e4:	1463883a 	add	r17,r2,r17
 400d5e8:	1c45c83a 	sub	r2,r3,r17
 400d5ec:	1c40431e 	bne	r3,r17,400d6fc <__udivdi3+0x324>
 400d5f0:	802cd43a 	srli	r22,r16,16
 400d5f4:	9423c83a 	sub	r17,r18,r16
 400d5f8:	853fffcc 	andi	r20,r16,65535
 400d5fc:	00c00044 	movi	r3,1
 400d600:	b00b883a 	mov	r5,r22
 400d604:	8809883a 	mov	r4,r17
 400d608:	d8c00015 	stw	r3,0(sp)
 400d60c:	4001dc80 	call	4001dc8 <__umodsi3>
 400d610:	b00b883a 	mov	r5,r22
 400d614:	8809883a 	mov	r4,r17
 400d618:	1025883a 	mov	r18,r2
 400d61c:	4001d640 	call	4001d64 <__udivsi3>
 400d620:	1009883a 	mov	r4,r2
 400d624:	a00b883a 	mov	r5,r20
 400d628:	102b883a 	mov	r21,r2
 400d62c:	4001e240 	call	4001e24 <__mulsi3>
 400d630:	9024943a 	slli	r18,r18,16
 400d634:	9808d43a 	srli	r4,r19,16
 400d638:	d8c00017 	ldw	r3,0(sp)
 400d63c:	9108b03a 	or	r4,r18,r4
 400d640:	2080052e 	bgeu	r4,r2,400d658 <__udivdi3+0x280>
 400d644:	2409883a 	add	r4,r4,r16
 400d648:	a97fffc4 	addi	r5,r21,-1
 400d64c:	24000136 	bltu	r4,r16,400d654 <__udivdi3+0x27c>
 400d650:	2080e636 	bltu	r4,r2,400d9ec <__udivdi3+0x614>
 400d654:	282b883a 	mov	r21,r5
 400d658:	20a3c83a 	sub	r17,r4,r2
 400d65c:	8809883a 	mov	r4,r17
 400d660:	b00b883a 	mov	r5,r22
 400d664:	d8c00015 	stw	r3,0(sp)
 400d668:	4001dc80 	call	4001dc8 <__umodsi3>
 400d66c:	8809883a 	mov	r4,r17
 400d670:	1023883a 	mov	r17,r2
 400d674:	b00b883a 	mov	r5,r22
 400d678:	8822943a 	slli	r17,r17,16
 400d67c:	4001d640 	call	4001d64 <__udivsi3>
 400d680:	a00b883a 	mov	r5,r20
 400d684:	1009883a 	mov	r4,r2
 400d688:	9cffffcc 	andi	r19,r19,65535
 400d68c:	1025883a 	mov	r18,r2
 400d690:	8ce6b03a 	or	r19,r17,r19
 400d694:	4001e240 	call	4001e24 <__mulsi3>
 400d698:	d8c00017 	ldw	r3,0(sp)
 400d69c:	9880052e 	bgeu	r19,r2,400d6b4 <__udivdi3+0x2dc>
 400d6a0:	84e7883a 	add	r19,r16,r19
 400d6a4:	913fffc4 	addi	r4,r18,-1
 400d6a8:	9c000136 	bltu	r19,r16,400d6b0 <__udivdi3+0x2d8>
 400d6ac:	9880c836 	bltu	r19,r2,400d9d0 <__udivdi3+0x5f8>
 400d6b0:	2025883a 	mov	r18,r4
 400d6b4:	a80c943a 	slli	r6,r21,16
 400d6b8:	3484b03a 	or	r2,r6,r18
 400d6bc:	003f9d06 	br	400d534 <__udivdi3+0x15c>
 400d6c0:	80804030 	cmpltui	r2,r16,256
 400d6c4:	1000b81e 	bne	r2,zero,400d9a8 <__udivdi3+0x5d0>
 400d6c8:	8006d23a 	srli	r3,r16,8
 400d6cc:	04400204 	movi	r17,8
 400d6d0:	003fc006 	br	400d5d4 <__udivdi3+0x1fc>
 400d6d4:	30804030 	cmpltui	r2,r6,256
 400d6d8:	1000a51e 	bne	r2,zero,400d970 <__udivdi3+0x598>
 400d6dc:	3006d23a 	srli	r3,r6,8
 400d6e0:	04400204 	movi	r17,8
 400d6e4:	003f5506 	br	400d43c <__udivdi3+0x64>
 400d6e8:	38804030 	cmpltui	r2,r7,256
 400d6ec:	1000a51e 	bne	r2,zero,400d984 <__udivdi3+0x5ac>
 400d6f0:	3804d23a 	srli	r2,r7,8
 400d6f4:	01000204 	movi	r4,8
 400d6f8:	003fa006 	br	400d57c <__udivdi3+0x1a4>
 400d6fc:	80a0983a 	sll	r16,r16,r2
 400d700:	946ed83a 	srl	r23,r18,r17
 400d704:	9086983a 	sll	r3,r18,r2
 400d708:	802cd43a 	srli	r22,r16,16
 400d70c:	a462d83a 	srl	r17,r20,r17
 400d710:	b809883a 	mov	r4,r23
 400d714:	b00b883a 	mov	r5,r22
 400d718:	88eab03a 	or	r21,r17,r3
 400d71c:	a0a6983a 	sll	r19,r20,r2
 400d720:	4001dc80 	call	4001dc8 <__umodsi3>
 400d724:	b809883a 	mov	r4,r23
 400d728:	b00b883a 	mov	r5,r22
 400d72c:	1025883a 	mov	r18,r2
 400d730:	853fffcc 	andi	r20,r16,65535
 400d734:	4001d640 	call	4001d64 <__udivsi3>
 400d738:	a009883a 	mov	r4,r20
 400d73c:	100b883a 	mov	r5,r2
 400d740:	102f883a 	mov	r23,r2
 400d744:	4001e240 	call	4001e24 <__mulsi3>
 400d748:	9024943a 	slli	r18,r18,16
 400d74c:	a808d43a 	srli	r4,r21,16
 400d750:	9108b03a 	or	r4,r18,r4
 400d754:	2080062e 	bgeu	r4,r2,400d770 <__udivdi3+0x398>
 400d758:	2409883a 	add	r4,r4,r16
 400d75c:	b8ffffc4 	addi	r3,r23,-1
 400d760:	24009936 	bltu	r4,r16,400d9c8 <__udivdi3+0x5f0>
 400d764:	2080982e 	bgeu	r4,r2,400d9c8 <__udivdi3+0x5f0>
 400d768:	bdffff84 	addi	r23,r23,-2
 400d76c:	2409883a 	add	r4,r4,r16
 400d770:	20a3c83a 	sub	r17,r4,r2
 400d774:	8809883a 	mov	r4,r17
 400d778:	b00b883a 	mov	r5,r22
 400d77c:	4001dc80 	call	4001dc8 <__umodsi3>
 400d780:	1025883a 	mov	r18,r2
 400d784:	8809883a 	mov	r4,r17
 400d788:	b00b883a 	mov	r5,r22
 400d78c:	9024943a 	slli	r18,r18,16
 400d790:	4001d640 	call	4001d64 <__udivsi3>
 400d794:	100b883a 	mov	r5,r2
 400d798:	a009883a 	mov	r4,r20
 400d79c:	ac7fffcc 	andi	r17,r21,65535
 400d7a0:	1039883a 	mov	fp,r2
 400d7a4:	9462b03a 	or	r17,r18,r17
 400d7a8:	4001e240 	call	4001e24 <__mulsi3>
 400d7ac:	8880062e 	bgeu	r17,r2,400d7c8 <__udivdi3+0x3f0>
 400d7b0:	8c23883a 	add	r17,r17,r16
 400d7b4:	e0ffffc4 	addi	r3,fp,-1
 400d7b8:	8c007f36 	bltu	r17,r16,400d9b8 <__udivdi3+0x5e0>
 400d7bc:	88807e2e 	bgeu	r17,r2,400d9b8 <__udivdi3+0x5e0>
 400d7c0:	e73fff84 	addi	fp,fp,-2
 400d7c4:	8c23883a 	add	r17,r17,r16
 400d7c8:	b806943a 	slli	r3,r23,16
 400d7cc:	88a3c83a 	sub	r17,r17,r2
 400d7d0:	1f06b03a 	or	r3,r3,fp
 400d7d4:	003f8a06 	br	400d600 <__udivdi3+0x228>
 400d7d8:	30a6d83a 	srl	r19,r6,r2
 400d7dc:	3c4e983a 	sll	r7,r7,r17
 400d7e0:	90a0d83a 	srl	r16,r18,r2
 400d7e4:	9446983a 	sll	r3,r18,r17
 400d7e8:	99e6b03a 	or	r19,r19,r7
 400d7ec:	a084d83a 	srl	r2,r20,r2
 400d7f0:	9838d43a 	srli	fp,r19,16
 400d7f4:	8009883a 	mov	r4,r16
 400d7f8:	10eab03a 	or	r21,r2,r3
 400d7fc:	e00b883a 	mov	r5,fp
 400d800:	346c983a 	sll	r22,r6,r17
 400d804:	dd400015 	stw	r21,0(sp)
 400d808:	4001dc80 	call	4001dc8 <__umodsi3>
 400d80c:	8009883a 	mov	r4,r16
 400d810:	e00b883a 	mov	r5,fp
 400d814:	102f883a 	mov	r23,r2
 400d818:	9cbfffcc 	andi	r18,r19,65535
 400d81c:	4001d640 	call	4001d64 <__udivsi3>
 400d820:	9009883a 	mov	r4,r18
 400d824:	100b883a 	mov	r5,r2
 400d828:	1021883a 	mov	r16,r2
 400d82c:	4001e240 	call	4001e24 <__mulsi3>
 400d830:	b82e943a 	slli	r23,r23,16
 400d834:	a808d43a 	srli	r4,r21,16
 400d838:	b908b03a 	or	r4,r23,r4
 400d83c:	2080062e 	bgeu	r4,r2,400d858 <__udivdi3+0x480>
 400d840:	24c9883a 	add	r4,r4,r19
 400d844:	817fffc4 	addi	r5,r16,-1
 400d848:	24c05d36 	bltu	r4,r19,400d9c0 <__udivdi3+0x5e8>
 400d84c:	20805c2e 	bgeu	r4,r2,400d9c0 <__udivdi3+0x5e8>
 400d850:	843fff84 	addi	r16,r16,-2
 400d854:	24c9883a 	add	r4,r4,r19
 400d858:	20abc83a 	sub	r21,r4,r2
 400d85c:	a809883a 	mov	r4,r21
 400d860:	e00b883a 	mov	r5,fp
 400d864:	4001dc80 	call	4001dc8 <__umodsi3>
 400d868:	a809883a 	mov	r4,r21
 400d86c:	e00b883a 	mov	r5,fp
 400d870:	102b883a 	mov	r21,r2
 400d874:	4001d640 	call	4001d64 <__udivsi3>
 400d878:	9009883a 	mov	r4,r18
 400d87c:	100b883a 	mov	r5,r2
 400d880:	102f883a 	mov	r23,r2
 400d884:	4001e240 	call	4001e24 <__mulsi3>
 400d888:	d8c00017 	ldw	r3,0(sp)
 400d88c:	a82a943a 	slli	r21,r21,16
 400d890:	100d883a 	mov	r6,r2
 400d894:	1cbfffcc 	andi	r18,r3,65535
 400d898:	aca4b03a 	or	r18,r21,r18
 400d89c:	9080062e 	bgeu	r18,r2,400d8b8 <__udivdi3+0x4e0>
 400d8a0:	94e5883a 	add	r18,r18,r19
 400d8a4:	b8bfffc4 	addi	r2,r23,-1
 400d8a8:	94c04136 	bltu	r18,r19,400d9b0 <__udivdi3+0x5d8>
 400d8ac:	9180402e 	bgeu	r18,r6,400d9b0 <__udivdi3+0x5d8>
 400d8b0:	bdffff84 	addi	r23,r23,-2
 400d8b4:	94e5883a 	add	r18,r18,r19
 400d8b8:	8004943a 	slli	r2,r16,16
 400d8bc:	bd7fffcc 	andi	r21,r23,65535
 400d8c0:	b73fffcc 	andi	fp,r22,65535
 400d8c4:	15e0b03a 	or	r16,r2,r23
 400d8c8:	8026d43a 	srli	r19,r16,16
 400d8cc:	a809883a 	mov	r4,r21
 400d8d0:	e00b883a 	mov	r5,fp
 400d8d4:	91a5c83a 	sub	r18,r18,r6
 400d8d8:	b02cd43a 	srli	r22,r22,16
 400d8dc:	4001e240 	call	4001e24 <__mulsi3>
 400d8e0:	9809883a 	mov	r4,r19
 400d8e4:	e00b883a 	mov	r5,fp
 400d8e8:	102f883a 	mov	r23,r2
 400d8ec:	4001e240 	call	4001e24 <__mulsi3>
 400d8f0:	9809883a 	mov	r4,r19
 400d8f4:	b00b883a 	mov	r5,r22
 400d8f8:	1027883a 	mov	r19,r2
 400d8fc:	4001e240 	call	4001e24 <__mulsi3>
 400d900:	a809883a 	mov	r4,r21
 400d904:	b00b883a 	mov	r5,r22
 400d908:	102b883a 	mov	r21,r2
 400d90c:	4001e240 	call	4001e24 <__mulsi3>
 400d910:	b806d43a 	srli	r3,r23,16
 400d914:	14c5883a 	add	r2,r2,r19
 400d918:	1887883a 	add	r3,r3,r2
 400d91c:	1cc0022e 	bgeu	r3,r19,400d928 <__udivdi3+0x550>
 400d920:	00800074 	movhi	r2,1
 400d924:	a8ab883a 	add	r21,r21,r2
 400d928:	1804d43a 	srli	r2,r3,16
 400d92c:	156b883a 	add	r21,r2,r21
 400d930:	95400936 	bltu	r18,r21,400d958 <__udivdi3+0x580>
 400d934:	95400326 	beq	r18,r21,400d944 <__udivdi3+0x56c>
 400d938:	8005883a 	mov	r2,r16
 400d93c:	0007883a 	mov	r3,zero
 400d940:	003efc06 	br	400d534 <__udivdi3+0x15c>
 400d944:	1806943a 	slli	r3,r3,16
 400d948:	a44c983a 	sll	r6,r20,r17
 400d94c:	bdffffcc 	andi	r23,r23,65535
 400d950:	1dc7883a 	add	r3,r3,r23
 400d954:	30fff82e 	bgeu	r6,r3,400d938 <__udivdi3+0x560>
 400d958:	80bfffc4 	addi	r2,r16,-1
 400d95c:	0007883a 	mov	r3,zero
 400d960:	003ef406 	br	400d534 <__udivdi3+0x15c>
 400d964:	3804d43a 	srli	r2,r7,16
 400d968:	01000404 	movi	r4,16
 400d96c:	003f0306 	br	400d57c <__udivdi3+0x1a4>
 400d970:	3007883a 	mov	r3,r6
 400d974:	003eb106 	br	400d43c <__udivdi3+0x64>
 400d978:	0007883a 	mov	r3,zero
 400d97c:	00800044 	movi	r2,1
 400d980:	003eec06 	br	400d534 <__udivdi3+0x15c>
 400d984:	3805883a 	mov	r2,r7
 400d988:	0009883a 	mov	r4,zero
 400d98c:	003efb06 	br	400d57c <__udivdi3+0x1a4>
 400d990:	8006d43a 	srli	r3,r16,16
 400d994:	04400404 	movi	r17,16
 400d998:	003f0e06 	br	400d5d4 <__udivdi3+0x1fc>
 400d99c:	3006d43a 	srli	r3,r6,16
 400d9a0:	04400404 	movi	r17,16
 400d9a4:	003ea506 	br	400d43c <__udivdi3+0x64>
 400d9a8:	8007883a 	mov	r3,r16
 400d9ac:	003f0906 	br	400d5d4 <__udivdi3+0x1fc>
 400d9b0:	102f883a 	mov	r23,r2
 400d9b4:	003fc006 	br	400d8b8 <__udivdi3+0x4e0>
 400d9b8:	1839883a 	mov	fp,r3
 400d9bc:	003f8206 	br	400d7c8 <__udivdi3+0x3f0>
 400d9c0:	2821883a 	mov	r16,r5
 400d9c4:	003fa406 	br	400d858 <__udivdi3+0x480>
 400d9c8:	182f883a 	mov	r23,r3
 400d9cc:	003f6806 	br	400d770 <__udivdi3+0x398>
 400d9d0:	94bfff84 	addi	r18,r18,-2
 400d9d4:	003f3706 	br	400d6b4 <__udivdi3+0x2dc>
 400d9d8:	94bfff84 	addi	r18,r18,-2
 400d9dc:	003ece06 	br	400d518 <__udivdi3+0x140>
 400d9e0:	ad7fff84 	addi	r21,r21,-2
 400d9e4:	2409883a 	add	r4,r4,r16
 400d9e8:	003eb606 	br	400d4c4 <__udivdi3+0xec>
 400d9ec:	ad7fff84 	addi	r21,r21,-2
 400d9f0:	2409883a 	add	r4,r4,r16
 400d9f4:	003f1806 	br	400d658 <__udivdi3+0x280>

0400d9f8 <__umoddi3>:
 400d9f8:	defff304 	addi	sp,sp,-52
 400d9fc:	dc400415 	stw	r17,16(sp)
 400da00:	dc000315 	stw	r16,12(sp)
 400da04:	dfc00c15 	stw	ra,48(sp)
 400da08:	df000b15 	stw	fp,44(sp)
 400da0c:	ddc00a15 	stw	r23,40(sp)
 400da10:	dd800915 	stw	r22,36(sp)
 400da14:	dd400815 	stw	r21,32(sp)
 400da18:	dd000715 	stw	r20,28(sp)
 400da1c:	dcc00615 	stw	r19,24(sp)
 400da20:	dc800515 	stw	r18,20(sp)
 400da24:	2823883a 	mov	r17,r5
 400da28:	2021883a 	mov	r16,r4
 400da2c:	38003b1e 	bne	r7,zero,400db1c <__umoddi3+0x124>
 400da30:	3825883a 	mov	r18,r7
 400da34:	3029883a 	mov	r20,r6
 400da38:	2027883a 	mov	r19,r4
 400da3c:	29805b2e 	bgeu	r5,r6,400dbac <__umoddi3+0x1b4>
 400da40:	00bfffd4 	movui	r2,65535
 400da44:	282d883a 	mov	r22,r5
 400da48:	11809a2e 	bgeu	r2,r6,400dcb4 <__umoddi3+0x2bc>
 400da4c:	00804034 	movhi	r2,256
 400da50:	30814436 	bltu	r6,r2,400df64 <__umoddi3+0x56c>
 400da54:	3006d63a 	srli	r3,r6,24
 400da58:	04800604 	movi	r18,24
 400da5c:	00810074 	movhi	r2,1025
 400da60:	1885883a 	add	r2,r3,r2
 400da64:	10884403 	ldbu	r2,8464(r2)
 400da68:	00c00804 	movi	r3,32
 400da6c:	1485883a 	add	r2,r2,r18
 400da70:	18a5c83a 	sub	r18,r3,r2
 400da74:	18800526 	beq	r3,r2,400da8c <__umoddi3+0x94>
 400da78:	8ca2983a 	sll	r17,r17,r18
 400da7c:	8084d83a 	srl	r2,r16,r2
 400da80:	34a8983a 	sll	r20,r6,r18
 400da84:	84a6983a 	sll	r19,r16,r18
 400da88:	146cb03a 	or	r22,r2,r17
 400da8c:	a02ed43a 	srli	r23,r20,16
 400da90:	b009883a 	mov	r4,r22
 400da94:	a57fffcc 	andi	r21,r20,65535
 400da98:	b80b883a 	mov	r5,r23
 400da9c:	4001dc80 	call	4001dc8 <__umodsi3>
 400daa0:	b80b883a 	mov	r5,r23
 400daa4:	b009883a 	mov	r4,r22
 400daa8:	1023883a 	mov	r17,r2
 400daac:	4001d640 	call	4001d64 <__udivsi3>
 400dab0:	a809883a 	mov	r4,r21
 400dab4:	100b883a 	mov	r5,r2
 400dab8:	4001e240 	call	4001e24 <__mulsi3>
 400dabc:	8822943a 	slli	r17,r17,16
 400dac0:	9808d43a 	srli	r4,r19,16
 400dac4:	8908b03a 	or	r4,r17,r4
 400dac8:	2080042e 	bgeu	r4,r2,400dadc <__umoddi3+0xe4>
 400dacc:	2509883a 	add	r4,r4,r20
 400dad0:	25000236 	bltu	r4,r20,400dadc <__umoddi3+0xe4>
 400dad4:	2080012e 	bgeu	r4,r2,400dadc <__umoddi3+0xe4>
 400dad8:	2509883a 	add	r4,r4,r20
 400dadc:	20a1c83a 	sub	r16,r4,r2
 400dae0:	b80b883a 	mov	r5,r23
 400dae4:	8009883a 	mov	r4,r16
 400dae8:	4001dc80 	call	4001dc8 <__umodsi3>
 400daec:	b80b883a 	mov	r5,r23
 400daf0:	8009883a 	mov	r4,r16
 400daf4:	1023883a 	mov	r17,r2
 400daf8:	4001d640 	call	4001d64 <__udivsi3>
 400dafc:	8822943a 	slli	r17,r17,16
 400db00:	100b883a 	mov	r5,r2
 400db04:	a809883a 	mov	r4,r21
 400db08:	4001e240 	call	4001e24 <__mulsi3>
 400db0c:	98ffffcc 	andi	r3,r19,65535
 400db10:	88c6b03a 	or	r3,r17,r3
 400db14:	18805e2e 	bgeu	r3,r2,400dc90 <__umoddi3+0x298>
 400db18:	00005906 	br	400dc80 <__umoddi3+0x288>
 400db1c:	2005883a 	mov	r2,r4
 400db20:	29c00d2e 	bgeu	r5,r7,400db58 <__umoddi3+0x160>
 400db24:	2807883a 	mov	r3,r5
 400db28:	dfc00c17 	ldw	ra,48(sp)
 400db2c:	df000b17 	ldw	fp,44(sp)
 400db30:	ddc00a17 	ldw	r23,40(sp)
 400db34:	dd800917 	ldw	r22,36(sp)
 400db38:	dd400817 	ldw	r21,32(sp)
 400db3c:	dd000717 	ldw	r20,28(sp)
 400db40:	dcc00617 	ldw	r19,24(sp)
 400db44:	dc800517 	ldw	r18,20(sp)
 400db48:	dc400417 	ldw	r17,16(sp)
 400db4c:	dc000317 	ldw	r16,12(sp)
 400db50:	dec00d04 	addi	sp,sp,52
 400db54:	f800283a 	ret
 400db58:	013fffd4 	movui	r4,65535
 400db5c:	2807883a 	mov	r3,r5
 400db60:	21c0592e 	bgeu	r4,r7,400dcc8 <__umoddi3+0x2d0>
 400db64:	01004034 	movhi	r4,256
 400db68:	39010336 	bltu	r7,r4,400df78 <__umoddi3+0x580>
 400db6c:	3808d63a 	srli	r4,r7,24
 400db70:	02000604 	movi	r8,24
 400db74:	01410074 	movhi	r5,1025
 400db78:	214b883a 	add	r5,r4,r5
 400db7c:	2d084403 	ldbu	r20,8464(r5)
 400db80:	01000804 	movi	r4,32
 400db84:	a229883a 	add	r20,r20,r8
 400db88:	252bc83a 	sub	r21,r4,r20
 400db8c:	2500531e 	bne	r4,r20,400dcdc <__umoddi3+0x2e4>
 400db90:	3c400136 	bltu	r7,r17,400db98 <__umoddi3+0x1a0>
 400db94:	81bfe436 	bltu	r16,r6,400db28 <__umoddi3+0x130>
 400db98:	8185c83a 	sub	r2,r16,r6
 400db9c:	89cfc83a 	sub	r7,r17,r7
 400dba0:	8087803a 	cmpltu	r3,r16,r2
 400dba4:	38c7c83a 	sub	r3,r7,r3
 400dba8:	003fdf06 	br	400db28 <__umoddi3+0x130>
 400dbac:	3000041e 	bne	r6,zero,400dbc0 <__umoddi3+0x1c8>
 400dbb0:	000b883a 	mov	r5,zero
 400dbb4:	01000044 	movi	r4,1
 400dbb8:	4001d640 	call	4001d64 <__udivsi3>
 400dbbc:	1029883a 	mov	r20,r2
 400dbc0:	00bfffd4 	movui	r2,65535
 400dbc4:	1500362e 	bgeu	r2,r20,400dca0 <__umoddi3+0x2a8>
 400dbc8:	00804034 	movhi	r2,256
 400dbcc:	a080ed36 	bltu	r20,r2,400df84 <__umoddi3+0x58c>
 400dbd0:	a006d63a 	srli	r3,r20,24
 400dbd4:	04800604 	movi	r18,24
 400dbd8:	00810074 	movhi	r2,1025
 400dbdc:	1885883a 	add	r2,r3,r2
 400dbe0:	15884403 	ldbu	r22,8464(r2)
 400dbe4:	00800804 	movi	r2,32
 400dbe8:	b4ad883a 	add	r22,r22,r18
 400dbec:	15a5c83a 	sub	r18,r2,r22
 400dbf0:	1580a51e 	bne	r2,r22,400de88 <__umoddi3+0x490>
 400dbf4:	a02ed43a 	srli	r23,r20,16
 400dbf8:	8d23c83a 	sub	r17,r17,r20
 400dbfc:	a57fffcc 	andi	r21,r20,65535
 400dc00:	8809883a 	mov	r4,r17
 400dc04:	b80b883a 	mov	r5,r23
 400dc08:	4001dc80 	call	4001dc8 <__umodsi3>
 400dc0c:	8809883a 	mov	r4,r17
 400dc10:	b80b883a 	mov	r5,r23
 400dc14:	1023883a 	mov	r17,r2
 400dc18:	4001d640 	call	4001d64 <__udivsi3>
 400dc1c:	1009883a 	mov	r4,r2
 400dc20:	a80b883a 	mov	r5,r21
 400dc24:	4001e240 	call	4001e24 <__mulsi3>
 400dc28:	8822943a 	slli	r17,r17,16
 400dc2c:	9808d43a 	srli	r4,r19,16
 400dc30:	8908b03a 	or	r4,r17,r4
 400dc34:	2080032e 	bgeu	r4,r2,400dc44 <__umoddi3+0x24c>
 400dc38:	2509883a 	add	r4,r4,r20
 400dc3c:	25000136 	bltu	r4,r20,400dc44 <__umoddi3+0x24c>
 400dc40:	2080dc36 	bltu	r4,r2,400dfb4 <__umoddi3+0x5bc>
 400dc44:	20a1c83a 	sub	r16,r4,r2
 400dc48:	b80b883a 	mov	r5,r23
 400dc4c:	8009883a 	mov	r4,r16
 400dc50:	4001dc80 	call	4001dc8 <__umodsi3>
 400dc54:	b80b883a 	mov	r5,r23
 400dc58:	8009883a 	mov	r4,r16
 400dc5c:	1023883a 	mov	r17,r2
 400dc60:	8822943a 	slli	r17,r17,16
 400dc64:	4001d640 	call	4001d64 <__udivsi3>
 400dc68:	a80b883a 	mov	r5,r21
 400dc6c:	1009883a 	mov	r4,r2
 400dc70:	4001e240 	call	4001e24 <__mulsi3>
 400dc74:	9cffffcc 	andi	r19,r19,65535
 400dc78:	8cc6b03a 	or	r3,r17,r19
 400dc7c:	1880042e 	bgeu	r3,r2,400dc90 <__umoddi3+0x298>
 400dc80:	1d07883a 	add	r3,r3,r20
 400dc84:	1d000236 	bltu	r3,r20,400dc90 <__umoddi3+0x298>
 400dc88:	1880012e 	bgeu	r3,r2,400dc90 <__umoddi3+0x298>
 400dc8c:	1d07883a 	add	r3,r3,r20
 400dc90:	1885c83a 	sub	r2,r3,r2
 400dc94:	1484d83a 	srl	r2,r2,r18
 400dc98:	0007883a 	mov	r3,zero
 400dc9c:	003fa206 	br	400db28 <__umoddi3+0x130>
 400dca0:	a0804030 	cmpltui	r2,r20,256
 400dca4:	1000ba1e 	bne	r2,zero,400df90 <__umoddi3+0x598>
 400dca8:	a006d23a 	srli	r3,r20,8
 400dcac:	04800204 	movi	r18,8
 400dcb0:	003fc906 	br	400dbd8 <__umoddi3+0x1e0>
 400dcb4:	30804030 	cmpltui	r2,r6,256
 400dcb8:	1000ad1e 	bne	r2,zero,400df70 <__umoddi3+0x578>
 400dcbc:	3006d23a 	srli	r3,r6,8
 400dcc0:	04800204 	movi	r18,8
 400dcc4:	003f6506 	br	400da5c <__umoddi3+0x64>
 400dcc8:	39004030 	cmpltui	r4,r7,256
 400dccc:	2000b21e 	bne	r4,zero,400df98 <__umoddi3+0x5a0>
 400dcd0:	3808d23a 	srli	r4,r7,8
 400dcd4:	02000204 	movi	r8,8
 400dcd8:	003fa606 	br	400db74 <__umoddi3+0x17c>
 400dcdc:	3d4e983a 	sll	r7,r7,r21
 400dce0:	3508d83a 	srl	r4,r6,r20
 400dce4:	8d2cd83a 	srl	r22,r17,r20
 400dce8:	8504d83a 	srl	r2,r16,r20
 400dcec:	21e4b03a 	or	r18,r4,r7
 400dcf0:	8d62983a 	sll	r17,r17,r21
 400dcf4:	9026d43a 	srli	r19,r18,16
 400dcf8:	354c983a 	sll	r6,r6,r21
 400dcfc:	1444b03a 	or	r2,r2,r17
 400dd00:	b009883a 	mov	r4,r22
 400dd04:	980b883a 	mov	r5,r19
 400dd08:	d9800115 	stw	r6,4(sp)
 400dd0c:	d8800015 	stw	r2,0(sp)
 400dd10:	4001dc80 	call	4001dc8 <__umodsi3>
 400dd14:	980b883a 	mov	r5,r19
 400dd18:	b009883a 	mov	r4,r22
 400dd1c:	102f883a 	mov	r23,r2
 400dd20:	947fffcc 	andi	r17,r18,65535
 400dd24:	4001d640 	call	4001d64 <__udivsi3>
 400dd28:	8809883a 	mov	r4,r17
 400dd2c:	100b883a 	mov	r5,r2
 400dd30:	1039883a 	mov	fp,r2
 400dd34:	4001e240 	call	4001e24 <__mulsi3>
 400dd38:	d8c00017 	ldw	r3,0(sp)
 400dd3c:	b82e943a 	slli	r23,r23,16
 400dd40:	8560983a 	sll	r16,r16,r21
 400dd44:	1808d43a 	srli	r4,r3,16
 400dd48:	b908b03a 	or	r4,r23,r4
 400dd4c:	2080062e 	bgeu	r4,r2,400dd68 <__umoddi3+0x370>
 400dd50:	2489883a 	add	r4,r4,r18
 400dd54:	e17fffc4 	addi	r5,fp,-1
 400dd58:	24809436 	bltu	r4,r18,400dfac <__umoddi3+0x5b4>
 400dd5c:	2080932e 	bgeu	r4,r2,400dfac <__umoddi3+0x5b4>
 400dd60:	e73fff84 	addi	fp,fp,-2
 400dd64:	2489883a 	add	r4,r4,r18
 400dd68:	20adc83a 	sub	r22,r4,r2
 400dd6c:	980b883a 	mov	r5,r19
 400dd70:	b009883a 	mov	r4,r22
 400dd74:	4001dc80 	call	4001dc8 <__umodsi3>
 400dd78:	980b883a 	mov	r5,r19
 400dd7c:	b009883a 	mov	r4,r22
 400dd80:	102f883a 	mov	r23,r2
 400dd84:	4001d640 	call	4001d64 <__udivsi3>
 400dd88:	100b883a 	mov	r5,r2
 400dd8c:	8809883a 	mov	r4,r17
 400dd90:	d8800215 	stw	r2,8(sp)
 400dd94:	4001e240 	call	4001e24 <__mulsi3>
 400dd98:	d8c00017 	ldw	r3,0(sp)
 400dd9c:	b82e943a 	slli	r23,r23,16
 400dda0:	d9400217 	ldw	r5,8(sp)
 400dda4:	1c7fffcc 	andi	r17,r3,65535
 400dda8:	bc62b03a 	or	r17,r23,r17
 400ddac:	8880062e 	bgeu	r17,r2,400ddc8 <__umoddi3+0x3d0>
 400ddb0:	8ca3883a 	add	r17,r17,r18
 400ddb4:	28ffffc4 	addi	r3,r5,-1
 400ddb8:	8c807a36 	bltu	r17,r18,400dfa4 <__umoddi3+0x5ac>
 400ddbc:	8880792e 	bgeu	r17,r2,400dfa4 <__umoddi3+0x5ac>
 400ddc0:	297fff84 	addi	r5,r5,-2
 400ddc4:	8ca3883a 	add	r17,r17,r18
 400ddc8:	e02c943a 	slli	r22,fp,16
 400ddcc:	d9c00117 	ldw	r7,4(sp)
 400ddd0:	29bfffcc 	andi	r6,r5,65535
 400ddd4:	b16cb03a 	or	r22,r22,r5
 400ddd8:	38ffffcc 	andi	r3,r7,65535
 400dddc:	b02cd43a 	srli	r22,r22,16
 400dde0:	180b883a 	mov	r5,r3
 400dde4:	3009883a 	mov	r4,r6
 400dde8:	3838d43a 	srli	fp,r7,16
 400ddec:	182f883a 	mov	r23,r3
 400ddf0:	d9800015 	stw	r6,0(sp)
 400ddf4:	88a3c83a 	sub	r17,r17,r2
 400ddf8:	4001e240 	call	4001e24 <__mulsi3>
 400ddfc:	b80b883a 	mov	r5,r23
 400de00:	b009883a 	mov	r4,r22
 400de04:	102f883a 	mov	r23,r2
 400de08:	4001e240 	call	4001e24 <__mulsi3>
 400de0c:	e00b883a 	mov	r5,fp
 400de10:	b009883a 	mov	r4,r22
 400de14:	102d883a 	mov	r22,r2
 400de18:	4001e240 	call	4001e24 <__mulsi3>
 400de1c:	d9800017 	ldw	r6,0(sp)
 400de20:	e00b883a 	mov	r5,fp
 400de24:	1039883a 	mov	fp,r2
 400de28:	3009883a 	mov	r4,r6
 400de2c:	4001e240 	call	4001e24 <__mulsi3>
 400de30:	b808d43a 	srli	r4,r23,16
 400de34:	1585883a 	add	r2,r2,r22
 400de38:	2089883a 	add	r4,r4,r2
 400de3c:	2580022e 	bgeu	r4,r22,400de48 <__umoddi3+0x450>
 400de40:	00800074 	movhi	r2,1
 400de44:	e0b9883a 	add	fp,fp,r2
 400de48:	2006d43a 	srli	r3,r4,16
 400de4c:	2008943a 	slli	r4,r4,16
 400de50:	bdffffcc 	andi	r23,r23,65535
 400de54:	1f07883a 	add	r3,r3,fp
 400de58:	25c9883a 	add	r4,r4,r23
 400de5c:	88c03a36 	bltu	r17,r3,400df48 <__umoddi3+0x550>
 400de60:	88c03826 	beq	r17,r3,400df44 <__umoddi3+0x54c>
 400de64:	8109c83a 	sub	r4,r16,r4
 400de68:	8121803a 	cmpltu	r16,r16,r4
 400de6c:	88c7c83a 	sub	r3,r17,r3
 400de70:	1c07c83a 	sub	r3,r3,r16
 400de74:	1d04983a 	sll	r2,r3,r20
 400de78:	2548d83a 	srl	r4,r4,r21
 400de7c:	1d46d83a 	srl	r3,r3,r21
 400de80:	1104b03a 	or	r2,r2,r4
 400de84:	003f2806 	br	400db28 <__umoddi3+0x130>
 400de88:	a4a8983a 	sll	r20,r20,r18
 400de8c:	8da6d83a 	srl	r19,r17,r22
 400de90:	8ca2983a 	sll	r17,r17,r18
 400de94:	a02ed43a 	srli	r23,r20,16
 400de98:	9809883a 	mov	r4,r19
 400de9c:	85acd83a 	srl	r22,r16,r22
 400dea0:	b80b883a 	mov	r5,r23
 400dea4:	4001dc80 	call	4001dc8 <__umodsi3>
 400dea8:	9809883a 	mov	r4,r19
 400deac:	b80b883a 	mov	r5,r23
 400deb0:	b46cb03a 	or	r22,r22,r17
 400deb4:	a57fffcc 	andi	r21,r20,65535
 400deb8:	1023883a 	mov	r17,r2
 400debc:	4001d640 	call	4001d64 <__udivsi3>
 400dec0:	a809883a 	mov	r4,r21
 400dec4:	100b883a 	mov	r5,r2
 400dec8:	4001e240 	call	4001e24 <__mulsi3>
 400decc:	8822943a 	slli	r17,r17,16
 400ded0:	b008d43a 	srli	r4,r22,16
 400ded4:	84a6983a 	sll	r19,r16,r18
 400ded8:	8908b03a 	or	r4,r17,r4
 400dedc:	2080042e 	bgeu	r4,r2,400def0 <__umoddi3+0x4f8>
 400dee0:	2509883a 	add	r4,r4,r20
 400dee4:	25000236 	bltu	r4,r20,400def0 <__umoddi3+0x4f8>
 400dee8:	2080012e 	bgeu	r4,r2,400def0 <__umoddi3+0x4f8>
 400deec:	2509883a 	add	r4,r4,r20
 400def0:	20a1c83a 	sub	r16,r4,r2
 400def4:	8009883a 	mov	r4,r16
 400def8:	b80b883a 	mov	r5,r23
 400defc:	4001dc80 	call	4001dc8 <__umodsi3>
 400df00:	8009883a 	mov	r4,r16
 400df04:	1021883a 	mov	r16,r2
 400df08:	b80b883a 	mov	r5,r23
 400df0c:	8020943a 	slli	r16,r16,16
 400df10:	4001d640 	call	4001d64 <__udivsi3>
 400df14:	100b883a 	mov	r5,r2
 400df18:	a809883a 	mov	r4,r21
 400df1c:	b47fffcc 	andi	r17,r22,65535
 400df20:	4001e240 	call	4001e24 <__mulsi3>
 400df24:	8462b03a 	or	r17,r16,r17
 400df28:	8880042e 	bgeu	r17,r2,400df3c <__umoddi3+0x544>
 400df2c:	8d23883a 	add	r17,r17,r20
 400df30:	8d000236 	bltu	r17,r20,400df3c <__umoddi3+0x544>
 400df34:	8880012e 	bgeu	r17,r2,400df3c <__umoddi3+0x544>
 400df38:	8d23883a 	add	r17,r17,r20
 400df3c:	88a3c83a 	sub	r17,r17,r2
 400df40:	003f2f06 	br	400dc00 <__umoddi3+0x208>
 400df44:	813fc72e 	bgeu	r16,r4,400de64 <__umoddi3+0x46c>
 400df48:	d8800117 	ldw	r2,4(sp)
 400df4c:	20a7c83a 	sub	r19,r4,r2
 400df50:	24c9803a 	cmpltu	r4,r4,r19
 400df54:	2489883a 	add	r4,r4,r18
 400df58:	1907c83a 	sub	r3,r3,r4
 400df5c:	9809883a 	mov	r4,r19
 400df60:	003fc006 	br	400de64 <__umoddi3+0x46c>
 400df64:	3006d43a 	srli	r3,r6,16
 400df68:	04800404 	movi	r18,16
 400df6c:	003ebb06 	br	400da5c <__umoddi3+0x64>
 400df70:	3007883a 	mov	r3,r6
 400df74:	003eb906 	br	400da5c <__umoddi3+0x64>
 400df78:	3808d43a 	srli	r4,r7,16
 400df7c:	02000404 	movi	r8,16
 400df80:	003efc06 	br	400db74 <__umoddi3+0x17c>
 400df84:	a006d43a 	srli	r3,r20,16
 400df88:	04800404 	movi	r18,16
 400df8c:	003f1206 	br	400dbd8 <__umoddi3+0x1e0>
 400df90:	a007883a 	mov	r3,r20
 400df94:	003f1006 	br	400dbd8 <__umoddi3+0x1e0>
 400df98:	3809883a 	mov	r4,r7
 400df9c:	0011883a 	mov	r8,zero
 400dfa0:	003ef406 	br	400db74 <__umoddi3+0x17c>
 400dfa4:	180b883a 	mov	r5,r3
 400dfa8:	003f8706 	br	400ddc8 <__umoddi3+0x3d0>
 400dfac:	2839883a 	mov	fp,r5
 400dfb0:	003f6d06 	br	400dd68 <__umoddi3+0x370>
 400dfb4:	2509883a 	add	r4,r4,r20
 400dfb8:	003f2206 	br	400dc44 <__umoddi3+0x24c>

0400dfbc <__adddf3>:
 400dfbc:	02000434 	movhi	r8,16
 400dfc0:	423fffc4 	addi	r8,r8,-1
 400dfc4:	2806d53a 	srli	r3,r5,20
 400dfc8:	3804d53a 	srli	r2,r7,20
 400dfcc:	2a14703a 	and	r10,r5,r8
 400dfd0:	3a12703a 	and	r9,r7,r8
 400dfd4:	280ad7fa 	srli	r5,r5,31
 400dfd8:	501490fa 	slli	r10,r10,3
 400dfdc:	2018d77a 	srli	r12,r4,29
 400dfe0:	481290fa 	slli	r9,r9,3
 400dfe4:	3016d77a 	srli	r11,r6,29
 400dfe8:	380ed7fa 	srli	r7,r7,31
 400dfec:	defffb04 	addi	sp,sp,-20
 400dff0:	dc800215 	stw	r18,8(sp)
 400dff4:	dc000015 	stw	r16,0(sp)
 400dff8:	1c81ffcc 	andi	r18,r3,2047
 400dffc:	1081ffcc 	andi	r2,r2,2047
 400e000:	dfc00415 	stw	ra,16(sp)
 400e004:	dcc00315 	stw	r19,12(sp)
 400e008:	dc400115 	stw	r17,4(sp)
 400e00c:	201c90fa 	slli	r14,r4,3
 400e010:	301a90fa 	slli	r13,r6,3
 400e014:	2821883a 	mov	r16,r5
 400e018:	6294b03a 	or	r10,r12,r10
 400e01c:	5a52b03a 	or	r9,r11,r9
 400e020:	9087c83a 	sub	r3,r18,r2
 400e024:	29c06126 	beq	r5,r7,400e1ac <__adddf3+0x1f0>
 400e028:	00c0550e 	bge	zero,r3,400e180 <__adddf3+0x1c4>
 400e02c:	10007326 	beq	r2,zero,400e1fc <__adddf3+0x240>
 400e030:	9081ffd8 	cmpnei	r2,r18,2047
 400e034:	1000bd26 	beq	r2,zero,400e32c <__adddf3+0x370>
 400e038:	4a402034 	orhi	r9,r9,128
 400e03c:	18800e48 	cmpgei	r2,r3,57
 400e040:	1000ef1e 	bne	r2,zero,400e400 <__adddf3+0x444>
 400e044:	18800808 	cmpgei	r2,r3,32
 400e048:	1001321e 	bne	r2,zero,400e514 <__adddf3+0x558>
 400e04c:	00800804 	movi	r2,32
 400e050:	10c5c83a 	sub	r2,r2,r3
 400e054:	68c8d83a 	srl	r4,r13,r3
 400e058:	48a2983a 	sll	r17,r9,r2
 400e05c:	689a983a 	sll	r13,r13,r2
 400e060:	48c6d83a 	srl	r3,r9,r3
 400e064:	8922b03a 	or	r17,r17,r4
 400e068:	681ac03a 	cmpne	r13,r13,zero
 400e06c:	8b62b03a 	or	r17,r17,r13
 400e070:	50d5c83a 	sub	r10,r10,r3
 400e074:	7463c83a 	sub	r17,r14,r17
 400e078:	7451803a 	cmpltu	r8,r14,r17
 400e07c:	5211c83a 	sub	r8,r10,r8
 400e080:	4080202c 	andhi	r2,r8,128
 400e084:	10008d26 	beq	r2,zero,400e2bc <__adddf3+0x300>
 400e088:	02402034 	movhi	r9,128
 400e08c:	4a7fffc4 	addi	r9,r9,-1
 400e090:	4266703a 	and	r19,r8,r9
 400e094:	9800b326 	beq	r19,zero,400e364 <__adddf3+0x3a8>
 400e098:	9809883a 	mov	r4,r19
 400e09c:	40025880 	call	4002588 <__clzsi2>
 400e0a0:	10fffe04 	addi	r3,r2,-8
 400e0a4:	02000804 	movi	r8,32
 400e0a8:	40d1c83a 	sub	r8,r8,r3
 400e0ac:	8a10d83a 	srl	r8,r17,r8
 400e0b0:	98d2983a 	sll	r9,r19,r3
 400e0b4:	88e2983a 	sll	r17,r17,r3
 400e0b8:	4250b03a 	or	r8,r8,r9
 400e0bc:	1c80b216 	blt	r3,r18,400e388 <__adddf3+0x3cc>
 400e0c0:	1c87c83a 	sub	r3,r3,r18
 400e0c4:	19000044 	addi	r4,r3,1
 400e0c8:	20800808 	cmpgei	r2,r4,32
 400e0cc:	10006f1e 	bne	r2,zero,400e28c <__adddf3+0x2d0>
 400e0d0:	00800804 	movi	r2,32
 400e0d4:	1105c83a 	sub	r2,r2,r4
 400e0d8:	8906d83a 	srl	r3,r17,r4
 400e0dc:	88a2983a 	sll	r17,r17,r2
 400e0e0:	4084983a 	sll	r2,r8,r2
 400e0e4:	4110d83a 	srl	r8,r8,r4
 400e0e8:	8822c03a 	cmpne	r17,r17,zero
 400e0ec:	10c4b03a 	or	r2,r2,r3
 400e0f0:	1462b03a 	or	r17,r2,r17
 400e0f4:	0025883a 	mov	r18,zero
 400e0f8:	888001cc 	andi	r2,r17,7
 400e0fc:	10000726 	beq	r2,zero,400e11c <__adddf3+0x160>
 400e100:	888003cc 	andi	r2,r17,15
 400e104:	10800120 	cmpeqi	r2,r2,4
 400e108:	1000041e 	bne	r2,zero,400e11c <__adddf3+0x160>
 400e10c:	88c00104 	addi	r3,r17,4
 400e110:	1c63803a 	cmpltu	r17,r3,r17
 400e114:	4451883a 	add	r8,r8,r17
 400e118:	1823883a 	mov	r17,r3
 400e11c:	4080202c 	andhi	r2,r8,128
 400e120:	10006826 	beq	r2,zero,400e2c4 <__adddf3+0x308>
 400e124:	90c00044 	addi	r3,r18,1
 400e128:	1881ffe0 	cmpeqi	r2,r3,2047
 400e12c:	18c1ffcc 	andi	r3,r3,2047
 400e130:	10007a1e 	bne	r2,zero,400e31c <__adddf3+0x360>
 400e134:	00bfe034 	movhi	r2,65408
 400e138:	10bfffc4 	addi	r2,r2,-1
 400e13c:	4090703a 	and	r8,r8,r2
 400e140:	4004977a 	slli	r2,r8,29
 400e144:	4010927a 	slli	r8,r8,9
 400e148:	8822d0fa 	srli	r17,r17,3
 400e14c:	4010d33a 	srli	r8,r8,12
 400e150:	1444b03a 	or	r2,r2,r17
 400e154:	1806953a 	slli	r3,r3,20
 400e158:	802097fa 	slli	r16,r16,31
 400e15c:	1a06b03a 	or	r3,r3,r8
 400e160:	1c06b03a 	or	r3,r3,r16
 400e164:	dfc00417 	ldw	ra,16(sp)
 400e168:	dcc00317 	ldw	r19,12(sp)
 400e16c:	dc800217 	ldw	r18,8(sp)
 400e170:	dc400117 	ldw	r17,4(sp)
 400e174:	dc000017 	ldw	r16,0(sp)
 400e178:	dec00504 	addi	sp,sp,20
 400e17c:	f800283a 	ret
 400e180:	18002626 	beq	r3,zero,400e21c <__adddf3+0x260>
 400e184:	1487c83a 	sub	r3,r2,r18
 400e188:	9000ba1e 	bne	r18,zero,400e474 <__adddf3+0x4b8>
 400e18c:	5388b03a 	or	r4,r10,r14
 400e190:	20011826 	beq	r4,zero,400e5f4 <__adddf3+0x638>
 400e194:	193fffc4 	addi	r4,r3,-1
 400e198:	20015726 	beq	r4,zero,400e6f8 <__adddf3+0x73c>
 400e19c:	18c1ffd8 	cmpnei	r3,r3,2047
 400e1a0:	18013026 	beq	r3,zero,400e664 <__adddf3+0x6a8>
 400e1a4:	2007883a 	mov	r3,r4
 400e1a8:	0000b506 	br	400e480 <__adddf3+0x4c4>
 400e1ac:	00c07b0e 	bge	zero,r3,400e39c <__adddf3+0x3e0>
 400e1b0:	10002e26 	beq	r2,zero,400e26c <__adddf3+0x2b0>
 400e1b4:	9081ffd8 	cmpnei	r2,r18,2047
 400e1b8:	10005c26 	beq	r2,zero,400e32c <__adddf3+0x370>
 400e1bc:	4a402034 	orhi	r9,r9,128
 400e1c0:	18800e48 	cmpgei	r2,r3,57
 400e1c4:	10004b1e 	bne	r2,zero,400e2f4 <__adddf3+0x338>
 400e1c8:	18800808 	cmpgei	r2,r3,32
 400e1cc:	1000ec26 	beq	r2,zero,400e580 <__adddf3+0x5c4>
 400e1d0:	1c7ff804 	addi	r17,r3,-32
 400e1d4:	19000820 	cmpeqi	r4,r3,32
 400e1d8:	4c44d83a 	srl	r2,r9,r17
 400e1dc:	2000041e 	bne	r4,zero,400e1f0 <__adddf3+0x234>
 400e1e0:	01001004 	movi	r4,64
 400e1e4:	20c7c83a 	sub	r3,r4,r3
 400e1e8:	48d2983a 	sll	r9,r9,r3
 400e1ec:	6a5ab03a 	or	r13,r13,r9
 400e1f0:	6822c03a 	cmpne	r17,r13,zero
 400e1f4:	88a2b03a 	or	r17,r17,r2
 400e1f8:	00004006 	br	400e2fc <__adddf3+0x340>
 400e1fc:	4b44b03a 	or	r2,r9,r13
 400e200:	10008226 	beq	r2,zero,400e40c <__adddf3+0x450>
 400e204:	18bfffc4 	addi	r2,r3,-1
 400e208:	10011026 	beq	r2,zero,400e64c <__adddf3+0x690>
 400e20c:	18c1ffd8 	cmpnei	r3,r3,2047
 400e210:	18004626 	beq	r3,zero,400e32c <__adddf3+0x370>
 400e214:	1007883a 	mov	r3,r2
 400e218:	003f8806 	br	400e03c <__adddf3+0x80>
 400e21c:	90800044 	addi	r2,r18,1
 400e220:	1081ff8c 	andi	r2,r2,2046
 400e224:	1000a51e 	bne	r2,zero,400e4bc <__adddf3+0x500>
 400e228:	538ab03a 	or	r5,r10,r14
 400e22c:	4b44b03a 	or	r2,r9,r13
 400e230:	9000f81e 	bne	r18,zero,400e614 <__adddf3+0x658>
 400e234:	28013726 	beq	r5,zero,400e714 <__adddf3+0x758>
 400e238:	10011226 	beq	r2,zero,400e684 <__adddf3+0x6c8>
 400e23c:	7363c83a 	sub	r17,r14,r13
 400e240:	7445803a 	cmpltu	r2,r14,r17
 400e244:	5251c83a 	sub	r8,r10,r9
 400e248:	4091c83a 	sub	r8,r8,r2
 400e24c:	4080202c 	andhi	r2,r8,128
 400e250:	10018f26 	beq	r2,zero,400e890 <__adddf3+0x8d4>
 400e254:	6ba3c83a 	sub	r17,r13,r14
 400e258:	4a95c83a 	sub	r10,r9,r10
 400e25c:	6c51803a 	cmpltu	r8,r13,r17
 400e260:	5211c83a 	sub	r8,r10,r8
 400e264:	3821883a 	mov	r16,r7
 400e268:	003fa306 	br	400e0f8 <__adddf3+0x13c>
 400e26c:	4b44b03a 	or	r2,r9,r13
 400e270:	10006626 	beq	r2,zero,400e40c <__adddf3+0x450>
 400e274:	18bfffc4 	addi	r2,r3,-1
 400e278:	1000ec26 	beq	r2,zero,400e62c <__adddf3+0x670>
 400e27c:	18c1ffd8 	cmpnei	r3,r3,2047
 400e280:	18012d26 	beq	r3,zero,400e738 <__adddf3+0x77c>
 400e284:	1007883a 	mov	r3,r2
 400e288:	003fcd06 	br	400e1c0 <__adddf3+0x204>
 400e28c:	18fff844 	addi	r3,r3,-31
 400e290:	20800820 	cmpeqi	r2,r4,32
 400e294:	40c6d83a 	srl	r3,r8,r3
 400e298:	1000041e 	bne	r2,zero,400e2ac <__adddf3+0x2f0>
 400e29c:	00801004 	movi	r2,64
 400e2a0:	1109c83a 	sub	r4,r2,r4
 400e2a4:	4110983a 	sll	r8,r8,r4
 400e2a8:	8a22b03a 	or	r17,r17,r8
 400e2ac:	8822c03a 	cmpne	r17,r17,zero
 400e2b0:	88e2b03a 	or	r17,r17,r3
 400e2b4:	0011883a 	mov	r8,zero
 400e2b8:	0025883a 	mov	r18,zero
 400e2bc:	888001cc 	andi	r2,r17,7
 400e2c0:	103f8f1e 	bne	r2,zero,400e100 <__adddf3+0x144>
 400e2c4:	8822d0fa 	srli	r17,r17,3
 400e2c8:	4004977a 	slli	r2,r8,29
 400e2cc:	4014d0fa 	srli	r10,r8,3
 400e2d0:	9007883a 	mov	r3,r18
 400e2d4:	8884b03a 	or	r2,r17,r2
 400e2d8:	1901ffe0 	cmpeqi	r4,r3,2047
 400e2dc:	2000191e 	bne	r4,zero,400e344 <__adddf3+0x388>
 400e2e0:	02000434 	movhi	r8,16
 400e2e4:	423fffc4 	addi	r8,r8,-1
 400e2e8:	5210703a 	and	r8,r10,r8
 400e2ec:	18c1ffcc 	andi	r3,r3,2047
 400e2f0:	003f9806 	br	400e154 <__adddf3+0x198>
 400e2f4:	4b62b03a 	or	r17,r9,r13
 400e2f8:	8822c03a 	cmpne	r17,r17,zero
 400e2fc:	8ba3883a 	add	r17,r17,r14
 400e300:	8b91803a 	cmpltu	r8,r17,r14
 400e304:	4291883a 	add	r8,r8,r10
 400e308:	4080202c 	andhi	r2,r8,128
 400e30c:	103feb26 	beq	r2,zero,400e2bc <__adddf3+0x300>
 400e310:	94800044 	addi	r18,r18,1
 400e314:	9081ffe0 	cmpeqi	r2,r18,2047
 400e318:	10007426 	beq	r2,zero,400e4ec <__adddf3+0x530>
 400e31c:	00c1ffc4 	movi	r3,2047
 400e320:	0011883a 	mov	r8,zero
 400e324:	0005883a 	mov	r2,zero
 400e328:	003f8a06 	br	400e154 <__adddf3+0x198>
 400e32c:	500a977a 	slli	r5,r10,29
 400e330:	00c80034 	movhi	r3,8192
 400e334:	18ffffc4 	addi	r3,r3,-1
 400e338:	5014d0fa 	srli	r10,r10,3
 400e33c:	20c4703a 	and	r2,r4,r3
 400e340:	1144b03a 	or	r2,r2,r5
 400e344:	1286b03a 	or	r3,r2,r10
 400e348:	18015426 	beq	r3,zero,400e89c <__adddf3+0x8e0>
 400e34c:	00c00434 	movhi	r3,16
 400e350:	18ffffc4 	addi	r3,r3,-1
 400e354:	52000234 	orhi	r8,r10,8
 400e358:	40d0703a 	and	r8,r8,r3
 400e35c:	00c1ffc4 	movi	r3,2047
 400e360:	003f7c06 	br	400e154 <__adddf3+0x198>
 400e364:	8809883a 	mov	r4,r17
 400e368:	40025880 	call	4002588 <__clzsi2>
 400e36c:	10c00604 	addi	r3,r2,24
 400e370:	19000808 	cmpgei	r4,r3,32
 400e374:	203f4b26 	beq	r4,zero,400e0a4 <__adddf3+0xe8>
 400e378:	123ffe04 	addi	r8,r2,-8
 400e37c:	8a10983a 	sll	r8,r17,r8
 400e380:	0023883a 	mov	r17,zero
 400e384:	1cbf4e0e 	bge	r3,r18,400e0c0 <__adddf3+0x104>
 400e388:	00bfe034 	movhi	r2,65408
 400e38c:	10bfffc4 	addi	r2,r2,-1
 400e390:	90e5c83a 	sub	r18,r18,r3
 400e394:	4090703a 	and	r8,r8,r2
 400e398:	003f5706 	br	400e0f8 <__adddf3+0x13c>
 400e39c:	18002226 	beq	r3,zero,400e428 <__adddf3+0x46c>
 400e3a0:	1487c83a 	sub	r3,r2,r18
 400e3a4:	90006e26 	beq	r18,zero,400e560 <__adddf3+0x5a4>
 400e3a8:	1101ffd8 	cmpnei	r4,r2,2047
 400e3ac:	2000e926 	beq	r4,zero,400e754 <__adddf3+0x798>
 400e3b0:	52802034 	orhi	r10,r10,128
 400e3b4:	19000e48 	cmpgei	r4,r3,57
 400e3b8:	2000b91e 	bne	r4,zero,400e6a0 <__adddf3+0x6e4>
 400e3bc:	19000808 	cmpgei	r4,r3,32
 400e3c0:	2001101e 	bne	r4,zero,400e804 <__adddf3+0x848>
 400e3c4:	01000804 	movi	r4,32
 400e3c8:	20c9c83a 	sub	r4,r4,r3
 400e3cc:	5122983a 	sll	r17,r10,r4
 400e3d0:	70cad83a 	srl	r5,r14,r3
 400e3d4:	7108983a 	sll	r4,r14,r4
 400e3d8:	50d4d83a 	srl	r10,r10,r3
 400e3dc:	8962b03a 	or	r17,r17,r5
 400e3e0:	2008c03a 	cmpne	r4,r4,zero
 400e3e4:	8922b03a 	or	r17,r17,r4
 400e3e8:	4a93883a 	add	r9,r9,r10
 400e3ec:	8b63883a 	add	r17,r17,r13
 400e3f0:	8b51803a 	cmpltu	r8,r17,r13
 400e3f4:	4251883a 	add	r8,r8,r9
 400e3f8:	1025883a 	mov	r18,r2
 400e3fc:	003fc206 	br	400e308 <__adddf3+0x34c>
 400e400:	4b62b03a 	or	r17,r9,r13
 400e404:	8822c03a 	cmpne	r17,r17,zero
 400e408:	003f1a06 	br	400e074 <__adddf3+0xb8>
 400e40c:	500c977a 	slli	r6,r10,29
 400e410:	01480034 	movhi	r5,8192
 400e414:	297fffc4 	addi	r5,r5,-1
 400e418:	2144703a 	and	r2,r4,r5
 400e41c:	5014d0fa 	srli	r10,r10,3
 400e420:	1184b03a 	or	r2,r2,r6
 400e424:	003fac06 	br	400e2d8 <__adddf3+0x31c>
 400e428:	90800044 	addi	r2,r18,1
 400e42c:	1141ff8c 	andi	r5,r2,2046
 400e430:	28005e1e 	bne	r5,zero,400e5ac <__adddf3+0x5f0>
 400e434:	5384b03a 	or	r2,r10,r14
 400e438:	9000a71e 	bne	r18,zero,400e6d8 <__adddf3+0x71c>
 400e43c:	1000e526 	beq	r2,zero,400e7d4 <__adddf3+0x818>
 400e440:	4b44b03a 	or	r2,r9,r13
 400e444:	10008f26 	beq	r2,zero,400e684 <__adddf3+0x6c8>
 400e448:	7363883a 	add	r17,r14,r13
 400e44c:	5255883a 	add	r10,r10,r9
 400e450:	8b91803a 	cmpltu	r8,r17,r14
 400e454:	5211883a 	add	r8,r10,r8
 400e458:	4080202c 	andhi	r2,r8,128
 400e45c:	103f9726 	beq	r2,zero,400e2bc <__adddf3+0x300>
 400e460:	00bfe034 	movhi	r2,65408
 400e464:	10bfffc4 	addi	r2,r2,-1
 400e468:	4090703a 	and	r8,r8,r2
 400e46c:	04800044 	movi	r18,1
 400e470:	003f9206 	br	400e2bc <__adddf3+0x300>
 400e474:	1101ffd8 	cmpnei	r4,r2,2047
 400e478:	20007a26 	beq	r4,zero,400e664 <__adddf3+0x6a8>
 400e47c:	52802034 	orhi	r10,r10,128
 400e480:	19000e48 	cmpgei	r4,r3,57
 400e484:	20002e1e 	bne	r4,zero,400e540 <__adddf3+0x584>
 400e488:	19000808 	cmpgei	r4,r3,32
 400e48c:	2000871e 	bne	r4,zero,400e6ac <__adddf3+0x6f0>
 400e490:	01000804 	movi	r4,32
 400e494:	20c9c83a 	sub	r4,r4,r3
 400e498:	5122983a 	sll	r17,r10,r4
 400e49c:	70cad83a 	srl	r5,r14,r3
 400e4a0:	711c983a 	sll	r14,r14,r4
 400e4a4:	50d4d83a 	srl	r10,r10,r3
 400e4a8:	8962b03a 	or	r17,r17,r5
 400e4ac:	701cc03a 	cmpne	r14,r14,zero
 400e4b0:	8ba2b03a 	or	r17,r17,r14
 400e4b4:	4a93c83a 	sub	r9,r9,r10
 400e4b8:	00002306 	br	400e548 <__adddf3+0x58c>
 400e4bc:	7363c83a 	sub	r17,r14,r13
 400e4c0:	5267c83a 	sub	r19,r10,r9
 400e4c4:	7451803a 	cmpltu	r8,r14,r17
 400e4c8:	9a27c83a 	sub	r19,r19,r8
 400e4cc:	9880202c 	andhi	r2,r19,128
 400e4d0:	1000421e 	bne	r2,zero,400e5dc <__adddf3+0x620>
 400e4d4:	8cc4b03a 	or	r2,r17,r19
 400e4d8:	103eee1e 	bne	r2,zero,400e094 <__adddf3+0xd8>
 400e4dc:	0015883a 	mov	r10,zero
 400e4e0:	0021883a 	mov	r16,zero
 400e4e4:	003f7e06 	br	400e2e0 <__adddf3+0x324>
 400e4e8:	04800084 	movi	r18,2
 400e4ec:	00bfe034 	movhi	r2,65408
 400e4f0:	10bfffc4 	addi	r2,r2,-1
 400e4f4:	8806d07a 	srli	r3,r17,1
 400e4f8:	4090703a 	and	r8,r8,r2
 400e4fc:	400497fa 	slli	r2,r8,31
 400e500:	8c40004c 	andi	r17,r17,1
 400e504:	1c62b03a 	or	r17,r3,r17
 400e508:	4010d07a 	srli	r8,r8,1
 400e50c:	1462b03a 	or	r17,r2,r17
 400e510:	003ef906 	br	400e0f8 <__adddf3+0x13c>
 400e514:	1c7ff804 	addi	r17,r3,-32
 400e518:	19000820 	cmpeqi	r4,r3,32
 400e51c:	4c44d83a 	srl	r2,r9,r17
 400e520:	2000041e 	bne	r4,zero,400e534 <__adddf3+0x578>
 400e524:	01001004 	movi	r4,64
 400e528:	20c7c83a 	sub	r3,r4,r3
 400e52c:	48d2983a 	sll	r9,r9,r3
 400e530:	6a5ab03a 	or	r13,r13,r9
 400e534:	6822c03a 	cmpne	r17,r13,zero
 400e538:	88a2b03a 	or	r17,r17,r2
 400e53c:	003ecd06 	br	400e074 <__adddf3+0xb8>
 400e540:	5394b03a 	or	r10,r10,r14
 400e544:	5022c03a 	cmpne	r17,r10,zero
 400e548:	6c63c83a 	sub	r17,r13,r17
 400e54c:	6c51803a 	cmpltu	r8,r13,r17
 400e550:	4a11c83a 	sub	r8,r9,r8
 400e554:	3821883a 	mov	r16,r7
 400e558:	1025883a 	mov	r18,r2
 400e55c:	003ec806 	br	400e080 <__adddf3+0xc4>
 400e560:	5388b03a 	or	r4,r10,r14
 400e564:	20008226 	beq	r4,zero,400e770 <__adddf3+0x7b4>
 400e568:	193fffc4 	addi	r4,r3,-1
 400e56c:	2000b026 	beq	r4,zero,400e830 <__adddf3+0x874>
 400e570:	18c1ffd8 	cmpnei	r3,r3,2047
 400e574:	18007726 	beq	r3,zero,400e754 <__adddf3+0x798>
 400e578:	2007883a 	mov	r3,r4
 400e57c:	003f8d06 	br	400e3b4 <__adddf3+0x3f8>
 400e580:	00800804 	movi	r2,32
 400e584:	10c5c83a 	sub	r2,r2,r3
 400e588:	68c8d83a 	srl	r4,r13,r3
 400e58c:	48a2983a 	sll	r17,r9,r2
 400e590:	689a983a 	sll	r13,r13,r2
 400e594:	48c6d83a 	srl	r3,r9,r3
 400e598:	8922b03a 	or	r17,r17,r4
 400e59c:	681ac03a 	cmpne	r13,r13,zero
 400e5a0:	8b62b03a 	or	r17,r17,r13
 400e5a4:	50d5883a 	add	r10,r10,r3
 400e5a8:	003f5406 	br	400e2fc <__adddf3+0x340>
 400e5ac:	10c1ffe0 	cmpeqi	r3,r2,2047
 400e5b0:	183f5a1e 	bne	r3,zero,400e31c <__adddf3+0x360>
 400e5b4:	7351883a 	add	r8,r14,r13
 400e5b8:	4387803a 	cmpltu	r3,r8,r14
 400e5bc:	5255883a 	add	r10,r10,r9
 400e5c0:	50c7883a 	add	r3,r10,r3
 400e5c4:	401ad07a 	srli	r13,r8,1
 400e5c8:	182297fa 	slli	r17,r3,31
 400e5cc:	1810d07a 	srli	r8,r3,1
 400e5d0:	1025883a 	mov	r18,r2
 400e5d4:	8b62b03a 	or	r17,r17,r13
 400e5d8:	003f3806 	br	400e2bc <__adddf3+0x300>
 400e5dc:	6ba3c83a 	sub	r17,r13,r14
 400e5e0:	4a93c83a 	sub	r9,r9,r10
 400e5e4:	6c51803a 	cmpltu	r8,r13,r17
 400e5e8:	4a27c83a 	sub	r19,r9,r8
 400e5ec:	3821883a 	mov	r16,r7
 400e5f0:	003ea806 	br	400e094 <__adddf3+0xd8>
 400e5f4:	480a977a 	slli	r5,r9,29
 400e5f8:	01080034 	movhi	r4,8192
 400e5fc:	213fffc4 	addi	r4,r4,-1
 400e600:	3104703a 	and	r2,r6,r4
 400e604:	4814d0fa 	srli	r10,r9,3
 400e608:	1144b03a 	or	r2,r2,r5
 400e60c:	3821883a 	mov	r16,r7
 400e610:	003f3106 	br	400e2d8 <__adddf3+0x31c>
 400e614:	28005d1e 	bne	r5,zero,400e78c <__adddf3+0x7d0>
 400e618:	1000121e 	bne	r2,zero,400e664 <__adddf3+0x6a8>
 400e61c:	0021883a 	mov	r16,zero
 400e620:	4015883a 	mov	r10,r8
 400e624:	00bfffc4 	movi	r2,-1
 400e628:	003f4806 	br	400e34c <__adddf3+0x390>
 400e62c:	7363883a 	add	r17,r14,r13
 400e630:	5255883a 	add	r10,r10,r9
 400e634:	8b91803a 	cmpltu	r8,r17,r14
 400e638:	5211883a 	add	r8,r10,r8
 400e63c:	4080202c 	andhi	r2,r8,128
 400e640:	103fa91e 	bne	r2,zero,400e4e8 <__adddf3+0x52c>
 400e644:	04800044 	movi	r18,1
 400e648:	003f1c06 	br	400e2bc <__adddf3+0x300>
 400e64c:	7363c83a 	sub	r17,r14,r13
 400e650:	5255c83a 	sub	r10,r10,r9
 400e654:	7451803a 	cmpltu	r8,r14,r17
 400e658:	5211c83a 	sub	r8,r10,r8
 400e65c:	04800044 	movi	r18,1
 400e660:	003e8706 	br	400e080 <__adddf3+0xc4>
 400e664:	4806977a 	slli	r3,r9,29
 400e668:	00880034 	movhi	r2,8192
 400e66c:	10bfffc4 	addi	r2,r2,-1
 400e670:	3084703a 	and	r2,r6,r2
 400e674:	4814d0fa 	srli	r10,r9,3
 400e678:	10c4b03a 	or	r2,r2,r3
 400e67c:	3821883a 	mov	r16,r7
 400e680:	003f3006 	br	400e344 <__adddf3+0x388>
 400e684:	500a977a 	slli	r5,r10,29
 400e688:	00880034 	movhi	r2,8192
 400e68c:	10bfffc4 	addi	r2,r2,-1
 400e690:	2084703a 	and	r2,r4,r2
 400e694:	5014d0fa 	srli	r10,r10,3
 400e698:	1144b03a 	or	r2,r2,r5
 400e69c:	003f1006 	br	400e2e0 <__adddf3+0x324>
 400e6a0:	5394b03a 	or	r10,r10,r14
 400e6a4:	5022c03a 	cmpne	r17,r10,zero
 400e6a8:	003f5006 	br	400e3ec <__adddf3+0x430>
 400e6ac:	1c7ff804 	addi	r17,r3,-32
 400e6b0:	19400820 	cmpeqi	r5,r3,32
 400e6b4:	5448d83a 	srl	r4,r10,r17
 400e6b8:	2800041e 	bne	r5,zero,400e6cc <__adddf3+0x710>
 400e6bc:	01401004 	movi	r5,64
 400e6c0:	28c7c83a 	sub	r3,r5,r3
 400e6c4:	50d4983a 	sll	r10,r10,r3
 400e6c8:	729cb03a 	or	r14,r14,r10
 400e6cc:	7022c03a 	cmpne	r17,r14,zero
 400e6d0:	8922b03a 	or	r17,r17,r4
 400e6d4:	003f9c06 	br	400e548 <__adddf3+0x58c>
 400e6d8:	10005a1e 	bne	r2,zero,400e844 <__adddf3+0x888>
 400e6dc:	4804977a 	slli	r2,r9,29
 400e6e0:	00c80034 	movhi	r3,8192
 400e6e4:	18ffffc4 	addi	r3,r3,-1
 400e6e8:	30cc703a 	and	r6,r6,r3
 400e6ec:	4814d0fa 	srli	r10,r9,3
 400e6f0:	1184b03a 	or	r2,r2,r6
 400e6f4:	003f1306 	br	400e344 <__adddf3+0x388>
 400e6f8:	6ba3c83a 	sub	r17,r13,r14
 400e6fc:	4a95c83a 	sub	r10,r9,r10
 400e700:	6c51803a 	cmpltu	r8,r13,r17
 400e704:	5211c83a 	sub	r8,r10,r8
 400e708:	3821883a 	mov	r16,r7
 400e70c:	04800044 	movi	r18,1
 400e710:	003e5b06 	br	400e080 <__adddf3+0xc4>
 400e714:	103f7126 	beq	r2,zero,400e4dc <__adddf3+0x520>
 400e718:	4808977a 	slli	r4,r9,29
 400e71c:	00880034 	movhi	r2,8192
 400e720:	10bfffc4 	addi	r2,r2,-1
 400e724:	3084703a 	and	r2,r6,r2
 400e728:	4814d0fa 	srli	r10,r9,3
 400e72c:	1104b03a 	or	r2,r2,r4
 400e730:	3821883a 	mov	r16,r7
 400e734:	003eea06 	br	400e2e0 <__adddf3+0x324>
 400e738:	5006977a 	slli	r3,r10,29
 400e73c:	00880034 	movhi	r2,8192
 400e740:	10bfffc4 	addi	r2,r2,-1
 400e744:	2084703a 	and	r2,r4,r2
 400e748:	5014d0fa 	srli	r10,r10,3
 400e74c:	10c4b03a 	or	r2,r2,r3
 400e750:	003efc06 	br	400e344 <__adddf3+0x388>
 400e754:	4806977a 	slli	r3,r9,29
 400e758:	00880034 	movhi	r2,8192
 400e75c:	10bfffc4 	addi	r2,r2,-1
 400e760:	3084703a 	and	r2,r6,r2
 400e764:	4814d0fa 	srli	r10,r9,3
 400e768:	10c4b03a 	or	r2,r2,r3
 400e76c:	003ef506 	br	400e344 <__adddf3+0x388>
 400e770:	4808977a 	slli	r4,r9,29
 400e774:	00880034 	movhi	r2,8192
 400e778:	10bfffc4 	addi	r2,r2,-1
 400e77c:	3084703a 	and	r2,r6,r2
 400e780:	4814d0fa 	srli	r10,r9,3
 400e784:	1104b03a 	or	r2,r2,r4
 400e788:	003ed306 	br	400e2d8 <__adddf3+0x31c>
 400e78c:	500a977a 	slli	r5,r10,29
 400e790:	5014d0fa 	srli	r10,r10,3
 400e794:	10001626 	beq	r2,zero,400e7f0 <__adddf3+0x834>
 400e798:	00c80034 	movhi	r3,8192
 400e79c:	18ffffc4 	addi	r3,r3,-1
 400e7a0:	20c4703a 	and	r2,r4,r3
 400e7a4:	5100022c 	andhi	r4,r10,8
 400e7a8:	1144b03a 	or	r2,r2,r5
 400e7ac:	203ee526 	beq	r4,zero,400e344 <__adddf3+0x388>
 400e7b0:	4808d0fa 	srli	r4,r9,3
 400e7b4:	2140022c 	andhi	r5,r4,8
 400e7b8:	283ee21e 	bne	r5,zero,400e344 <__adddf3+0x388>
 400e7bc:	4812977a 	slli	r9,r9,29
 400e7c0:	30c4703a 	and	r2,r6,r3
 400e7c4:	3821883a 	mov	r16,r7
 400e7c8:	1244b03a 	or	r2,r2,r9
 400e7cc:	2015883a 	mov	r10,r4
 400e7d0:	003edc06 	br	400e344 <__adddf3+0x388>
 400e7d4:	4804977a 	slli	r2,r9,29
 400e7d8:	01080034 	movhi	r4,8192
 400e7dc:	213fffc4 	addi	r4,r4,-1
 400e7e0:	310c703a 	and	r6,r6,r4
 400e7e4:	4814d0fa 	srli	r10,r9,3
 400e7e8:	1184b03a 	or	r2,r2,r6
 400e7ec:	003ebc06 	br	400e2e0 <__adddf3+0x324>
 400e7f0:	00880034 	movhi	r2,8192
 400e7f4:	10bfffc4 	addi	r2,r2,-1
 400e7f8:	2084703a 	and	r2,r4,r2
 400e7fc:	1144b03a 	or	r2,r2,r5
 400e800:	003ed006 	br	400e344 <__adddf3+0x388>
 400e804:	193ff804 	addi	r4,r3,-32
 400e808:	19400820 	cmpeqi	r5,r3,32
 400e80c:	5108d83a 	srl	r4,r10,r4
 400e810:	2800041e 	bne	r5,zero,400e824 <__adddf3+0x868>
 400e814:	01401004 	movi	r5,64
 400e818:	28c7c83a 	sub	r3,r5,r3
 400e81c:	50d4983a 	sll	r10,r10,r3
 400e820:	729cb03a 	or	r14,r14,r10
 400e824:	7022c03a 	cmpne	r17,r14,zero
 400e828:	8922b03a 	or	r17,r17,r4
 400e82c:	003eef06 	br	400e3ec <__adddf3+0x430>
 400e830:	7363883a 	add	r17,r14,r13
 400e834:	5255883a 	add	r10,r10,r9
 400e838:	8b51803a 	cmpltu	r8,r17,r13
 400e83c:	5211883a 	add	r8,r10,r8
 400e840:	003f7e06 	br	400e63c <__adddf3+0x680>
 400e844:	4b50b03a 	or	r8,r9,r13
 400e848:	500a977a 	slli	r5,r10,29
 400e84c:	5014d0fa 	srli	r10,r10,3
 400e850:	403fe726 	beq	r8,zero,400e7f0 <__adddf3+0x834>
 400e854:	00c80034 	movhi	r3,8192
 400e858:	18ffffc4 	addi	r3,r3,-1
 400e85c:	20c4703a 	and	r2,r4,r3
 400e860:	5100022c 	andhi	r4,r10,8
 400e864:	1144b03a 	or	r2,r2,r5
 400e868:	203eb626 	beq	r4,zero,400e344 <__adddf3+0x388>
 400e86c:	4808d0fa 	srli	r4,r9,3
 400e870:	2140022c 	andhi	r5,r4,8
 400e874:	283eb31e 	bne	r5,zero,400e344 <__adddf3+0x388>
 400e878:	4804977a 	slli	r2,r9,29
 400e87c:	30cc703a 	and	r6,r6,r3
 400e880:	3821883a 	mov	r16,r7
 400e884:	3084b03a 	or	r2,r6,r2
 400e888:	2015883a 	mov	r10,r4
 400e88c:	003ead06 	br	400e344 <__adddf3+0x388>
 400e890:	8a04b03a 	or	r2,r17,r8
 400e894:	103f1126 	beq	r2,zero,400e4dc <__adddf3+0x520>
 400e898:	003e8806 	br	400e2bc <__adddf3+0x300>
 400e89c:	0005883a 	mov	r2,zero
 400e8a0:	00c1ffc4 	movi	r3,2047
 400e8a4:	0011883a 	mov	r8,zero
 400e8a8:	003e2a06 	br	400e154 <__adddf3+0x198>

0400e8ac <__divdf3>:
 400e8ac:	2810d53a 	srli	r8,r5,20
 400e8b0:	defff004 	addi	sp,sp,-64
 400e8b4:	dc000615 	stw	r16,24(sp)
 400e8b8:	04000434 	movhi	r16,16
 400e8bc:	df000e15 	stw	fp,56(sp)
 400e8c0:	ddc00d15 	stw	r23,52(sp)
 400e8c4:	dd800c15 	stw	r22,48(sp)
 400e8c8:	dd000a15 	stw	r20,40(sp)
 400e8cc:	843fffc4 	addi	r16,r16,-1
 400e8d0:	dfc00f15 	stw	ra,60(sp)
 400e8d4:	dd400b15 	stw	r21,44(sp)
 400e8d8:	dcc00915 	stw	r19,36(sp)
 400e8dc:	dc800815 	stw	r18,32(sp)
 400e8e0:	dc400715 	stw	r17,28(sp)
 400e8e4:	4201ffcc 	andi	r8,r8,2047
 400e8e8:	282ed7fa 	srli	r23,r5,31
 400e8ec:	3039883a 	mov	fp,r6
 400e8f0:	382d883a 	mov	r22,r7
 400e8f4:	2029883a 	mov	r20,r4
 400e8f8:	2c20703a 	and	r16,r5,r16
 400e8fc:	40006826 	beq	r8,zero,400eaa0 <__divdf3+0x1f4>
 400e900:	4081ffe0 	cmpeqi	r2,r8,2047
 400e904:	1000791e 	bne	r2,zero,400eaec <__divdf3+0x240>
 400e908:	2026d77a 	srli	r19,r4,29
 400e90c:	800a90fa 	slli	r5,r16,3
 400e910:	202890fa 	slli	r20,r4,3
 400e914:	44bf0044 	addi	r18,r8,-1023
 400e918:	994ab03a 	or	r5,r19,r5
 400e91c:	2cc02034 	orhi	r19,r5,128
 400e920:	0021883a 	mov	r16,zero
 400e924:	0023883a 	mov	r17,zero
 400e928:	b010d53a 	srli	r8,r22,20
 400e92c:	00c00434 	movhi	r3,16
 400e930:	18ffffc4 	addi	r3,r3,-1
 400e934:	4201ffcc 	andi	r8,r8,2047
 400e938:	b02ad7fa 	srli	r21,r22,31
 400e93c:	b0ec703a 	and	r22,r22,r3
 400e940:	40004626 	beq	r8,zero,400ea5c <__divdf3+0x1b0>
 400e944:	4081ffe0 	cmpeqi	r2,r8,2047
 400e948:	10006f1e 	bne	r2,zero,400eb08 <__divdf3+0x25c>
 400e94c:	b00690fa 	slli	r3,r22,3
 400e950:	e004d77a 	srli	r2,fp,29
 400e954:	e01290fa 	slli	r9,fp,3
 400e958:	423f0044 	addi	r8,r8,-1023
 400e95c:	10c6b03a 	or	r3,r2,r3
 400e960:	1d802034 	orhi	r22,r3,128
 400e964:	9225c83a 	sub	r18,r18,r8
 400e968:	0007883a 	mov	r3,zero
 400e96c:	80800428 	cmpgeui	r2,r16,16
 400e970:	bd4ef03a 	xor	r7,r23,r21
 400e974:	1000a71e 	bne	r2,zero,400ec14 <__divdf3+0x368>
 400e978:	800c90ba 	slli	r6,r16,2
 400e97c:	00810074 	movhi	r2,1025
 400e980:	3085883a 	add	r2,r6,r2
 400e984:	10ba6317 	ldw	r2,-5748(r2)
 400e988:	1000683a 	jmp	r2
 400e98c:	0400ec14 	movui	r16,944
 400e990:	0400ea38 	rdprs	r16,zero,936
 400e994:	0400e9e8 	cmpgeui	r16,zero,935
 400e998:	0400ea48 	cmpgei	r16,zero,937
 400e99c:	0400e9e8 	cmpgeui	r16,zero,935
 400e9a0:	0400ebb8 	rdprs	r16,zero,942
 400e9a4:	0400e9e8 	cmpgeui	r16,zero,935
 400e9a8:	0400ea48 	cmpgei	r16,zero,937
 400e9ac:	0400ea38 	rdprs	r16,zero,936
 400e9b0:	0400ea38 	rdprs	r16,zero,936
 400e9b4:	0400ebb8 	rdprs	r16,zero,942
 400e9b8:	0400ea48 	cmpgei	r16,zero,937
 400e9bc:	0400e9cc 	andi	r16,zero,935
 400e9c0:	0400e9cc 	andi	r16,zero,935
 400e9c4:	0400e9cc 	andi	r16,zero,935
 400e9c8:	0400ebd0 	cmplti	r16,zero,943
 400e9cc:	b80f883a 	mov	r7,r23
 400e9d0:	888000a0 	cmpeqi	r2,r17,2
 400e9d4:	1000181e 	bne	r2,zero,400ea38 <__divdf3+0x18c>
 400e9d8:	888000e0 	cmpeqi	r2,r17,3
 400e9dc:	1001f61e 	bne	r2,zero,400f1b8 <__divdf3+0x90c>
 400e9e0:	88800060 	cmpeqi	r2,r17,1
 400e9e4:	10006126 	beq	r2,zero,400eb6c <__divdf3+0x2c0>
 400e9e8:	0007883a 	mov	r3,zero
 400e9ec:	000b883a 	mov	r5,zero
 400e9f0:	0029883a 	mov	r20,zero
 400e9f4:	1806953a 	slli	r3,r3,20
 400e9f8:	380e97fa 	slli	r7,r7,31
 400e9fc:	a005883a 	mov	r2,r20
 400ea00:	1946b03a 	or	r3,r3,r5
 400ea04:	19c6b03a 	or	r3,r3,r7
 400ea08:	dfc00f17 	ldw	ra,60(sp)
 400ea0c:	df000e17 	ldw	fp,56(sp)
 400ea10:	ddc00d17 	ldw	r23,52(sp)
 400ea14:	dd800c17 	ldw	r22,48(sp)
 400ea18:	dd400b17 	ldw	r21,44(sp)
 400ea1c:	dd000a17 	ldw	r20,40(sp)
 400ea20:	dcc00917 	ldw	r19,36(sp)
 400ea24:	dc800817 	ldw	r18,32(sp)
 400ea28:	dc400717 	ldw	r17,28(sp)
 400ea2c:	dc000617 	ldw	r16,24(sp)
 400ea30:	dec01004 	addi	sp,sp,64
 400ea34:	f800283a 	ret
 400ea38:	00c1ffc4 	movi	r3,2047
 400ea3c:	000b883a 	mov	r5,zero
 400ea40:	0029883a 	mov	r20,zero
 400ea44:	003feb06 	br	400e9f4 <__divdf3+0x148>
 400ea48:	a80f883a 	mov	r7,r21
 400ea4c:	b027883a 	mov	r19,r22
 400ea50:	4829883a 	mov	r20,r9
 400ea54:	1823883a 	mov	r17,r3
 400ea58:	003fdd06 	br	400e9d0 <__divdf3+0x124>
 400ea5c:	b712b03a 	or	r9,r22,fp
 400ea60:	48003e26 	beq	r9,zero,400eb5c <__divdf3+0x2b0>
 400ea64:	b0017726 	beq	r22,zero,400f044 <__divdf3+0x798>
 400ea68:	b009883a 	mov	r4,r22
 400ea6c:	40025880 	call	4002588 <__clzsi2>
 400ea70:	117ffd44 	addi	r5,r2,-11
 400ea74:	01000744 	movi	r4,29
 400ea78:	127ffe04 	addi	r9,r2,-8
 400ea7c:	2149c83a 	sub	r4,r4,r5
 400ea80:	b246983a 	sll	r3,r22,r9
 400ea84:	e108d83a 	srl	r4,fp,r4
 400ea88:	e252983a 	sll	r9,fp,r9
 400ea8c:	20ecb03a 	or	r22,r4,r3
 400ea90:	1491883a 	add	r8,r2,r18
 400ea94:	4480fcc4 	addi	r18,r8,1011
 400ea98:	0007883a 	mov	r3,zero
 400ea9c:	003fb306 	br	400e96c <__divdf3+0xc0>
 400eaa0:	8126b03a 	or	r19,r16,r4
 400eaa4:	2023883a 	mov	r17,r4
 400eaa8:	98002726 	beq	r19,zero,400eb48 <__divdf3+0x29c>
 400eaac:	80017026 	beq	r16,zero,400f070 <__divdf3+0x7c4>
 400eab0:	8009883a 	mov	r4,r16
 400eab4:	40025880 	call	4002588 <__clzsi2>
 400eab8:	113ffd44 	addi	r4,r2,-11
 400eabc:	00c00744 	movi	r3,29
 400eac0:	14fffe04 	addi	r19,r2,-8
 400eac4:	1907c83a 	sub	r3,r3,r4
 400eac8:	84ca983a 	sll	r5,r16,r19
 400eacc:	88c6d83a 	srl	r3,r17,r3
 400ead0:	8ce8983a 	sll	r20,r17,r19
 400ead4:	1966b03a 	or	r19,r3,r5
 400ead8:	023f0344 	movi	r8,-1011
 400eadc:	40a5c83a 	sub	r18,r8,r2
 400eae0:	0021883a 	mov	r16,zero
 400eae4:	0023883a 	mov	r17,zero
 400eae8:	003f8f06 	br	400e928 <__divdf3+0x7c>
 400eaec:	8126b03a 	or	r19,r16,r4
 400eaf0:	9800101e 	bne	r19,zero,400eb34 <__divdf3+0x288>
 400eaf4:	0029883a 	mov	r20,zero
 400eaf8:	04000204 	movi	r16,8
 400eafc:	0481ffc4 	movi	r18,2047
 400eb00:	04400084 	movi	r17,2
 400eb04:	003f8806 	br	400e928 <__divdf3+0x7c>
 400eb08:	b712b03a 	or	r9,r22,fp
 400eb0c:	94be0044 	addi	r18,r18,-2047
 400eb10:	4800041e 	bne	r9,zero,400eb24 <__divdf3+0x278>
 400eb14:	84000094 	ori	r16,r16,2
 400eb18:	002d883a 	mov	r22,zero
 400eb1c:	00c00084 	movi	r3,2
 400eb20:	003f9206 	br	400e96c <__divdf3+0xc0>
 400eb24:	840000d4 	ori	r16,r16,3
 400eb28:	e013883a 	mov	r9,fp
 400eb2c:	00c000c4 	movi	r3,3
 400eb30:	003f8e06 	br	400e96c <__divdf3+0xc0>
 400eb34:	8027883a 	mov	r19,r16
 400eb38:	0481ffc4 	movi	r18,2047
 400eb3c:	04000304 	movi	r16,12
 400eb40:	044000c4 	movi	r17,3
 400eb44:	003f7806 	br	400e928 <__divdf3+0x7c>
 400eb48:	0029883a 	mov	r20,zero
 400eb4c:	04000104 	movi	r16,4
 400eb50:	0025883a 	mov	r18,zero
 400eb54:	04400044 	movi	r17,1
 400eb58:	003f7306 	br	400e928 <__divdf3+0x7c>
 400eb5c:	84000054 	ori	r16,r16,1
 400eb60:	002d883a 	mov	r22,zero
 400eb64:	00c00044 	movi	r3,1
 400eb68:	003f8006 	br	400e96c <__divdf3+0xc0>
 400eb6c:	9440ffc4 	addi	r17,r18,1023
 400eb70:	0441050e 	bge	zero,r17,400ef88 <__divdf3+0x6dc>
 400eb74:	a08001cc 	andi	r2,r20,7
 400eb78:	10016c1e 	bne	r2,zero,400f12c <__divdf3+0x880>
 400eb7c:	a008d0fa 	srli	r4,r20,3
 400eb80:	9880402c 	andhi	r2,r19,256
 400eb84:	10000426 	beq	r2,zero,400eb98 <__divdf3+0x2ec>
 400eb88:	00bfc034 	movhi	r2,65280
 400eb8c:	10bfffc4 	addi	r2,r2,-1
 400eb90:	98a6703a 	and	r19,r19,r2
 400eb94:	94410004 	addi	r17,r18,1024
 400eb98:	8881ffc8 	cmpgei	r2,r17,2047
 400eb9c:	103fa61e 	bne	r2,zero,400ea38 <__divdf3+0x18c>
 400eba0:	9828977a 	slli	r20,r19,29
 400eba4:	980a927a 	slli	r5,r19,9
 400eba8:	88c1ffcc 	andi	r3,r17,2047
 400ebac:	a128b03a 	or	r20,r20,r4
 400ebb0:	280ad33a 	srli	r5,r5,12
 400ebb4:	003f8f06 	br	400e9f4 <__divdf3+0x148>
 400ebb8:	01400434 	movhi	r5,16
 400ebbc:	000f883a 	mov	r7,zero
 400ebc0:	297fffc4 	addi	r5,r5,-1
 400ebc4:	053fffc4 	movi	r20,-1
 400ebc8:	00c1ffc4 	movi	r3,2047
 400ebcc:	003f8906 	br	400e9f4 <__divdf3+0x148>
 400ebd0:	9880022c 	andhi	r2,r19,8
 400ebd4:	10000926 	beq	r2,zero,400ebfc <__divdf3+0x350>
 400ebd8:	b080022c 	andhi	r2,r22,8
 400ebdc:	1000071e 	bne	r2,zero,400ebfc <__divdf3+0x350>
 400ebe0:	00800434 	movhi	r2,16
 400ebe4:	b1400234 	orhi	r5,r22,8
 400ebe8:	10bfffc4 	addi	r2,r2,-1
 400ebec:	288a703a 	and	r5,r5,r2
 400ebf0:	a80f883a 	mov	r7,r21
 400ebf4:	4829883a 	mov	r20,r9
 400ebf8:	003ff306 	br	400ebc8 <__divdf3+0x31c>
 400ebfc:	00800434 	movhi	r2,16
 400ec00:	99400234 	orhi	r5,r19,8
 400ec04:	10bfffc4 	addi	r2,r2,-1
 400ec08:	288a703a 	and	r5,r5,r2
 400ec0c:	b80f883a 	mov	r7,r23
 400ec10:	003fed06 	br	400ebc8 <__divdf3+0x31c>
 400ec14:	b4c10536 	bltu	r22,r19,400f02c <__divdf3+0x780>
 400ec18:	b4c10326 	beq	r22,r19,400f028 <__divdf3+0x77c>
 400ec1c:	94bfffc4 	addi	r18,r18,-1
 400ec20:	a039883a 	mov	fp,r20
 400ec24:	9821883a 	mov	r16,r19
 400ec28:	0023883a 	mov	r17,zero
 400ec2c:	b006923a 	slli	r3,r22,8
 400ec30:	482cd63a 	srli	r22,r9,24
 400ec34:	8009883a 	mov	r4,r16
 400ec38:	182ed43a 	srli	r23,r3,16
 400ec3c:	b0ecb03a 	or	r22,r22,r3
 400ec40:	d9c00015 	stw	r7,0(sp)
 400ec44:	b80b883a 	mov	r5,r23
 400ec48:	482a923a 	slli	r21,r9,8
 400ec4c:	b53fffcc 	andi	r20,r22,65535
 400ec50:	4001d640 	call	4001d64 <__udivsi3>
 400ec54:	100b883a 	mov	r5,r2
 400ec58:	a009883a 	mov	r4,r20
 400ec5c:	1027883a 	mov	r19,r2
 400ec60:	4001e240 	call	4001e24 <__mulsi3>
 400ec64:	8009883a 	mov	r4,r16
 400ec68:	b80b883a 	mov	r5,r23
 400ec6c:	1021883a 	mov	r16,r2
 400ec70:	4001dc80 	call	4001dc8 <__umodsi3>
 400ec74:	1004943a 	slli	r2,r2,16
 400ec78:	e008d43a 	srli	r4,fp,16
 400ec7c:	d9c00017 	ldw	r7,0(sp)
 400ec80:	2088b03a 	or	r4,r4,r2
 400ec84:	2400042e 	bgeu	r4,r16,400ec98 <__divdf3+0x3ec>
 400ec88:	2589883a 	add	r4,r4,r22
 400ec8c:	98bfffc4 	addi	r2,r19,-1
 400ec90:	2581082e 	bgeu	r4,r22,400f0b4 <__divdf3+0x808>
 400ec94:	1027883a 	mov	r19,r2
 400ec98:	2421c83a 	sub	r16,r4,r16
 400ec9c:	b80b883a 	mov	r5,r23
 400eca0:	8009883a 	mov	r4,r16
 400eca4:	d9c00215 	stw	r7,8(sp)
 400eca8:	4001d640 	call	4001d64 <__udivsi3>
 400ecac:	100b883a 	mov	r5,r2
 400ecb0:	a009883a 	mov	r4,r20
 400ecb4:	d8800115 	stw	r2,4(sp)
 400ecb8:	4001e240 	call	4001e24 <__mulsi3>
 400ecbc:	b80b883a 	mov	r5,r23
 400ecc0:	8009883a 	mov	r4,r16
 400ecc4:	d8800015 	stw	r2,0(sp)
 400ecc8:	4001dc80 	call	4001dc8 <__umodsi3>
 400eccc:	100c943a 	slli	r6,r2,16
 400ecd0:	d8c00017 	ldw	r3,0(sp)
 400ecd4:	e73fffcc 	andi	fp,fp,65535
 400ecd8:	e18cb03a 	or	r6,fp,r6
 400ecdc:	da000117 	ldw	r8,4(sp)
 400ece0:	d9c00217 	ldw	r7,8(sp)
 400ece4:	30c0042e 	bgeu	r6,r3,400ecf8 <__divdf3+0x44c>
 400ece8:	358d883a 	add	r6,r6,r22
 400ecec:	40bfffc4 	addi	r2,r8,-1
 400ecf0:	3580ec2e 	bgeu	r6,r22,400f0a4 <__divdf3+0x7f8>
 400ecf4:	1011883a 	mov	r8,r2
 400ecf8:	9826943a 	slli	r19,r19,16
 400ecfc:	af3fffcc 	andi	fp,r21,65535
 400ed00:	30c7c83a 	sub	r3,r6,r3
 400ed04:	9a26b03a 	or	r19,r19,r8
 400ed08:	9810d43a 	srli	r8,r19,16
 400ed0c:	9abfffcc 	andi	r10,r19,65535
 400ed10:	5009883a 	mov	r4,r10
 400ed14:	e00b883a 	mov	r5,fp
 400ed18:	d9c00515 	stw	r7,20(sp)
 400ed1c:	d8c00315 	stw	r3,12(sp)
 400ed20:	da800415 	stw	r10,16(sp)
 400ed24:	da000015 	stw	r8,0(sp)
 400ed28:	4001e240 	call	4001e24 <__mulsi3>
 400ed2c:	da000017 	ldw	r8,0(sp)
 400ed30:	e00b883a 	mov	r5,fp
 400ed34:	d8800215 	stw	r2,8(sp)
 400ed38:	4009883a 	mov	r4,r8
 400ed3c:	4001e240 	call	4001e24 <__mulsi3>
 400ed40:	da000017 	ldw	r8,0(sp)
 400ed44:	a820d43a 	srli	r16,r21,16
 400ed48:	d8800115 	stw	r2,4(sp)
 400ed4c:	4009883a 	mov	r4,r8
 400ed50:	800b883a 	mov	r5,r16
 400ed54:	4001e240 	call	4001e24 <__mulsi3>
 400ed58:	da800417 	ldw	r10,16(sp)
 400ed5c:	8009883a 	mov	r4,r16
 400ed60:	d8800015 	stw	r2,0(sp)
 400ed64:	500b883a 	mov	r5,r10
 400ed68:	4001e240 	call	4001e24 <__mulsi3>
 400ed6c:	d9800217 	ldw	r6,8(sp)
 400ed70:	da000117 	ldw	r8,4(sp)
 400ed74:	da400017 	ldw	r9,0(sp)
 400ed78:	3008d43a 	srli	r4,r6,16
 400ed7c:	1205883a 	add	r2,r2,r8
 400ed80:	d8c00317 	ldw	r3,12(sp)
 400ed84:	2089883a 	add	r4,r4,r2
 400ed88:	d9c00517 	ldw	r7,20(sp)
 400ed8c:	2200022e 	bgeu	r4,r8,400ed98 <__divdf3+0x4ec>
 400ed90:	00800074 	movhi	r2,1
 400ed94:	4893883a 	add	r9,r9,r2
 400ed98:	200ad43a 	srli	r5,r4,16
 400ed9c:	2008943a 	slli	r4,r4,16
 400eda0:	31bfffcc 	andi	r6,r6,65535
 400eda4:	2a4b883a 	add	r5,r5,r9
 400eda8:	218d883a 	add	r6,r4,r6
 400edac:	19409436 	bltu	r3,r5,400f000 <__divdf3+0x754>
 400edb0:	19409226 	beq	r3,r5,400effc <__divdf3+0x750>
 400edb4:	898dc83a 	sub	r6,r17,r6
 400edb8:	89a3803a 	cmpltu	r17,r17,r6
 400edbc:	1947c83a 	sub	r3,r3,r5
 400edc0:	1c47c83a 	sub	r3,r3,r17
 400edc4:	9440ffc4 	addi	r17,r18,1023
 400edc8:	b0c0d326 	beq	r22,r3,400f118 <__divdf3+0x86c>
 400edcc:	1809883a 	mov	r4,r3
 400edd0:	b80b883a 	mov	r5,r23
 400edd4:	d9800315 	stw	r6,12(sp)
 400edd8:	d9c00215 	stw	r7,8(sp)
 400eddc:	d8c00015 	stw	r3,0(sp)
 400ede0:	4001d640 	call	4001d64 <__udivsi3>
 400ede4:	100b883a 	mov	r5,r2
 400ede8:	a009883a 	mov	r4,r20
 400edec:	d8800115 	stw	r2,4(sp)
 400edf0:	4001e240 	call	4001e24 <__mulsi3>
 400edf4:	d8c00017 	ldw	r3,0(sp)
 400edf8:	b80b883a 	mov	r5,r23
 400edfc:	d8800015 	stw	r2,0(sp)
 400ee00:	1809883a 	mov	r4,r3
 400ee04:	4001dc80 	call	4001dc8 <__umodsi3>
 400ee08:	d9800317 	ldw	r6,12(sp)
 400ee0c:	1006943a 	slli	r3,r2,16
 400ee10:	da400017 	ldw	r9,0(sp)
 400ee14:	3008d43a 	srli	r4,r6,16
 400ee18:	da000117 	ldw	r8,4(sp)
 400ee1c:	d9c00217 	ldw	r7,8(sp)
 400ee20:	20c6b03a 	or	r3,r4,r3
 400ee24:	1a40062e 	bgeu	r3,r9,400ee40 <__divdf3+0x594>
 400ee28:	1d87883a 	add	r3,r3,r22
 400ee2c:	40bfffc4 	addi	r2,r8,-1
 400ee30:	1d80c836 	bltu	r3,r22,400f154 <__divdf3+0x8a8>
 400ee34:	1a40c72e 	bgeu	r3,r9,400f154 <__divdf3+0x8a8>
 400ee38:	423fff84 	addi	r8,r8,-2
 400ee3c:	1d87883a 	add	r3,r3,r22
 400ee40:	1a47c83a 	sub	r3,r3,r9
 400ee44:	1809883a 	mov	r4,r3
 400ee48:	b80b883a 	mov	r5,r23
 400ee4c:	d9800415 	stw	r6,16(sp)
 400ee50:	d9c00315 	stw	r7,12(sp)
 400ee54:	da000215 	stw	r8,8(sp)
 400ee58:	d8c00115 	stw	r3,4(sp)
 400ee5c:	4001d640 	call	4001d64 <__udivsi3>
 400ee60:	100b883a 	mov	r5,r2
 400ee64:	a009883a 	mov	r4,r20
 400ee68:	d8800015 	stw	r2,0(sp)
 400ee6c:	4001e240 	call	4001e24 <__mulsi3>
 400ee70:	d8c00117 	ldw	r3,4(sp)
 400ee74:	b80b883a 	mov	r5,r23
 400ee78:	102f883a 	mov	r23,r2
 400ee7c:	1809883a 	mov	r4,r3
 400ee80:	4001dc80 	call	4001dc8 <__umodsi3>
 400ee84:	d9800417 	ldw	r6,16(sp)
 400ee88:	1004943a 	slli	r2,r2,16
 400ee8c:	da400017 	ldw	r9,0(sp)
 400ee90:	31bfffcc 	andi	r6,r6,65535
 400ee94:	308cb03a 	or	r6,r6,r2
 400ee98:	da000217 	ldw	r8,8(sp)
 400ee9c:	d9c00317 	ldw	r7,12(sp)
 400eea0:	35c0062e 	bgeu	r6,r23,400eebc <__divdf3+0x610>
 400eea4:	358d883a 	add	r6,r6,r22
 400eea8:	48bfffc4 	addi	r2,r9,-1
 400eeac:	3580a736 	bltu	r6,r22,400f14c <__divdf3+0x8a0>
 400eeb0:	35c0a62e 	bgeu	r6,r23,400f14c <__divdf3+0x8a0>
 400eeb4:	4a7fff84 	addi	r9,r9,-2
 400eeb8:	358d883a 	add	r6,r6,r22
 400eebc:	4028943a 	slli	r20,r8,16
 400eec0:	35d5c83a 	sub	r10,r6,r23
 400eec4:	e009883a 	mov	r4,fp
 400eec8:	a268b03a 	or	r20,r20,r9
 400eecc:	a23fffcc 	andi	r8,r20,65535
 400eed0:	a02ed43a 	srli	r23,r20,16
 400eed4:	400b883a 	mov	r5,r8
 400eed8:	d9c00315 	stw	r7,12(sp)
 400eedc:	da800215 	stw	r10,8(sp)
 400eee0:	da000115 	stw	r8,4(sp)
 400eee4:	4001e240 	call	4001e24 <__mulsi3>
 400eee8:	e00b883a 	mov	r5,fp
 400eeec:	b809883a 	mov	r4,r23
 400eef0:	1039883a 	mov	fp,r2
 400eef4:	4001e240 	call	4001e24 <__mulsi3>
 400eef8:	8009883a 	mov	r4,r16
 400eefc:	b80b883a 	mov	r5,r23
 400ef00:	d8800015 	stw	r2,0(sp)
 400ef04:	4001e240 	call	4001e24 <__mulsi3>
 400ef08:	da000117 	ldw	r8,4(sp)
 400ef0c:	8009883a 	mov	r4,r16
 400ef10:	1021883a 	mov	r16,r2
 400ef14:	400b883a 	mov	r5,r8
 400ef18:	4001e240 	call	4001e24 <__mulsi3>
 400ef1c:	d9800017 	ldw	r6,0(sp)
 400ef20:	e006d43a 	srli	r3,fp,16
 400ef24:	da800217 	ldw	r10,8(sp)
 400ef28:	1185883a 	add	r2,r2,r6
 400ef2c:	1887883a 	add	r3,r3,r2
 400ef30:	d9c00317 	ldw	r7,12(sp)
 400ef34:	1980022e 	bgeu	r3,r6,400ef40 <__divdf3+0x694>
 400ef38:	00800074 	movhi	r2,1
 400ef3c:	80a1883a 	add	r16,r16,r2
 400ef40:	1808d43a 	srli	r4,r3,16
 400ef44:	1806943a 	slli	r3,r3,16
 400ef48:	e73fffcc 	andi	fp,fp,65535
 400ef4c:	2409883a 	add	r4,r4,r16
 400ef50:	1f07883a 	add	r3,r3,fp
 400ef54:	51000436 	bltu	r10,r4,400ef68 <__divdf3+0x6bc>
 400ef58:	51000226 	beq	r10,r4,400ef64 <__divdf3+0x6b8>
 400ef5c:	a5000054 	ori	r20,r20,1
 400ef60:	003f0306 	br	400eb70 <__divdf3+0x2c4>
 400ef64:	183f0226 	beq	r3,zero,400eb70 <__divdf3+0x2c4>
 400ef68:	b28d883a 	add	r6,r22,r10
 400ef6c:	a0bfffc4 	addi	r2,r20,-1
 400ef70:	35806536 	bltu	r6,r22,400f108 <__divdf3+0x85c>
 400ef74:	31008036 	bltu	r6,r4,400f178 <__divdf3+0x8cc>
 400ef78:	31009426 	beq	r6,r4,400f1cc <__divdf3+0x920>
 400ef7c:	1029883a 	mov	r20,r2
 400ef80:	003ff606 	br	400ef5c <__divdf3+0x6b0>
 400ef84:	053fffc4 	movi	r20,-1
 400ef88:	01400044 	movi	r5,1
 400ef8c:	2c4bc83a 	sub	r5,r5,r17
 400ef90:	28800e48 	cmpgei	r2,r5,57
 400ef94:	103e941e 	bne	r2,zero,400e9e8 <__divdf3+0x13c>
 400ef98:	28800808 	cmpgei	r2,r5,32
 400ef9c:	1000491e 	bne	r2,zero,400f0c4 <__divdf3+0x818>
 400efa0:	92010784 	addi	r8,r18,1054
 400efa4:	9a04983a 	sll	r2,r19,r8
 400efa8:	a146d83a 	srl	r3,r20,r5
 400efac:	a210983a 	sll	r8,r20,r8
 400efb0:	994ad83a 	srl	r5,r19,r5
 400efb4:	10e8b03a 	or	r20,r2,r3
 400efb8:	4010c03a 	cmpne	r8,r8,zero
 400efbc:	a228b03a 	or	r20,r20,r8
 400efc0:	a08001cc 	andi	r2,r20,7
 400efc4:	10000726 	beq	r2,zero,400efe4 <__divdf3+0x738>
 400efc8:	a08003cc 	andi	r2,r20,15
 400efcc:	10800120 	cmpeqi	r2,r2,4
 400efd0:	1000041e 	bne	r2,zero,400efe4 <__divdf3+0x738>
 400efd4:	a0800104 	addi	r2,r20,4
 400efd8:	1529803a 	cmpltu	r20,r2,r20
 400efdc:	2d0b883a 	add	r5,r5,r20
 400efe0:	1029883a 	mov	r20,r2
 400efe4:	2880202c 	andhi	r2,r5,128
 400efe8:	10006f26 	beq	r2,zero,400f1a8 <__divdf3+0x8fc>
 400efec:	00c00044 	movi	r3,1
 400eff0:	000b883a 	mov	r5,zero
 400eff4:	0029883a 	mov	r20,zero
 400eff8:	003e7e06 	br	400e9f4 <__divdf3+0x148>
 400effc:	89bf6d2e 	bgeu	r17,r6,400edb4 <__divdf3+0x508>
 400f000:	8d63883a 	add	r17,r17,r21
 400f004:	8d45803a 	cmpltu	r2,r17,r21
 400f008:	1585883a 	add	r2,r2,r22
 400f00c:	1887883a 	add	r3,r3,r2
 400f010:	98bfffc4 	addi	r2,r19,-1
 400f014:	b0c0202e 	bgeu	r22,r3,400f098 <__divdf3+0x7ec>
 400f018:	19405136 	bltu	r3,r5,400f160 <__divdf3+0x8b4>
 400f01c:	28c04f26 	beq	r5,r3,400f15c <__divdf3+0x8b0>
 400f020:	1027883a 	mov	r19,r2
 400f024:	003f6306 	br	400edb4 <__divdf3+0x508>
 400f028:	a27efc36 	bltu	r20,r9,400ec1c <__divdf3+0x370>
 400f02c:	983897fa 	slli	fp,r19,31
 400f030:	a004d07a 	srli	r2,r20,1
 400f034:	9820d07a 	srli	r16,r19,1
 400f038:	a02297fa 	slli	r17,r20,31
 400f03c:	e0b8b03a 	or	fp,fp,r2
 400f040:	003efa06 	br	400ec2c <__divdf3+0x380>
 400f044:	e009883a 	mov	r4,fp
 400f048:	40025880 	call	4002588 <__clzsi2>
 400f04c:	11400544 	addi	r5,r2,21
 400f050:	29000748 	cmpgei	r4,r5,29
 400f054:	1007883a 	mov	r3,r2
 400f058:	10800804 	addi	r2,r2,32
 400f05c:	203e8526 	beq	r4,zero,400ea74 <__divdf3+0x1c8>
 400f060:	18fffe04 	addi	r3,r3,-8
 400f064:	e0ec983a 	sll	r22,fp,r3
 400f068:	0013883a 	mov	r9,zero
 400f06c:	003e8806 	br	400ea90 <__divdf3+0x1e4>
 400f070:	40025880 	call	4002588 <__clzsi2>
 400f074:	11000544 	addi	r4,r2,21
 400f078:	20c00748 	cmpgei	r3,r4,29
 400f07c:	100b883a 	mov	r5,r2
 400f080:	10800804 	addi	r2,r2,32
 400f084:	183e8d26 	beq	r3,zero,400eabc <__divdf3+0x210>
 400f088:	297ffe04 	addi	r5,r5,-8
 400f08c:	a166983a 	sll	r19,r20,r5
 400f090:	0029883a 	mov	r20,zero
 400f094:	003e9006 	br	400ead8 <__divdf3+0x22c>
 400f098:	b0ffe11e 	bne	r22,r3,400f020 <__divdf3+0x774>
 400f09c:	8d7fe036 	bltu	r17,r21,400f020 <__divdf3+0x774>
 400f0a0:	003fdd06 	br	400f018 <__divdf3+0x76c>
 400f0a4:	30ff132e 	bgeu	r6,r3,400ecf4 <__divdf3+0x448>
 400f0a8:	423fff84 	addi	r8,r8,-2
 400f0ac:	358d883a 	add	r6,r6,r22
 400f0b0:	003f1106 	br	400ecf8 <__divdf3+0x44c>
 400f0b4:	243ef72e 	bgeu	r4,r16,400ec94 <__divdf3+0x3e8>
 400f0b8:	9cffff84 	addi	r19,r19,-2
 400f0bc:	2589883a 	add	r4,r4,r22
 400f0c0:	003ef506 	br	400ec98 <__divdf3+0x3ec>
 400f0c4:	00fff844 	movi	r3,-31
 400f0c8:	1c47c83a 	sub	r3,r3,r17
 400f0cc:	29400820 	cmpeqi	r5,r5,32
 400f0d0:	98c6d83a 	srl	r3,r19,r3
 400f0d4:	2800031e 	bne	r5,zero,400f0e4 <__divdf3+0x838>
 400f0d8:	91410f84 	addi	r5,r18,1086
 400f0dc:	994a983a 	sll	r5,r19,r5
 400f0e0:	a168b03a 	or	r20,r20,r5
 400f0e4:	a028c03a 	cmpne	r20,r20,zero
 400f0e8:	a0e8b03a 	or	r20,r20,r3
 400f0ec:	a4c001cc 	andi	r19,r20,7
 400f0f0:	9800291e 	bne	r19,zero,400f198 <__divdf3+0x8ec>
 400f0f4:	000b883a 	mov	r5,zero
 400f0f8:	a028d0fa 	srli	r20,r20,3
 400f0fc:	0007883a 	mov	r3,zero
 400f100:	a4e8b03a 	or	r20,r20,r19
 400f104:	003e3b06 	br	400e9f4 <__divdf3+0x148>
 400f108:	1029883a 	mov	r20,r2
 400f10c:	313f931e 	bne	r6,r4,400ef5c <__divdf3+0x6b0>
 400f110:	1d7f921e 	bne	r3,r21,400ef5c <__divdf3+0x6b0>
 400f114:	003e9606 	br	400eb70 <__divdf3+0x2c4>
 400f118:	047f9a0e 	bge	zero,r17,400ef84 <__divdf3+0x6d8>
 400f11c:	0009883a 	mov	r4,zero
 400f120:	05000044 	movi	r20,1
 400f124:	9d27883a 	add	r19,r19,r20
 400f128:	003e9506 	br	400eb80 <__divdf3+0x2d4>
 400f12c:	a08003cc 	andi	r2,r20,15
 400f130:	10800118 	cmpnei	r2,r2,4
 400f134:	103e9126 	beq	r2,zero,400eb7c <__divdf3+0x2d0>
 400f138:	a1000104 	addi	r4,r20,4
 400f13c:	00bffec4 	movi	r2,-5
 400f140:	2008d0fa 	srli	r4,r4,3
 400f144:	1529803a 	cmpltu	r20,r2,r20
 400f148:	003ff606 	br	400f124 <__divdf3+0x878>
 400f14c:	1013883a 	mov	r9,r2
 400f150:	003f5a06 	br	400eebc <__divdf3+0x610>
 400f154:	1011883a 	mov	r8,r2
 400f158:	003f3906 	br	400ee40 <__divdf3+0x594>
 400f15c:	89bfb02e 	bgeu	r17,r6,400f020 <__divdf3+0x774>
 400f160:	8d63883a 	add	r17,r17,r21
 400f164:	8d45803a 	cmpltu	r2,r17,r21
 400f168:	1585883a 	add	r2,r2,r22
 400f16c:	9cffff84 	addi	r19,r19,-2
 400f170:	1887883a 	add	r3,r3,r2
 400f174:	003f0f06 	br	400edb4 <__divdf3+0x508>
 400f178:	ad45883a 	add	r2,r21,r21
 400f17c:	156b803a 	cmpltu	r21,r2,r21
 400f180:	adad883a 	add	r22,r21,r22
 400f184:	358d883a 	add	r6,r6,r22
 400f188:	a53fff84 	addi	r20,r20,-2
 400f18c:	102b883a 	mov	r21,r2
 400f190:	313fdf26 	beq	r6,r4,400f110 <__divdf3+0x864>
 400f194:	003f7106 	br	400ef5c <__divdf3+0x6b0>
 400f198:	a08003cc 	andi	r2,r20,15
 400f19c:	10800118 	cmpnei	r2,r2,4
 400f1a0:	000b883a 	mov	r5,zero
 400f1a4:	103f8b1e 	bne	r2,zero,400efd4 <__divdf3+0x728>
 400f1a8:	2804927a 	slli	r2,r5,9
 400f1ac:	2826977a 	slli	r19,r5,29
 400f1b0:	100ad33a 	srli	r5,r2,12
 400f1b4:	003fd006 	br	400f0f8 <__divdf3+0x84c>
 400f1b8:	00800434 	movhi	r2,16
 400f1bc:	99400234 	orhi	r5,r19,8
 400f1c0:	10bfffc4 	addi	r2,r2,-1
 400f1c4:	288a703a 	and	r5,r5,r2
 400f1c8:	003e7f06 	br	400ebc8 <__divdf3+0x31c>
 400f1cc:	a8ffea36 	bltu	r21,r3,400f178 <__divdf3+0x8cc>
 400f1d0:	1029883a 	mov	r20,r2
 400f1d4:	1d7f611e 	bne	r3,r21,400ef5c <__divdf3+0x6b0>
 400f1d8:	003e6506 	br	400eb70 <__divdf3+0x2c4>

0400f1dc <__eqdf2>:
 400f1dc:	2810d53a 	srli	r8,r5,20
 400f1e0:	3806d53a 	srli	r3,r7,20
 400f1e4:	00800434 	movhi	r2,16
 400f1e8:	4201ffcc 	andi	r8,r8,2047
 400f1ec:	10bfffc4 	addi	r2,r2,-1
 400f1f0:	4241ffd8 	cmpnei	r9,r8,2047
 400f1f4:	2814d7fa 	srli	r10,r5,31
 400f1f8:	3816d7fa 	srli	r11,r7,31
 400f1fc:	288a703a 	and	r5,r5,r2
 400f200:	388e703a 	and	r7,r7,r2
 400f204:	1881ffcc 	andi	r2,r3,2047
 400f208:	48000626 	beq	r9,zero,400f224 <__eqdf2+0x48>
 400f20c:	10c1ffe0 	cmpeqi	r3,r2,2047
 400f210:	1800021e 	bne	r3,zero,400f21c <__eqdf2+0x40>
 400f214:	4080011e 	bne	r8,r2,400f21c <__eqdf2+0x40>
 400f218:	29c00826 	beq	r5,r7,400f23c <__eqdf2+0x60>
 400f21c:	00800044 	movi	r2,1
 400f220:	f800283a 	ret
 400f224:	2906b03a 	or	r3,r5,r4
 400f228:	183ffc1e 	bne	r3,zero,400f21c <__eqdf2+0x40>
 400f22c:	1081ffd8 	cmpnei	r2,r2,2047
 400f230:	103ffa1e 	bne	r2,zero,400f21c <__eqdf2+0x40>
 400f234:	398eb03a 	or	r7,r7,r6
 400f238:	383ff81e 	bne	r7,zero,400f21c <__eqdf2+0x40>
 400f23c:	21bff71e 	bne	r4,r6,400f21c <__eqdf2+0x40>
 400f240:	52c00426 	beq	r10,r11,400f254 <__eqdf2+0x78>
 400f244:	403ff51e 	bne	r8,zero,400f21c <__eqdf2+0x40>
 400f248:	290ab03a 	or	r5,r5,r4
 400f24c:	2804c03a 	cmpne	r2,r5,zero
 400f250:	f800283a 	ret
 400f254:	0005883a 	mov	r2,zero
 400f258:	f800283a 	ret

0400f25c <__gedf2>:
 400f25c:	2810d53a 	srli	r8,r5,20
 400f260:	3812d53a 	srli	r9,r7,20
 400f264:	00c00434 	movhi	r3,16
 400f268:	4201ffcc 	andi	r8,r8,2047
 400f26c:	18ffffc4 	addi	r3,r3,-1
 400f270:	4281ffd8 	cmpnei	r10,r8,2047
 400f274:	2816d7fa 	srli	r11,r5,31
 400f278:	3804d7fa 	srli	r2,r7,31
 400f27c:	28ca703a 	and	r5,r5,r3
 400f280:	38ce703a 	and	r7,r7,r3
 400f284:	48c1ffcc 	andi	r3,r9,2047
 400f288:	50000a26 	beq	r10,zero,400f2b4 <__gedf2+0x58>
 400f28c:	1a41ffd8 	cmpnei	r9,r3,2047
 400f290:	48000c26 	beq	r9,zero,400f2c4 <__gedf2+0x68>
 400f294:	4000171e 	bne	r8,zero,400f2f4 <__gedf2+0x98>
 400f298:	2912b03a 	or	r9,r5,r4
 400f29c:	1800121e 	bne	r3,zero,400f2e8 <__gedf2+0x8c>
 400f2a0:	3994b03a 	or	r10,r7,r6
 400f2a4:	5000101e 	bne	r10,zero,400f2e8 <__gedf2+0x8c>
 400f2a8:	48000a1e 	bne	r9,zero,400f2d4 <__gedf2+0x78>
 400f2ac:	0005883a 	mov	r2,zero
 400f2b0:	f800283a 	ret
 400f2b4:	2912b03a 	or	r9,r5,r4
 400f2b8:	48001d1e 	bne	r9,zero,400f330 <__gedf2+0xd4>
 400f2bc:	1a41ffe0 	cmpeqi	r9,r3,2047
 400f2c0:	48000c26 	beq	r9,zero,400f2f4 <__gedf2+0x98>
 400f2c4:	3992b03a 	or	r9,r7,r6
 400f2c8:	4800191e 	bne	r9,zero,400f330 <__gedf2+0xd4>
 400f2cc:	40000526 	beq	r8,zero,400f2e4 <__gedf2+0x88>
 400f2d0:	58800c26 	beq	r11,r2,400f304 <__gedf2+0xa8>
 400f2d4:	00800044 	movi	r2,1
 400f2d8:	58000526 	beq	r11,zero,400f2f0 <__gedf2+0x94>
 400f2dc:	00bfffc4 	movi	r2,-1
 400f2e0:	f800283a 	ret
 400f2e4:	2912b03a 	or	r9,r5,r4
 400f2e8:	483ff91e 	bne	r9,zero,400f2d0 <__gedf2+0x74>
 400f2ec:	103ffb26 	beq	r2,zero,400f2dc <__gedf2+0x80>
 400f2f0:	f800283a 	ret
 400f2f4:	183ff61e 	bne	r3,zero,400f2d0 <__gedf2+0x74>
 400f2f8:	3992b03a 	or	r9,r7,r6
 400f2fc:	483ff41e 	bne	r9,zero,400f2d0 <__gedf2+0x74>
 400f300:	003ff406 	br	400f2d4 <__gedf2+0x78>
 400f304:	1a000716 	blt	r3,r8,400f324 <__gedf2+0xc8>
 400f308:	40fff816 	blt	r8,r3,400f2ec <__gedf2+0x90>
 400f30c:	397ff136 	bltu	r7,r5,400f2d4 <__gedf2+0x78>
 400f310:	29c00926 	beq	r5,r7,400f338 <__gedf2+0xdc>
 400f314:	29ffe52e 	bgeu	r5,r7,400f2ac <__gedf2+0x50>
 400f318:	583ff026 	beq	r11,zero,400f2dc <__gedf2+0x80>
 400f31c:	5805883a 	mov	r2,r11
 400f320:	f800283a 	ret
 400f324:	103fed1e 	bne	r2,zero,400f2dc <__gedf2+0x80>
 400f328:	00800044 	movi	r2,1
 400f32c:	f800283a 	ret
 400f330:	00bfff84 	movi	r2,-2
 400f334:	f800283a 	ret
 400f338:	313fe636 	bltu	r6,r4,400f2d4 <__gedf2+0x78>
 400f33c:	21bfdb2e 	bgeu	r4,r6,400f2ac <__gedf2+0x50>
 400f340:	003ff506 	br	400f318 <__gedf2+0xbc>

0400f344 <__ledf2>:
 400f344:	2810d53a 	srli	r8,r5,20
 400f348:	3812d53a 	srli	r9,r7,20
 400f34c:	00c00434 	movhi	r3,16
 400f350:	4201ffcc 	andi	r8,r8,2047
 400f354:	18ffffc4 	addi	r3,r3,-1
 400f358:	4281ffd8 	cmpnei	r10,r8,2047
 400f35c:	2816d7fa 	srli	r11,r5,31
 400f360:	3804d7fa 	srli	r2,r7,31
 400f364:	28ca703a 	and	r5,r5,r3
 400f368:	38ce703a 	and	r7,r7,r3
 400f36c:	48c1ffcc 	andi	r3,r9,2047
 400f370:	50000a26 	beq	r10,zero,400f39c <__ledf2+0x58>
 400f374:	1a41ffd8 	cmpnei	r9,r3,2047
 400f378:	48000c26 	beq	r9,zero,400f3ac <__ledf2+0x68>
 400f37c:	4000191e 	bne	r8,zero,400f3e4 <__ledf2+0xa0>
 400f380:	2912b03a 	or	r9,r5,r4
 400f384:	18000d1e 	bne	r3,zero,400f3bc <__ledf2+0x78>
 400f388:	3994b03a 	or	r10,r7,r6
 400f38c:	50000b1e 	bne	r10,zero,400f3bc <__ledf2+0x78>
 400f390:	48000c1e 	bne	r9,zero,400f3c4 <__ledf2+0x80>
 400f394:	0005883a 	mov	r2,zero
 400f398:	f800283a 	ret
 400f39c:	2912b03a 	or	r9,r5,r4
 400f3a0:	48000c1e 	bne	r9,zero,400f3d4 <__ledf2+0x90>
 400f3a4:	1a41ffe0 	cmpeqi	r9,r3,2047
 400f3a8:	48000e26 	beq	r9,zero,400f3e4 <__ledf2+0xa0>
 400f3ac:	3992b03a 	or	r9,r7,r6
 400f3b0:	4800081e 	bne	r9,zero,400f3d4 <__ledf2+0x90>
 400f3b4:	4000021e 	bne	r8,zero,400f3c0 <__ledf2+0x7c>
 400f3b8:	2912b03a 	or	r9,r5,r4
 400f3bc:	48000726 	beq	r9,zero,400f3dc <__ledf2+0x98>
 400f3c0:	58800c26 	beq	r11,r2,400f3f4 <__ledf2+0xb0>
 400f3c4:	00800044 	movi	r2,1
 400f3c8:	58000526 	beq	r11,zero,400f3e0 <__ledf2+0x9c>
 400f3cc:	00bfffc4 	movi	r2,-1
 400f3d0:	f800283a 	ret
 400f3d4:	00800084 	movi	r2,2
 400f3d8:	f800283a 	ret
 400f3dc:	103ffb26 	beq	r2,zero,400f3cc <__ledf2+0x88>
 400f3e0:	f800283a 	ret
 400f3e4:	183ff61e 	bne	r3,zero,400f3c0 <__ledf2+0x7c>
 400f3e8:	3992b03a 	or	r9,r7,r6
 400f3ec:	483ff41e 	bne	r9,zero,400f3c0 <__ledf2+0x7c>
 400f3f0:	003ff406 	br	400f3c4 <__ledf2+0x80>
 400f3f4:	1a00030e 	bge	r3,r8,400f404 <__ledf2+0xc0>
 400f3f8:	103ff41e 	bne	r2,zero,400f3cc <__ledf2+0x88>
 400f3fc:	00800044 	movi	r2,1
 400f400:	f800283a 	ret
 400f404:	40fff516 	blt	r8,r3,400f3dc <__ledf2+0x98>
 400f408:	397fee36 	bltu	r7,r5,400f3c4 <__ledf2+0x80>
 400f40c:	29c00426 	beq	r5,r7,400f420 <__ledf2+0xdc>
 400f410:	29ffe02e 	bgeu	r5,r7,400f394 <__ledf2+0x50>
 400f414:	583fed26 	beq	r11,zero,400f3cc <__ledf2+0x88>
 400f418:	5805883a 	mov	r2,r11
 400f41c:	f800283a 	ret
 400f420:	313fe836 	bltu	r6,r4,400f3c4 <__ledf2+0x80>
 400f424:	21bfdb2e 	bgeu	r4,r6,400f394 <__ledf2+0x50>
 400f428:	003ffa06 	br	400f414 <__ledf2+0xd0>

0400f42c <__muldf3>:
 400f42c:	2810d53a 	srli	r8,r5,20
 400f430:	defff004 	addi	sp,sp,-64
 400f434:	00800434 	movhi	r2,16
 400f438:	df000e15 	stw	fp,56(sp)
 400f43c:	dd000a15 	stw	r20,40(sp)
 400f440:	dcc00915 	stw	r19,36(sp)
 400f444:	dc400715 	stw	r17,28(sp)
 400f448:	10bfffc4 	addi	r2,r2,-1
 400f44c:	dfc00f15 	stw	ra,60(sp)
 400f450:	ddc00d15 	stw	r23,52(sp)
 400f454:	dd800c15 	stw	r22,48(sp)
 400f458:	dd400b15 	stw	r21,44(sp)
 400f45c:	dc800815 	stw	r18,32(sp)
 400f460:	dc000615 	stw	r16,24(sp)
 400f464:	4201ffcc 	andi	r8,r8,2047
 400f468:	2828d7fa 	srli	r20,r5,31
 400f46c:	2023883a 	mov	r17,r4
 400f470:	3039883a 	mov	fp,r6
 400f474:	28a6703a 	and	r19,r5,r2
 400f478:	40013426 	beq	r8,zero,400f94c <__muldf3+0x520>
 400f47c:	4081ffe0 	cmpeqi	r2,r8,2047
 400f480:	1001461e 	bne	r2,zero,400f99c <__muldf3+0x570>
 400f484:	980a90fa 	slli	r5,r19,3
 400f488:	2026d77a 	srli	r19,r4,29
 400f48c:	202490fa 	slli	r18,r4,3
 400f490:	423f0044 	addi	r8,r8,-1023
 400f494:	9966b03a 	or	r19,r19,r5
 400f498:	9cc02034 	orhi	r19,r19,128
 400f49c:	002b883a 	mov	r21,zero
 400f4a0:	002d883a 	mov	r22,zero
 400f4a4:	3804d53a 	srli	r2,r7,20
 400f4a8:	00c00434 	movhi	r3,16
 400f4ac:	18ffffc4 	addi	r3,r3,-1
 400f4b0:	1081ffcc 	andi	r2,r2,2047
 400f4b4:	382ed7fa 	srli	r23,r7,31
 400f4b8:	38e0703a 	and	r16,r7,r3
 400f4bc:	10011026 	beq	r2,zero,400f900 <__muldf3+0x4d4>
 400f4c0:	10c1ffe0 	cmpeqi	r3,r2,2047
 400f4c4:	18013c1e 	bne	r3,zero,400f9b8 <__muldf3+0x58c>
 400f4c8:	e008d77a 	srli	r4,fp,29
 400f4cc:	802090fa 	slli	r16,r16,3
 400f4d0:	e02290fa 	slli	r17,fp,3
 400f4d4:	10bf0044 	addi	r2,r2,-1023
 400f4d8:	2420b03a 	or	r16,r4,r16
 400f4dc:	84002034 	orhi	r16,r16,128
 400f4e0:	4091883a 	add	r8,r8,r2
 400f4e4:	0009883a 	mov	r4,zero
 400f4e8:	a8800428 	cmpgeui	r2,r21,16
 400f4ec:	a5ccf03a 	xor	r6,r20,r23
 400f4f0:	41c00044 	addi	r7,r8,1
 400f4f4:	1000371e 	bne	r2,zero,400f5d4 <__muldf3+0x1a8>
 400f4f8:	a80490ba 	slli	r2,r21,2
 400f4fc:	00c10074 	movhi	r3,1025
 400f500:	10c7883a 	add	r3,r2,r3
 400f504:	18bd4317 	ldw	r2,-2804(r3)
 400f508:	1000683a 	jmp	r2
 400f50c:	0400f5d4 	movui	r16,983
 400f510:	0400f550 	cmplti	r16,zero,981
 400f514:	0400f550 	cmplti	r16,zero,981
 400f518:	0400f54c 	andi	r16,zero,981
 400f51c:	0400f55c 	xori	r16,zero,981
 400f520:	0400f55c 	xori	r16,zero,981
 400f524:	0400fa2c 	andhi	r16,zero,1000
 400f528:	0400f54c 	andi	r16,zero,981
 400f52c:	0400f55c 	xori	r16,zero,981
 400f530:	0400fa2c 	andhi	r16,zero,1000
 400f534:	0400f55c 	xori	r16,zero,981
 400f538:	0400f54c 	andi	r16,zero,981
 400f53c:	0400f9d4 	movui	r16,999
 400f540:	0400f9d4 	movui	r16,999
 400f544:	0400f9d4 	movui	r16,999
 400f548:	0400fab8 	rdprs	r16,zero,1002
 400f54c:	b80d883a 	mov	r6,r23
 400f550:	8027883a 	mov	r19,r16
 400f554:	8825883a 	mov	r18,r17
 400f558:	202d883a 	mov	r22,r4
 400f55c:	b08000a0 	cmpeqi	r2,r22,2
 400f560:	1000181e 	bne	r2,zero,400f5c4 <__muldf3+0x198>
 400f564:	b08000e0 	cmpeqi	r2,r22,3
 400f568:	1001961e 	bne	r2,zero,400fbc4 <__muldf3+0x798>
 400f56c:	b0800060 	cmpeqi	r2,r22,1
 400f570:	1000c926 	beq	r2,zero,400f898 <__muldf3+0x46c>
 400f574:	0007883a 	mov	r3,zero
 400f578:	0027883a 	mov	r19,zero
 400f57c:	0025883a 	mov	r18,zero
 400f580:	1806953a 	slli	r3,r3,20
 400f584:	300c97fa 	slli	r6,r6,31
 400f588:	9005883a 	mov	r2,r18
 400f58c:	1cc6b03a 	or	r3,r3,r19
 400f590:	1986b03a 	or	r3,r3,r6
 400f594:	dfc00f17 	ldw	ra,60(sp)
 400f598:	df000e17 	ldw	fp,56(sp)
 400f59c:	ddc00d17 	ldw	r23,52(sp)
 400f5a0:	dd800c17 	ldw	r22,48(sp)
 400f5a4:	dd400b17 	ldw	r21,44(sp)
 400f5a8:	dd000a17 	ldw	r20,40(sp)
 400f5ac:	dcc00917 	ldw	r19,36(sp)
 400f5b0:	dc800817 	ldw	r18,32(sp)
 400f5b4:	dc400717 	ldw	r17,28(sp)
 400f5b8:	dc000617 	ldw	r16,24(sp)
 400f5bc:	dec01004 	addi	sp,sp,64
 400f5c0:	f800283a 	ret
 400f5c4:	00c1ffc4 	movi	r3,2047
 400f5c8:	0027883a 	mov	r19,zero
 400f5cc:	0025883a 	mov	r18,zero
 400f5d0:	003feb06 	br	400f580 <__muldf3+0x154>
 400f5d4:	9028d43a 	srli	r20,r18,16
 400f5d8:	8f3fffcc 	andi	fp,r17,65535
 400f5dc:	957fffcc 	andi	r21,r18,65535
 400f5e0:	a80b883a 	mov	r5,r21
 400f5e4:	e009883a 	mov	r4,fp
 400f5e8:	d9800315 	stw	r6,12(sp)
 400f5ec:	da000215 	stw	r8,8(sp)
 400f5f0:	d9c00115 	stw	r7,4(sp)
 400f5f4:	8822d43a 	srli	r17,r17,16
 400f5f8:	4001e240 	call	4001e24 <__mulsi3>
 400f5fc:	e00b883a 	mov	r5,fp
 400f600:	a009883a 	mov	r4,r20
 400f604:	102d883a 	mov	r22,r2
 400f608:	4001e240 	call	4001e24 <__mulsi3>
 400f60c:	880b883a 	mov	r5,r17
 400f610:	a009883a 	mov	r4,r20
 400f614:	102f883a 	mov	r23,r2
 400f618:	4001e240 	call	4001e24 <__mulsi3>
 400f61c:	a80b883a 	mov	r5,r21
 400f620:	8809883a 	mov	r4,r17
 400f624:	d8800015 	stw	r2,0(sp)
 400f628:	4001e240 	call	4001e24 <__mulsi3>
 400f62c:	b006d43a 	srli	r3,r22,16
 400f630:	15e5883a 	add	r18,r2,r23
 400f634:	d9c00117 	ldw	r7,4(sp)
 400f638:	1c87883a 	add	r3,r3,r18
 400f63c:	da000217 	ldw	r8,8(sp)
 400f640:	d9800317 	ldw	r6,12(sp)
 400f644:	1dc0042e 	bgeu	r3,r23,400f658 <__muldf3+0x22c>
 400f648:	d9000017 	ldw	r4,0(sp)
 400f64c:	00800074 	movhi	r2,1
 400f650:	2085883a 	add	r2,r4,r2
 400f654:	d8800015 	stw	r2,0(sp)
 400f658:	1804943a 	slli	r2,r3,16
 400f65c:	85ffffcc 	andi	r23,r16,65535
 400f660:	b5bfffcc 	andi	r22,r22,65535
 400f664:	1585883a 	add	r2,r2,r22
 400f668:	a80b883a 	mov	r5,r21
 400f66c:	b809883a 	mov	r4,r23
 400f670:	1824d43a 	srli	r18,r3,16
 400f674:	d9800515 	stw	r6,20(sp)
 400f678:	da000415 	stw	r8,16(sp)
 400f67c:	d9c00315 	stw	r7,12(sp)
 400f680:	8020d43a 	srli	r16,r16,16
 400f684:	d8800115 	stw	r2,4(sp)
 400f688:	4001e240 	call	4001e24 <__mulsi3>
 400f68c:	a009883a 	mov	r4,r20
 400f690:	b80b883a 	mov	r5,r23
 400f694:	d8800215 	stw	r2,8(sp)
 400f698:	4001e240 	call	4001e24 <__mulsi3>
 400f69c:	a009883a 	mov	r4,r20
 400f6a0:	800b883a 	mov	r5,r16
 400f6a4:	102d883a 	mov	r22,r2
 400f6a8:	4001e240 	call	4001e24 <__mulsi3>
 400f6ac:	a80b883a 	mov	r5,r21
 400f6b0:	8009883a 	mov	r4,r16
 400f6b4:	1029883a 	mov	r20,r2
 400f6b8:	4001e240 	call	4001e24 <__mulsi3>
 400f6bc:	da800217 	ldw	r10,8(sp)
 400f6c0:	1585883a 	add	r2,r2,r22
 400f6c4:	d9c00317 	ldw	r7,12(sp)
 400f6c8:	5006d43a 	srli	r3,r10,16
 400f6cc:	da000417 	ldw	r8,16(sp)
 400f6d0:	d9800517 	ldw	r6,20(sp)
 400f6d4:	1887883a 	add	r3,r3,r2
 400f6d8:	1d80022e 	bgeu	r3,r22,400f6e4 <__muldf3+0x2b8>
 400f6dc:	00800074 	movhi	r2,1
 400f6e0:	a0a9883a 	add	r20,r20,r2
 400f6e4:	1804d43a 	srli	r2,r3,16
 400f6e8:	1806943a 	slli	r3,r3,16
 400f6ec:	982cd43a 	srli	r22,r19,16
 400f6f0:	9d7fffcc 	andi	r21,r19,65535
 400f6f4:	e009883a 	mov	r4,fp
 400f6f8:	54ffffcc 	andi	r19,r10,65535
 400f6fc:	a80b883a 	mov	r5,r21
 400f700:	1ce7883a 	add	r19,r3,r19
 400f704:	d9800515 	stw	r6,20(sp)
 400f708:	da000415 	stw	r8,16(sp)
 400f70c:	d9c00315 	stw	r7,12(sp)
 400f710:	1529883a 	add	r20,r2,r20
 400f714:	4001e240 	call	4001e24 <__mulsi3>
 400f718:	e00b883a 	mov	r5,fp
 400f71c:	b009883a 	mov	r4,r22
 400f720:	d8800215 	stw	r2,8(sp)
 400f724:	4001e240 	call	4001e24 <__mulsi3>
 400f728:	8809883a 	mov	r4,r17
 400f72c:	b00b883a 	mov	r5,r22
 400f730:	1039883a 	mov	fp,r2
 400f734:	4001e240 	call	4001e24 <__mulsi3>
 400f738:	8809883a 	mov	r4,r17
 400f73c:	a80b883a 	mov	r5,r21
 400f740:	1023883a 	mov	r17,r2
 400f744:	4001e240 	call	4001e24 <__mulsi3>
 400f748:	d8c00217 	ldw	r3,8(sp)
 400f74c:	1705883a 	add	r2,r2,fp
 400f750:	d9c00317 	ldw	r7,12(sp)
 400f754:	1808d43a 	srli	r4,r3,16
 400f758:	da000417 	ldw	r8,16(sp)
 400f75c:	d9800517 	ldw	r6,20(sp)
 400f760:	2089883a 	add	r4,r4,r2
 400f764:	94e5883a 	add	r18,r18,r19
 400f768:	2700022e 	bgeu	r4,fp,400f774 <__muldf3+0x348>
 400f76c:	00800074 	movhi	r2,1
 400f770:	88a3883a 	add	r17,r17,r2
 400f774:	2004d43a 	srli	r2,r4,16
 400f778:	2038943a 	slli	fp,r4,16
 400f77c:	18ffffcc 	andi	r3,r3,65535
 400f780:	b809883a 	mov	r4,r23
 400f784:	a80b883a 	mov	r5,r21
 400f788:	d9800415 	stw	r6,16(sp)
 400f78c:	da000315 	stw	r8,12(sp)
 400f790:	d9c00215 	stw	r7,8(sp)
 400f794:	e0f9883a 	add	fp,fp,r3
 400f798:	1463883a 	add	r17,r2,r17
 400f79c:	4001e240 	call	4001e24 <__mulsi3>
 400f7a0:	b80b883a 	mov	r5,r23
 400f7a4:	b009883a 	mov	r4,r22
 400f7a8:	102f883a 	mov	r23,r2
 400f7ac:	4001e240 	call	4001e24 <__mulsi3>
 400f7b0:	b00b883a 	mov	r5,r22
 400f7b4:	8009883a 	mov	r4,r16
 400f7b8:	102d883a 	mov	r22,r2
 400f7bc:	4001e240 	call	4001e24 <__mulsi3>
 400f7c0:	a80b883a 	mov	r5,r21
 400f7c4:	8009883a 	mov	r4,r16
 400f7c8:	1021883a 	mov	r16,r2
 400f7cc:	4001e240 	call	4001e24 <__mulsi3>
 400f7d0:	b80ad43a 	srli	r5,r23,16
 400f7d4:	1585883a 	add	r2,r2,r22
 400f7d8:	d9c00217 	ldw	r7,8(sp)
 400f7dc:	288b883a 	add	r5,r5,r2
 400f7e0:	da000317 	ldw	r8,12(sp)
 400f7e4:	d9800417 	ldw	r6,16(sp)
 400f7e8:	2d80022e 	bgeu	r5,r22,400f7f4 <__muldf3+0x3c8>
 400f7ec:	00800074 	movhi	r2,1
 400f7f0:	80a1883a 	add	r16,r16,r2
 400f7f4:	2806943a 	slli	r3,r5,16
 400f7f8:	d8800017 	ldw	r2,0(sp)
 400f7fc:	bdffffcc 	andi	r23,r23,65535
 400f800:	1dc7883a 	add	r3,r3,r23
 400f804:	90ab883a 	add	r21,r18,r2
 400f808:	acd5803a 	cmpltu	r10,r21,r19
 400f80c:	1d07883a 	add	r3,r3,r20
 400f810:	af2b883a 	add	r21,r21,fp
 400f814:	1a97883a 	add	r11,r3,r10
 400f818:	af09803a 	cmpltu	r4,r21,fp
 400f81c:	2826d43a 	srli	r19,r5,16
 400f820:	5c53883a 	add	r9,r11,r17
 400f824:	4905883a 	add	r2,r9,r4
 400f828:	1d07803a 	cmpltu	r3,r3,r20
 400f82c:	5a95803a 	cmpltu	r10,r11,r10
 400f830:	1a86b03a 	or	r3,r3,r10
 400f834:	1109803a 	cmpltu	r4,r2,r4
 400f838:	4c53803a 	cmpltu	r9,r9,r17
 400f83c:	1ce7883a 	add	r19,r3,r19
 400f840:	4908b03a 	or	r4,r9,r4
 400f844:	a824927a 	slli	r18,r21,9
 400f848:	d8c00117 	ldw	r3,4(sp)
 400f84c:	9927883a 	add	r19,r19,r4
 400f850:	9c27883a 	add	r19,r19,r16
 400f854:	9826927a 	slli	r19,r19,9
 400f858:	a82ad5fa 	srli	r21,r21,23
 400f85c:	100ad5fa 	srli	r5,r2,23
 400f860:	90e4b03a 	or	r18,r18,r3
 400f864:	1004927a 	slli	r2,r2,9
 400f868:	9024c03a 	cmpne	r18,r18,zero
 400f86c:	9564b03a 	or	r18,r18,r21
 400f870:	98c0402c 	andhi	r3,r19,256
 400f874:	90a4b03a 	or	r18,r18,r2
 400f878:	9966b03a 	or	r19,r19,r5
 400f87c:	1800b626 	beq	r3,zero,400fb58 <__muldf3+0x72c>
 400f880:	9006d07a 	srli	r3,r18,1
 400f884:	980497fa 	slli	r2,r19,31
 400f888:	9480004c 	andi	r18,r18,1
 400f88c:	9826d07a 	srli	r19,r19,1
 400f890:	1c86b03a 	or	r3,r3,r18
 400f894:	18a4b03a 	or	r18,r3,r2
 400f898:	3900ffc4 	addi	r4,r7,1023
 400f89c:	0100690e 	bge	zero,r4,400fa44 <__muldf3+0x618>
 400f8a0:	908001cc 	andi	r2,r18,7
 400f8a4:	10000726 	beq	r2,zero,400f8c4 <__muldf3+0x498>
 400f8a8:	908003cc 	andi	r2,r18,15
 400f8ac:	10800120 	cmpeqi	r2,r2,4
 400f8b0:	1000041e 	bne	r2,zero,400f8c4 <__muldf3+0x498>
 400f8b4:	90800104 	addi	r2,r18,4
 400f8b8:	14a5803a 	cmpltu	r18,r2,r18
 400f8bc:	9ca7883a 	add	r19,r19,r18
 400f8c0:	1025883a 	mov	r18,r2
 400f8c4:	9880402c 	andhi	r2,r19,256
 400f8c8:	10000426 	beq	r2,zero,400f8dc <__muldf3+0x4b0>
 400f8cc:	00bfc034 	movhi	r2,65280
 400f8d0:	10bfffc4 	addi	r2,r2,-1
 400f8d4:	98a6703a 	and	r19,r19,r2
 400f8d8:	39010004 	addi	r4,r7,1024
 400f8dc:	2081ffc8 	cmpgei	r2,r4,2047
 400f8e0:	103f381e 	bne	r2,zero,400f5c4 <__muldf3+0x198>
 400f8e4:	9804977a 	slli	r2,r19,29
 400f8e8:	9024d0fa 	srli	r18,r18,3
 400f8ec:	9826927a 	slli	r19,r19,9
 400f8f0:	20c1ffcc 	andi	r3,r4,2047
 400f8f4:	14a4b03a 	or	r18,r2,r18
 400f8f8:	9826d33a 	srli	r19,r19,12
 400f8fc:	003f2006 	br	400f580 <__muldf3+0x154>
 400f900:	8722b03a 	or	r17,r16,fp
 400f904:	88004526 	beq	r17,zero,400fa1c <__muldf3+0x5f0>
 400f908:	da000015 	stw	r8,0(sp)
 400f90c:	80008626 	beq	r16,zero,400fb28 <__muldf3+0x6fc>
 400f910:	8009883a 	mov	r4,r16
 400f914:	40025880 	call	4002588 <__clzsi2>
 400f918:	da000017 	ldw	r8,0(sp)
 400f91c:	117ffd44 	addi	r5,r2,-11
 400f920:	01000744 	movi	r4,29
 400f924:	147ffe04 	addi	r17,r2,-8
 400f928:	2149c83a 	sub	r4,r4,r5
 400f92c:	8460983a 	sll	r16,r16,r17
 400f930:	e108d83a 	srl	r4,fp,r4
 400f934:	e462983a 	sll	r17,fp,r17
 400f938:	2420b03a 	or	r16,r4,r16
 400f93c:	4091c83a 	sub	r8,r8,r2
 400f940:	423f0344 	addi	r8,r8,-1011
 400f944:	0009883a 	mov	r4,zero
 400f948:	003ee706 	br	400f4e8 <__muldf3+0xbc>
 400f94c:	9924b03a 	or	r18,r19,r4
 400f950:	90002d26 	beq	r18,zero,400fa08 <__muldf3+0x5dc>
 400f954:	d9c00015 	stw	r7,0(sp)
 400f958:	98006826 	beq	r19,zero,400fafc <__muldf3+0x6d0>
 400f95c:	9809883a 	mov	r4,r19
 400f960:	40025880 	call	4002588 <__clzsi2>
 400f964:	d9c00017 	ldw	r7,0(sp)
 400f968:	113ffd44 	addi	r4,r2,-11
 400f96c:	00c00744 	movi	r3,29
 400f970:	14bffe04 	addi	r18,r2,-8
 400f974:	1907c83a 	sub	r3,r3,r4
 400f978:	9ca6983a 	sll	r19,r19,r18
 400f97c:	88c6d83a 	srl	r3,r17,r3
 400f980:	8ca4983a 	sll	r18,r17,r18
 400f984:	1ce6b03a 	or	r19,r3,r19
 400f988:	023f0344 	movi	r8,-1011
 400f98c:	4091c83a 	sub	r8,r8,r2
 400f990:	002b883a 	mov	r21,zero
 400f994:	002d883a 	mov	r22,zero
 400f998:	003ec206 	br	400f4a4 <__muldf3+0x78>
 400f99c:	9924b03a 	or	r18,r19,r4
 400f9a0:	9000141e 	bne	r18,zero,400f9f4 <__muldf3+0x5c8>
 400f9a4:	0027883a 	mov	r19,zero
 400f9a8:	05400204 	movi	r21,8
 400f9ac:	0201ffc4 	movi	r8,2047
 400f9b0:	05800084 	movi	r22,2
 400f9b4:	003ebb06 	br	400f4a4 <__muldf3+0x78>
 400f9b8:	8722b03a 	or	r17,r16,fp
 400f9bc:	4201ffc4 	addi	r8,r8,2047
 400f9c0:	8800081e 	bne	r17,zero,400f9e4 <__muldf3+0x5b8>
 400f9c4:	ad400094 	ori	r21,r21,2
 400f9c8:	0021883a 	mov	r16,zero
 400f9cc:	01000084 	movi	r4,2
 400f9d0:	003ec506 	br	400f4e8 <__muldf3+0xbc>
 400f9d4:	b08000a0 	cmpeqi	r2,r22,2
 400f9d8:	a00d883a 	mov	r6,r20
 400f9dc:	103ee126 	beq	r2,zero,400f564 <__muldf3+0x138>
 400f9e0:	003ef806 	br	400f5c4 <__muldf3+0x198>
 400f9e4:	ad4000d4 	ori	r21,r21,3
 400f9e8:	e023883a 	mov	r17,fp
 400f9ec:	010000c4 	movi	r4,3
 400f9f0:	003ebd06 	br	400f4e8 <__muldf3+0xbc>
 400f9f4:	2025883a 	mov	r18,r4
 400f9f8:	05400304 	movi	r21,12
 400f9fc:	0201ffc4 	movi	r8,2047
 400fa00:	058000c4 	movi	r22,3
 400fa04:	003ea706 	br	400f4a4 <__muldf3+0x78>
 400fa08:	0027883a 	mov	r19,zero
 400fa0c:	05400104 	movi	r21,4
 400fa10:	0011883a 	mov	r8,zero
 400fa14:	05800044 	movi	r22,1
 400fa18:	003ea206 	br	400f4a4 <__muldf3+0x78>
 400fa1c:	ad400054 	ori	r21,r21,1
 400fa20:	0021883a 	mov	r16,zero
 400fa24:	01000044 	movi	r4,1
 400fa28:	003eaf06 	br	400f4e8 <__muldf3+0xbc>
 400fa2c:	04c00434 	movhi	r19,16
 400fa30:	000d883a 	mov	r6,zero
 400fa34:	9cffffc4 	addi	r19,r19,-1
 400fa38:	04bfffc4 	movi	r18,-1
 400fa3c:	00c1ffc4 	movi	r3,2047
 400fa40:	003ecf06 	br	400f580 <__muldf3+0x154>
 400fa44:	00800044 	movi	r2,1
 400fa48:	1105c83a 	sub	r2,r2,r4
 400fa4c:	10c00e48 	cmpgei	r3,r2,57
 400fa50:	183ec81e 	bne	r3,zero,400f574 <__muldf3+0x148>
 400fa54:	10c00808 	cmpgei	r3,r2,32
 400fa58:	1800411e 	bne	r3,zero,400fb60 <__muldf3+0x734>
 400fa5c:	39c10784 	addi	r7,r7,1054
 400fa60:	99c6983a 	sll	r3,r19,r7
 400fa64:	9088d83a 	srl	r4,r18,r2
 400fa68:	91ce983a 	sll	r7,r18,r7
 400fa6c:	98a6d83a 	srl	r19,r19,r2
 400fa70:	1904b03a 	or	r2,r3,r4
 400fa74:	3824c03a 	cmpne	r18,r7,zero
 400fa78:	1484b03a 	or	r2,r2,r18
 400fa7c:	10c001cc 	andi	r3,r2,7
 400fa80:	18000726 	beq	r3,zero,400faa0 <__muldf3+0x674>
 400fa84:	10c003cc 	andi	r3,r2,15
 400fa88:	18c00120 	cmpeqi	r3,r3,4
 400fa8c:	1800041e 	bne	r3,zero,400faa0 <__muldf3+0x674>
 400fa90:	10c00104 	addi	r3,r2,4
 400fa94:	1885803a 	cmpltu	r2,r3,r2
 400fa98:	98a7883a 	add	r19,r19,r2
 400fa9c:	1805883a 	mov	r2,r3
 400faa0:	98c0202c 	andhi	r3,r19,128
 400faa4:	18004326 	beq	r3,zero,400fbb4 <__muldf3+0x788>
 400faa8:	00c00044 	movi	r3,1
 400faac:	0027883a 	mov	r19,zero
 400fab0:	0025883a 	mov	r18,zero
 400fab4:	003eb206 	br	400f580 <__muldf3+0x154>
 400fab8:	9880022c 	andhi	r2,r19,8
 400fabc:	10000926 	beq	r2,zero,400fae4 <__muldf3+0x6b8>
 400fac0:	8080022c 	andhi	r2,r16,8
 400fac4:	1000071e 	bne	r2,zero,400fae4 <__muldf3+0x6b8>
 400fac8:	00800434 	movhi	r2,16
 400facc:	84c00234 	orhi	r19,r16,8
 400fad0:	10bfffc4 	addi	r2,r2,-1
 400fad4:	98a6703a 	and	r19,r19,r2
 400fad8:	b80d883a 	mov	r6,r23
 400fadc:	8825883a 	mov	r18,r17
 400fae0:	003fd606 	br	400fa3c <__muldf3+0x610>
 400fae4:	00800434 	movhi	r2,16
 400fae8:	9cc00234 	orhi	r19,r19,8
 400faec:	10bfffc4 	addi	r2,r2,-1
 400faf0:	98a6703a 	and	r19,r19,r2
 400faf4:	a00d883a 	mov	r6,r20
 400faf8:	003fd006 	br	400fa3c <__muldf3+0x610>
 400fafc:	40025880 	call	4002588 <__clzsi2>
 400fb00:	11000544 	addi	r4,r2,21
 400fb04:	21400748 	cmpgei	r5,r4,29
 400fb08:	1007883a 	mov	r3,r2
 400fb0c:	d9c00017 	ldw	r7,0(sp)
 400fb10:	10800804 	addi	r2,r2,32
 400fb14:	283f9526 	beq	r5,zero,400f96c <__muldf3+0x540>
 400fb18:	18fffe04 	addi	r3,r3,-8
 400fb1c:	88e6983a 	sll	r19,r17,r3
 400fb20:	0025883a 	mov	r18,zero
 400fb24:	003f9806 	br	400f988 <__muldf3+0x55c>
 400fb28:	e009883a 	mov	r4,fp
 400fb2c:	40025880 	call	4002588 <__clzsi2>
 400fb30:	11400544 	addi	r5,r2,21
 400fb34:	29000748 	cmpgei	r4,r5,29
 400fb38:	1007883a 	mov	r3,r2
 400fb3c:	da000017 	ldw	r8,0(sp)
 400fb40:	10800804 	addi	r2,r2,32
 400fb44:	203f7626 	beq	r4,zero,400f920 <__muldf3+0x4f4>
 400fb48:	1c3ffe04 	addi	r16,r3,-8
 400fb4c:	e420983a 	sll	r16,fp,r16
 400fb50:	0023883a 	mov	r17,zero
 400fb54:	003f7906 	br	400f93c <__muldf3+0x510>
 400fb58:	400f883a 	mov	r7,r8
 400fb5c:	003f4e06 	br	400f898 <__muldf3+0x46c>
 400fb60:	00fff844 	movi	r3,-31
 400fb64:	1907c83a 	sub	r3,r3,r4
 400fb68:	10800820 	cmpeqi	r2,r2,32
 400fb6c:	98c6d83a 	srl	r3,r19,r3
 400fb70:	1000031e 	bne	r2,zero,400fb80 <__muldf3+0x754>
 400fb74:	39c10f84 	addi	r7,r7,1086
 400fb78:	99e6983a 	sll	r19,r19,r7
 400fb7c:	94e4b03a 	or	r18,r18,r19
 400fb80:	9024c03a 	cmpne	r18,r18,zero
 400fb84:	90c4b03a 	or	r2,r18,r3
 400fb88:	148001cc 	andi	r18,r2,7
 400fb8c:	9000051e 	bne	r18,zero,400fba4 <__muldf3+0x778>
 400fb90:	0027883a 	mov	r19,zero
 400fb94:	1004d0fa 	srli	r2,r2,3
 400fb98:	0007883a 	mov	r3,zero
 400fb9c:	14a4b03a 	or	r18,r2,r18
 400fba0:	003e7706 	br	400f580 <__muldf3+0x154>
 400fba4:	10c003cc 	andi	r3,r2,15
 400fba8:	18c00118 	cmpnei	r3,r3,4
 400fbac:	0027883a 	mov	r19,zero
 400fbb0:	183fb71e 	bne	r3,zero,400fa90 <__muldf3+0x664>
 400fbb4:	9806927a 	slli	r3,r19,9
 400fbb8:	9824977a 	slli	r18,r19,29
 400fbbc:	1826d33a 	srli	r19,r3,12
 400fbc0:	003ff406 	br	400fb94 <__muldf3+0x768>
 400fbc4:	00800434 	movhi	r2,16
 400fbc8:	9cc00234 	orhi	r19,r19,8
 400fbcc:	10bfffc4 	addi	r2,r2,-1
 400fbd0:	98a6703a 	and	r19,r19,r2
 400fbd4:	003f9906 	br	400fa3c <__muldf3+0x610>

0400fbd8 <__subdf3>:
 400fbd8:	00800434 	movhi	r2,16
 400fbdc:	3810d53a 	srli	r8,r7,20
 400fbe0:	10bfffc4 	addi	r2,r2,-1
 400fbe4:	2806d53a 	srli	r3,r5,20
 400fbe8:	2892703a 	and	r9,r5,r2
 400fbec:	3884703a 	and	r2,r7,r2
 400fbf0:	280ad7fa 	srli	r5,r5,31
 400fbf4:	481290fa 	slli	r9,r9,3
 400fbf8:	2018d77a 	srli	r12,r4,29
 400fbfc:	100490fa 	slli	r2,r2,3
 400fc00:	3016d77a 	srli	r11,r6,29
 400fc04:	defffb04 	addi	sp,sp,-20
 400fc08:	4201ffcc 	andi	r8,r8,2047
 400fc0c:	dc800215 	stw	r18,8(sp)
 400fc10:	dc400115 	stw	r17,4(sp)
 400fc14:	1c81ffcc 	andi	r18,r3,2047
 400fc18:	dfc00415 	stw	ra,16(sp)
 400fc1c:	dcc00315 	stw	r19,12(sp)
 400fc20:	dc000015 	stw	r16,0(sp)
 400fc24:	4281ffd8 	cmpnei	r10,r8,2047
 400fc28:	2823883a 	mov	r17,r5
 400fc2c:	201c90fa 	slli	r14,r4,3
 400fc30:	380ed7fa 	srli	r7,r7,31
 400fc34:	301a90fa 	slli	r13,r6,3
 400fc38:	29403fcc 	andi	r5,r5,255
 400fc3c:	6252b03a 	or	r9,r12,r9
 400fc40:	589eb03a 	or	r15,r11,r2
 400fc44:	9207c83a 	sub	r3,r18,r8
 400fc48:	50006826 	beq	r10,zero,400fdec <__subdf3+0x214>
 400fc4c:	3ac0005c 	xori	r11,r7,1
 400fc50:	2ac07326 	beq	r5,r11,400fe20 <__subdf3+0x248>
 400fc54:	00c0590e 	bge	zero,r3,400fdbc <__subdf3+0x1e4>
 400fc58:	4000691e 	bne	r8,zero,400fe00 <__subdf3+0x228>
 400fc5c:	7b44b03a 	or	r2,r15,r13
 400fc60:	1000fb26 	beq	r2,zero,4010050 <__subdf3+0x478>
 400fc64:	18bfffc4 	addi	r2,r3,-1
 400fc68:	10019126 	beq	r2,zero,40102b0 <__subdf3+0x6d8>
 400fc6c:	18c1ffd8 	cmpnei	r3,r3,2047
 400fc70:	1800c326 	beq	r3,zero,400ff80 <__subdf3+0x3a8>
 400fc74:	1007883a 	mov	r3,r2
 400fc78:	18800e48 	cmpgei	r2,r3,57
 400fc7c:	1000651e 	bne	r2,zero,400fe14 <__subdf3+0x23c>
 400fc80:	18800808 	cmpgei	r2,r3,32
 400fc84:	1001331e 	bne	r2,zero,4010154 <__subdf3+0x57c>
 400fc88:	00800804 	movi	r2,32
 400fc8c:	10c5c83a 	sub	r2,r2,r3
 400fc90:	78a0983a 	sll	r16,r15,r2
 400fc94:	68c8d83a 	srl	r4,r13,r3
 400fc98:	689a983a 	sll	r13,r13,r2
 400fc9c:	78c4d83a 	srl	r2,r15,r3
 400fca0:	8120b03a 	or	r16,r16,r4
 400fca4:	681ac03a 	cmpne	r13,r13,zero
 400fca8:	8360b03a 	or	r16,r16,r13
 400fcac:	4893c83a 	sub	r9,r9,r2
 400fcb0:	7421c83a 	sub	r16,r14,r16
 400fcb4:	7409803a 	cmpltu	r4,r14,r16
 400fcb8:	4909c83a 	sub	r4,r9,r4
 400fcbc:	2080202c 	andhi	r2,r4,128
 400fcc0:	10009326 	beq	r2,zero,400ff10 <__subdf3+0x338>
 400fcc4:	04c02034 	movhi	r19,128
 400fcc8:	9cffffc4 	addi	r19,r19,-1
 400fccc:	24e6703a 	and	r19,r4,r19
 400fcd0:	9800b926 	beq	r19,zero,400ffb8 <__subdf3+0x3e0>
 400fcd4:	9809883a 	mov	r4,r19
 400fcd8:	40025880 	call	4002588 <__clzsi2>
 400fcdc:	10fffe04 	addi	r3,r2,-8
 400fce0:	01000804 	movi	r4,32
 400fce4:	20c9c83a 	sub	r4,r4,r3
 400fce8:	8108d83a 	srl	r4,r16,r4
 400fcec:	98e6983a 	sll	r19,r19,r3
 400fcf0:	80e0983a 	sll	r16,r16,r3
 400fcf4:	24c8b03a 	or	r4,r4,r19
 400fcf8:	1c80b816 	blt	r3,r18,400ffdc <__subdf3+0x404>
 400fcfc:	1c87c83a 	sub	r3,r3,r18
 400fd00:	19400044 	addi	r5,r3,1
 400fd04:	28800808 	cmpgei	r2,r5,32
 400fd08:	1000751e 	bne	r2,zero,400fee0 <__subdf3+0x308>
 400fd0c:	00800804 	movi	r2,32
 400fd10:	1145c83a 	sub	r2,r2,r5
 400fd14:	8146d83a 	srl	r3,r16,r5
 400fd18:	80a0983a 	sll	r16,r16,r2
 400fd1c:	2084983a 	sll	r2,r4,r2
 400fd20:	2148d83a 	srl	r4,r4,r5
 400fd24:	8020c03a 	cmpne	r16,r16,zero
 400fd28:	10c4b03a 	or	r2,r2,r3
 400fd2c:	1420b03a 	or	r16,r2,r16
 400fd30:	0025883a 	mov	r18,zero
 400fd34:	808001cc 	andi	r2,r16,7
 400fd38:	10000726 	beq	r2,zero,400fd58 <__subdf3+0x180>
 400fd3c:	808003cc 	andi	r2,r16,15
 400fd40:	10800120 	cmpeqi	r2,r2,4
 400fd44:	1000041e 	bne	r2,zero,400fd58 <__subdf3+0x180>
 400fd48:	80800104 	addi	r2,r16,4
 400fd4c:	1421803a 	cmpltu	r16,r2,r16
 400fd50:	2409883a 	add	r4,r4,r16
 400fd54:	1021883a 	mov	r16,r2
 400fd58:	2080202c 	andhi	r2,r4,128
 400fd5c:	10006e26 	beq	r2,zero,400ff18 <__subdf3+0x340>
 400fd60:	90c00044 	addi	r3,r18,1
 400fd64:	1881ffe0 	cmpeqi	r2,r3,2047
 400fd68:	18c1ffcc 	andi	r3,r3,2047
 400fd6c:	1000801e 	bne	r2,zero,400ff70 <__subdf3+0x398>
 400fd70:	00bfe034 	movhi	r2,65408
 400fd74:	10bfffc4 	addi	r2,r2,-1
 400fd78:	2088703a 	and	r4,r4,r2
 400fd7c:	2004977a 	slli	r2,r4,29
 400fd80:	2008927a 	slli	r4,r4,9
 400fd84:	8020d0fa 	srli	r16,r16,3
 400fd88:	2008d33a 	srli	r4,r4,12
 400fd8c:	1404b03a 	or	r2,r2,r16
 400fd90:	1806953a 	slli	r3,r3,20
 400fd94:	882297fa 	slli	r17,r17,31
 400fd98:	1906b03a 	or	r3,r3,r4
 400fd9c:	1c46b03a 	or	r3,r3,r17
 400fda0:	dfc00417 	ldw	ra,16(sp)
 400fda4:	dcc00317 	ldw	r19,12(sp)
 400fda8:	dc800217 	ldw	r18,8(sp)
 400fdac:	dc400117 	ldw	r17,4(sp)
 400fdb0:	dc000017 	ldw	r16,0(sp)
 400fdb4:	dec00504 	addi	sp,sp,20
 400fdb8:	f800283a 	ret
 400fdbc:	18002c26 	beq	r3,zero,400fe70 <__subdf3+0x298>
 400fdc0:	4487c83a 	sub	r3,r8,r18
 400fdc4:	5823883a 	mov	r17,r11
 400fdc8:	9000bb1e 	bne	r18,zero,40100b8 <__subdf3+0x4e0>
 400fdcc:	4b84b03a 	or	r2,r9,r14
 400fdd0:	10011726 	beq	r2,zero,4010230 <__subdf3+0x658>
 400fdd4:	18bfffc4 	addi	r2,r3,-1
 400fdd8:	10016326 	beq	r2,zero,4010368 <__subdf3+0x790>
 400fddc:	18c1ffd8 	cmpnei	r3,r3,2047
 400fde0:	18012c26 	beq	r3,zero,4010294 <__subdf3+0x6bc>
 400fde4:	1007883a 	mov	r3,r2
 400fde8:	0000b506 	br	40100c0 <__subdf3+0x4e8>
 400fdec:	7b44b03a 	or	r2,r15,r13
 400fdf0:	103f9626 	beq	r2,zero,400fc4c <__subdf3+0x74>
 400fdf4:	3ac03fcc 	andi	r11,r7,255
 400fdf8:	29c07d26 	beq	r5,r7,400fff0 <__subdf3+0x418>
 400fdfc:	00ffef0e 	bge	zero,r3,400fdbc <__subdf3+0x1e4>
 400fe00:	9081ffd8 	cmpnei	r2,r18,2047
 400fe04:	10005e26 	beq	r2,zero,400ff80 <__subdf3+0x3a8>
 400fe08:	18800e48 	cmpgei	r2,r3,57
 400fe0c:	7bc02034 	orhi	r15,r15,128
 400fe10:	103f9b26 	beq	r2,zero,400fc80 <__subdf3+0xa8>
 400fe14:	7b60b03a 	or	r16,r15,r13
 400fe18:	8020c03a 	cmpne	r16,r16,zero
 400fe1c:	003fa406 	br	400fcb0 <__subdf3+0xd8>
 400fe20:	00c0730e 	bge	zero,r3,400fff0 <__subdf3+0x418>
 400fe24:	40002626 	beq	r8,zero,400fec0 <__subdf3+0x2e8>
 400fe28:	9081ffd8 	cmpnei	r2,r18,2047
 400fe2c:	10005426 	beq	r2,zero,400ff80 <__subdf3+0x3a8>
 400fe30:	7bc02034 	orhi	r15,r15,128
 400fe34:	18800e48 	cmpgei	r2,r3,57
 400fe38:	1000431e 	bne	r2,zero,400ff48 <__subdf3+0x370>
 400fe3c:	18800808 	cmpgei	r2,r3,32
 400fe40:	1000de26 	beq	r2,zero,40101bc <__subdf3+0x5e4>
 400fe44:	1c3ff804 	addi	r16,r3,-32
 400fe48:	18800820 	cmpeqi	r2,r3,32
 400fe4c:	7c0ad83a 	srl	r5,r15,r16
 400fe50:	1000041e 	bne	r2,zero,400fe64 <__subdf3+0x28c>
 400fe54:	00801004 	movi	r2,64
 400fe58:	10c5c83a 	sub	r2,r2,r3
 400fe5c:	7884983a 	sll	r2,r15,r2
 400fe60:	689ab03a 	or	r13,r13,r2
 400fe64:	6820c03a 	cmpne	r16,r13,zero
 400fe68:	8160b03a 	or	r16,r16,r5
 400fe6c:	00003806 	br	400ff50 <__subdf3+0x378>
 400fe70:	90800044 	addi	r2,r18,1
 400fe74:	1081ff8c 	andi	r2,r2,2046
 400fe78:	1000a01e 	bne	r2,zero,40100fc <__subdf3+0x524>
 400fe7c:	4b8ab03a 	or	r5,r9,r14
 400fe80:	7b44b03a 	or	r2,r15,r13
 400fe84:	9000f11e 	bne	r18,zero,401024c <__subdf3+0x674>
 400fe88:	28012e26 	beq	r5,zero,4010344 <__subdf3+0x76c>
 400fe8c:	10010e26 	beq	r2,zero,40102c8 <__subdf3+0x6f0>
 400fe90:	7361c83a 	sub	r16,r14,r13
 400fe94:	7405803a 	cmpltu	r2,r14,r16
 400fe98:	4bc9c83a 	sub	r4,r9,r15
 400fe9c:	2089c83a 	sub	r4,r4,r2
 400fea0:	2080202c 	andhi	r2,r4,128
 400fea4:	10016d26 	beq	r2,zero,401045c <__subdf3+0x884>
 400fea8:	6ba1c83a 	sub	r16,r13,r14
 400feac:	7a49c83a 	sub	r4,r15,r9
 400feb0:	6c1b803a 	cmpltu	r13,r13,r16
 400feb4:	2349c83a 	sub	r4,r4,r13
 400feb8:	5823883a 	mov	r17,r11
 400febc:	003f9d06 	br	400fd34 <__subdf3+0x15c>
 400fec0:	7b44b03a 	or	r2,r15,r13
 400fec4:	10006226 	beq	r2,zero,4010050 <__subdf3+0x478>
 400fec8:	18bfffc4 	addi	r2,r3,-1
 400fecc:	1000e926 	beq	r2,zero,4010274 <__subdf3+0x69c>
 400fed0:	18c1ffd8 	cmpnei	r3,r3,2047
 400fed4:	18012a26 	beq	r3,zero,4010380 <__subdf3+0x7a8>
 400fed8:	1007883a 	mov	r3,r2
 400fedc:	003fd506 	br	400fe34 <__subdf3+0x25c>
 400fee0:	18fff844 	addi	r3,r3,-31
 400fee4:	28800820 	cmpeqi	r2,r5,32
 400fee8:	20c6d83a 	srl	r3,r4,r3
 400feec:	1000041e 	bne	r2,zero,400ff00 <__subdf3+0x328>
 400fef0:	00801004 	movi	r2,64
 400fef4:	114bc83a 	sub	r5,r2,r5
 400fef8:	2148983a 	sll	r4,r4,r5
 400fefc:	8120b03a 	or	r16,r16,r4
 400ff00:	8020c03a 	cmpne	r16,r16,zero
 400ff04:	80e0b03a 	or	r16,r16,r3
 400ff08:	0009883a 	mov	r4,zero
 400ff0c:	0025883a 	mov	r18,zero
 400ff10:	808001cc 	andi	r2,r16,7
 400ff14:	103f891e 	bne	r2,zero,400fd3c <__subdf3+0x164>
 400ff18:	8020d0fa 	srli	r16,r16,3
 400ff1c:	2004977a 	slli	r2,r4,29
 400ff20:	2012d0fa 	srli	r9,r4,3
 400ff24:	9007883a 	mov	r3,r18
 400ff28:	8084b03a 	or	r2,r16,r2
 400ff2c:	1901ffe0 	cmpeqi	r4,r3,2047
 400ff30:	2000191e 	bne	r4,zero,400ff98 <__subdf3+0x3c0>
 400ff34:	01000434 	movhi	r4,16
 400ff38:	213fffc4 	addi	r4,r4,-1
 400ff3c:	4908703a 	and	r4,r9,r4
 400ff40:	18c1ffcc 	andi	r3,r3,2047
 400ff44:	003f9206 	br	400fd90 <__subdf3+0x1b8>
 400ff48:	7b60b03a 	or	r16,r15,r13
 400ff4c:	8020c03a 	cmpne	r16,r16,zero
 400ff50:	83a1883a 	add	r16,r16,r14
 400ff54:	8389803a 	cmpltu	r4,r16,r14
 400ff58:	2249883a 	add	r4,r4,r9
 400ff5c:	2080202c 	andhi	r2,r4,128
 400ff60:	103feb26 	beq	r2,zero,400ff10 <__subdf3+0x338>
 400ff64:	94800044 	addi	r18,r18,1
 400ff68:	9081ffe0 	cmpeqi	r2,r18,2047
 400ff6c:	10006f26 	beq	r2,zero,401012c <__subdf3+0x554>
 400ff70:	00c1ffc4 	movi	r3,2047
 400ff74:	0009883a 	mov	r4,zero
 400ff78:	0005883a 	mov	r2,zero
 400ff7c:	003f8406 	br	400fd90 <__subdf3+0x1b8>
 400ff80:	4806977a 	slli	r3,r9,29
 400ff84:	00880034 	movhi	r2,8192
 400ff88:	10bfffc4 	addi	r2,r2,-1
 400ff8c:	4812d0fa 	srli	r9,r9,3
 400ff90:	2088703a 	and	r4,r4,r2
 400ff94:	20c4b03a 	or	r2,r4,r3
 400ff98:	4886b03a 	or	r3,r9,r2
 400ff9c:	18013726 	beq	r3,zero,401047c <__subdf3+0x8a4>
 400ffa0:	00c00434 	movhi	r3,16
 400ffa4:	18ffffc4 	addi	r3,r3,-1
 400ffa8:	49000234 	orhi	r4,r9,8
 400ffac:	20c8703a 	and	r4,r4,r3
 400ffb0:	00c1ffc4 	movi	r3,2047
 400ffb4:	003f7606 	br	400fd90 <__subdf3+0x1b8>
 400ffb8:	8009883a 	mov	r4,r16
 400ffbc:	40025880 	call	4002588 <__clzsi2>
 400ffc0:	10c00604 	addi	r3,r2,24
 400ffc4:	19000808 	cmpgei	r4,r3,32
 400ffc8:	203f4526 	beq	r4,zero,400fce0 <__subdf3+0x108>
 400ffcc:	113ffe04 	addi	r4,r2,-8
 400ffd0:	8108983a 	sll	r4,r16,r4
 400ffd4:	0021883a 	mov	r16,zero
 400ffd8:	1cbf480e 	bge	r3,r18,400fcfc <__subdf3+0x124>
 400ffdc:	00bfe034 	movhi	r2,65408
 400ffe0:	10bfffc4 	addi	r2,r2,-1
 400ffe4:	90e5c83a 	sub	r18,r18,r3
 400ffe8:	2088703a 	and	r4,r4,r2
 400ffec:	003f5106 	br	400fd34 <__subdf3+0x15c>
 400fff0:	18001e26 	beq	r3,zero,401006c <__subdf3+0x494>
 400fff4:	4487c83a 	sub	r3,r8,r18
 400fff8:	90006826 	beq	r18,zero,401019c <__subdf3+0x5c4>
 400fffc:	5000a526 	beq	r10,zero,4010294 <__subdf3+0x6bc>
 4010000:	4a402034 	orhi	r9,r9,128
 4010004:	18800e48 	cmpgei	r2,r3,57
 4010008:	1000b61e 	bne	r2,zero,40102e4 <__subdf3+0x70c>
 401000c:	18800808 	cmpgei	r2,r3,32
 4010010:	1001021e 	bne	r2,zero,401041c <__subdf3+0x844>
 4010014:	00800804 	movi	r2,32
 4010018:	10c5c83a 	sub	r2,r2,r3
 401001c:	48a0983a 	sll	r16,r9,r2
 4010020:	70c8d83a 	srl	r4,r14,r3
 4010024:	7084983a 	sll	r2,r14,r2
 4010028:	48d2d83a 	srl	r9,r9,r3
 401002c:	8120b03a 	or	r16,r16,r4
 4010030:	1004c03a 	cmpne	r2,r2,zero
 4010034:	80a0b03a 	or	r16,r16,r2
 4010038:	7a5f883a 	add	r15,r15,r9
 401003c:	8361883a 	add	r16,r16,r13
 4010040:	8349803a 	cmpltu	r4,r16,r13
 4010044:	23c9883a 	add	r4,r4,r15
 4010048:	4025883a 	mov	r18,r8
 401004c:	003fc306 	br	400ff5c <__subdf3+0x384>
 4010050:	480a977a 	slli	r5,r9,29
 4010054:	00880034 	movhi	r2,8192
 4010058:	10bfffc4 	addi	r2,r2,-1
 401005c:	2088703a 	and	r4,r4,r2
 4010060:	4812d0fa 	srli	r9,r9,3
 4010064:	2144b03a 	or	r2,r4,r5
 4010068:	003fb006 	br	400ff2c <__subdf3+0x354>
 401006c:	90800044 	addi	r2,r18,1
 4010070:	1141ff8c 	andi	r5,r2,2046
 4010074:	28005c1e 	bne	r5,zero,40101e8 <__subdf3+0x610>
 4010078:	4b84b03a 	or	r2,r9,r14
 401007c:	9000a71e 	bne	r18,zero,401031c <__subdf3+0x744>
 4010080:	1000df26 	beq	r2,zero,4010400 <__subdf3+0x828>
 4010084:	7b44b03a 	or	r2,r15,r13
 4010088:	10008f26 	beq	r2,zero,40102c8 <__subdf3+0x6f0>
 401008c:	7361883a 	add	r16,r14,r13
 4010090:	4bc9883a 	add	r4,r9,r15
 4010094:	839d803a 	cmpltu	r14,r16,r14
 4010098:	2389883a 	add	r4,r4,r14
 401009c:	2080202c 	andhi	r2,r4,128
 40100a0:	103f9b26 	beq	r2,zero,400ff10 <__subdf3+0x338>
 40100a4:	00bfe034 	movhi	r2,65408
 40100a8:	10bfffc4 	addi	r2,r2,-1
 40100ac:	2088703a 	and	r4,r4,r2
 40100b0:	04800044 	movi	r18,1
 40100b4:	003f9606 	br	400ff10 <__subdf3+0x338>
 40100b8:	50007626 	beq	r10,zero,4010294 <__subdf3+0x6bc>
 40100bc:	4a402034 	orhi	r9,r9,128
 40100c0:	18800e48 	cmpgei	r2,r3,57
 40100c4:	10002e1e 	bne	r2,zero,4010180 <__subdf3+0x5a8>
 40100c8:	18800808 	cmpgei	r2,r3,32
 40100cc:	1000881e 	bne	r2,zero,40102f0 <__subdf3+0x718>
 40100d0:	00800804 	movi	r2,32
 40100d4:	10c5c83a 	sub	r2,r2,r3
 40100d8:	48a0983a 	sll	r16,r9,r2
 40100dc:	70c8d83a 	srl	r4,r14,r3
 40100e0:	709c983a 	sll	r14,r14,r2
 40100e4:	48d2d83a 	srl	r9,r9,r3
 40100e8:	8120b03a 	or	r16,r16,r4
 40100ec:	701cc03a 	cmpne	r14,r14,zero
 40100f0:	83a0b03a 	or	r16,r16,r14
 40100f4:	7a5fc83a 	sub	r15,r15,r9
 40100f8:	00002306 	br	4010188 <__subdf3+0x5b0>
 40100fc:	7361c83a 	sub	r16,r14,r13
 4010100:	4be7c83a 	sub	r19,r9,r15
 4010104:	7409803a 	cmpltu	r4,r14,r16
 4010108:	9927c83a 	sub	r19,r19,r4
 401010c:	9880202c 	andhi	r2,r19,128
 4010110:	1000411e 	bne	r2,zero,4010218 <__subdf3+0x640>
 4010114:	84c4b03a 	or	r2,r16,r19
 4010118:	103eed1e 	bne	r2,zero,400fcd0 <__subdf3+0xf8>
 401011c:	0013883a 	mov	r9,zero
 4010120:	0023883a 	mov	r17,zero
 4010124:	003f8306 	br	400ff34 <__subdf3+0x35c>
 4010128:	04800084 	movi	r18,2
 401012c:	00bfe034 	movhi	r2,65408
 4010130:	10bfffc4 	addi	r2,r2,-1
 4010134:	8006d07a 	srli	r3,r16,1
 4010138:	2088703a 	and	r4,r4,r2
 401013c:	200497fa 	slli	r2,r4,31
 4010140:	8400004c 	andi	r16,r16,1
 4010144:	1c20b03a 	or	r16,r3,r16
 4010148:	2008d07a 	srli	r4,r4,1
 401014c:	1420b03a 	or	r16,r2,r16
 4010150:	003ef806 	br	400fd34 <__subdf3+0x15c>
 4010154:	1c3ff804 	addi	r16,r3,-32
 4010158:	18800820 	cmpeqi	r2,r3,32
 401015c:	7c0ad83a 	srl	r5,r15,r16
 4010160:	1000041e 	bne	r2,zero,4010174 <__subdf3+0x59c>
 4010164:	00801004 	movi	r2,64
 4010168:	10c5c83a 	sub	r2,r2,r3
 401016c:	7884983a 	sll	r2,r15,r2
 4010170:	689ab03a 	or	r13,r13,r2
 4010174:	6820c03a 	cmpne	r16,r13,zero
 4010178:	8160b03a 	or	r16,r16,r5
 401017c:	003ecc06 	br	400fcb0 <__subdf3+0xd8>
 4010180:	4b92b03a 	or	r9,r9,r14
 4010184:	4820c03a 	cmpne	r16,r9,zero
 4010188:	6c21c83a 	sub	r16,r13,r16
 401018c:	6c09803a 	cmpltu	r4,r13,r16
 4010190:	7909c83a 	sub	r4,r15,r4
 4010194:	4025883a 	mov	r18,r8
 4010198:	003ec806 	br	400fcbc <__subdf3+0xe4>
 401019c:	4b84b03a 	or	r2,r9,r14
 40101a0:	10007e26 	beq	r2,zero,401039c <__subdf3+0x7c4>
 40101a4:	18bfffc4 	addi	r2,r3,-1
 40101a8:	1000a726 	beq	r2,zero,4010448 <__subdf3+0x870>
 40101ac:	18c1ffd8 	cmpnei	r3,r3,2047
 40101b0:	18003826 	beq	r3,zero,4010294 <__subdf3+0x6bc>
 40101b4:	1007883a 	mov	r3,r2
 40101b8:	003f9206 	br	4010004 <__subdf3+0x42c>
 40101bc:	00800804 	movi	r2,32
 40101c0:	10c5c83a 	sub	r2,r2,r3
 40101c4:	78a0983a 	sll	r16,r15,r2
 40101c8:	68c8d83a 	srl	r4,r13,r3
 40101cc:	689a983a 	sll	r13,r13,r2
 40101d0:	78c4d83a 	srl	r2,r15,r3
 40101d4:	8120b03a 	or	r16,r16,r4
 40101d8:	681ac03a 	cmpne	r13,r13,zero
 40101dc:	8360b03a 	or	r16,r16,r13
 40101e0:	4893883a 	add	r9,r9,r2
 40101e4:	003f5a06 	br	400ff50 <__subdf3+0x378>
 40101e8:	10c1ffe0 	cmpeqi	r3,r2,2047
 40101ec:	183f601e 	bne	r3,zero,400ff70 <__subdf3+0x398>
 40101f0:	735b883a 	add	r13,r14,r13
 40101f4:	6b9d803a 	cmpltu	r14,r13,r14
 40101f8:	4bc9883a 	add	r4,r9,r15
 40101fc:	2389883a 	add	r4,r4,r14
 4010200:	202097fa 	slli	r16,r4,31
 4010204:	681ad07a 	srli	r13,r13,1
 4010208:	2008d07a 	srli	r4,r4,1
 401020c:	1025883a 	mov	r18,r2
 4010210:	8360b03a 	or	r16,r16,r13
 4010214:	003f3e06 	br	400ff10 <__subdf3+0x338>
 4010218:	6ba1c83a 	sub	r16,r13,r14
 401021c:	7a49c83a 	sub	r4,r15,r9
 4010220:	6c1b803a 	cmpltu	r13,r13,r16
 4010224:	2367c83a 	sub	r19,r4,r13
 4010228:	5823883a 	mov	r17,r11
 401022c:	003ea806 	br	400fcd0 <__subdf3+0xf8>
 4010230:	7808977a 	slli	r4,r15,29
 4010234:	00880034 	movhi	r2,8192
 4010238:	10bfffc4 	addi	r2,r2,-1
 401023c:	308c703a 	and	r6,r6,r2
 4010240:	7812d0fa 	srli	r9,r15,3
 4010244:	3104b03a 	or	r2,r6,r4
 4010248:	003f3806 	br	400ff2c <__subdf3+0x354>
 401024c:	28005a1e 	bne	r5,zero,40103b8 <__subdf3+0x7e0>
 4010250:	10008526 	beq	r2,zero,4010468 <__subdf3+0x890>
 4010254:	7806977a 	slli	r3,r15,29
 4010258:	00880034 	movhi	r2,8192
 401025c:	10bfffc4 	addi	r2,r2,-1
 4010260:	3084703a 	and	r2,r6,r2
 4010264:	7812d0fa 	srli	r9,r15,3
 4010268:	10c4b03a 	or	r2,r2,r3
 401026c:	5823883a 	mov	r17,r11
 4010270:	003f4906 	br	400ff98 <__subdf3+0x3c0>
 4010274:	7361883a 	add	r16,r14,r13
 4010278:	4bc9883a 	add	r4,r9,r15
 401027c:	839d803a 	cmpltu	r14,r16,r14
 4010280:	2389883a 	add	r4,r4,r14
 4010284:	2080202c 	andhi	r2,r4,128
 4010288:	103fa71e 	bne	r2,zero,4010128 <__subdf3+0x550>
 401028c:	04800044 	movi	r18,1
 4010290:	003f1f06 	br	400ff10 <__subdf3+0x338>
 4010294:	7806977a 	slli	r3,r15,29
 4010298:	00880034 	movhi	r2,8192
 401029c:	10bfffc4 	addi	r2,r2,-1
 40102a0:	3084703a 	and	r2,r6,r2
 40102a4:	7812d0fa 	srli	r9,r15,3
 40102a8:	10c4b03a 	or	r2,r2,r3
 40102ac:	003f3a06 	br	400ff98 <__subdf3+0x3c0>
 40102b0:	7361c83a 	sub	r16,r14,r13
 40102b4:	4bc9c83a 	sub	r4,r9,r15
 40102b8:	741d803a 	cmpltu	r14,r14,r16
 40102bc:	2389c83a 	sub	r4,r4,r14
 40102c0:	04800044 	movi	r18,1
 40102c4:	003e7d06 	br	400fcbc <__subdf3+0xe4>
 40102c8:	480a977a 	slli	r5,r9,29
 40102cc:	00880034 	movhi	r2,8192
 40102d0:	10bfffc4 	addi	r2,r2,-1
 40102d4:	2084703a 	and	r2,r4,r2
 40102d8:	4812d0fa 	srli	r9,r9,3
 40102dc:	1144b03a 	or	r2,r2,r5
 40102e0:	003f1406 	br	400ff34 <__subdf3+0x35c>
 40102e4:	4b92b03a 	or	r9,r9,r14
 40102e8:	4820c03a 	cmpne	r16,r9,zero
 40102ec:	003f5306 	br	401003c <__subdf3+0x464>
 40102f0:	1c3ff804 	addi	r16,r3,-32
 40102f4:	19000820 	cmpeqi	r4,r3,32
 40102f8:	4c04d83a 	srl	r2,r9,r16
 40102fc:	2000041e 	bne	r4,zero,4010310 <__subdf3+0x738>
 4010300:	01001004 	movi	r4,64
 4010304:	20c7c83a 	sub	r3,r4,r3
 4010308:	48d2983a 	sll	r9,r9,r3
 401030c:	725cb03a 	or	r14,r14,r9
 4010310:	7020c03a 	cmpne	r16,r14,zero
 4010314:	80a0b03a 	or	r16,r16,r2
 4010318:	003f9b06 	br	4010188 <__subdf3+0x5b0>
 401031c:	103fdd26 	beq	r2,zero,4010294 <__subdf3+0x6bc>
 4010320:	7b5ab03a 	or	r13,r15,r13
 4010324:	480a977a 	slli	r5,r9,29
 4010328:	4812d0fa 	srli	r9,r9,3
 401032c:	6800251e 	bne	r13,zero,40103c4 <__subdf3+0x7ec>
 4010330:	00880034 	movhi	r2,8192
 4010334:	10bfffc4 	addi	r2,r2,-1
 4010338:	2084703a 	and	r2,r4,r2
 401033c:	1144b03a 	or	r2,r2,r5
 4010340:	003f1506 	br	400ff98 <__subdf3+0x3c0>
 4010344:	103f7526 	beq	r2,zero,401011c <__subdf3+0x544>
 4010348:	7808977a 	slli	r4,r15,29
 401034c:	00880034 	movhi	r2,8192
 4010350:	10bfffc4 	addi	r2,r2,-1
 4010354:	3084703a 	and	r2,r6,r2
 4010358:	7812d0fa 	srli	r9,r15,3
 401035c:	1104b03a 	or	r2,r2,r4
 4010360:	5823883a 	mov	r17,r11
 4010364:	003ef306 	br	400ff34 <__subdf3+0x35c>
 4010368:	6ba1c83a 	sub	r16,r13,r14
 401036c:	7a49c83a 	sub	r4,r15,r9
 4010370:	6c1b803a 	cmpltu	r13,r13,r16
 4010374:	2349c83a 	sub	r4,r4,r13
 4010378:	04800044 	movi	r18,1
 401037c:	003e4f06 	br	400fcbc <__subdf3+0xe4>
 4010380:	4806977a 	slli	r3,r9,29
 4010384:	00880034 	movhi	r2,8192
 4010388:	10bfffc4 	addi	r2,r2,-1
 401038c:	2084703a 	and	r2,r4,r2
 4010390:	4812d0fa 	srli	r9,r9,3
 4010394:	10c4b03a 	or	r2,r2,r3
 4010398:	003eff06 	br	400ff98 <__subdf3+0x3c0>
 401039c:	7808977a 	slli	r4,r15,29
 40103a0:	00880034 	movhi	r2,8192
 40103a4:	10bfffc4 	addi	r2,r2,-1
 40103a8:	3084703a 	and	r2,r6,r2
 40103ac:	7812d0fa 	srli	r9,r15,3
 40103b0:	1104b03a 	or	r2,r2,r4
 40103b4:	003edd06 	br	400ff2c <__subdf3+0x354>
 40103b8:	480a977a 	slli	r5,r9,29
 40103bc:	4812d0fa 	srli	r9,r9,3
 40103c0:	103fdb26 	beq	r2,zero,4010330 <__subdf3+0x758>
 40103c4:	00c80034 	movhi	r3,8192
 40103c8:	18ffffc4 	addi	r3,r3,-1
 40103cc:	20c4703a 	and	r2,r4,r3
 40103d0:	4900022c 	andhi	r4,r9,8
 40103d4:	1144b03a 	or	r2,r2,r5
 40103d8:	203eef26 	beq	r4,zero,400ff98 <__subdf3+0x3c0>
 40103dc:	7808d0fa 	srli	r4,r15,3
 40103e0:	2140022c 	andhi	r5,r4,8
 40103e4:	283eec1e 	bne	r5,zero,400ff98 <__subdf3+0x3c0>
 40103e8:	7804977a 	slli	r2,r15,29
 40103ec:	30cc703a 	and	r6,r6,r3
 40103f0:	5823883a 	mov	r17,r11
 40103f4:	3084b03a 	or	r2,r6,r2
 40103f8:	2013883a 	mov	r9,r4
 40103fc:	003ee606 	br	400ff98 <__subdf3+0x3c0>
 4010400:	7808977a 	slli	r4,r15,29
 4010404:	00880034 	movhi	r2,8192
 4010408:	10bfffc4 	addi	r2,r2,-1
 401040c:	3084703a 	and	r2,r6,r2
 4010410:	7812d0fa 	srli	r9,r15,3
 4010414:	1104b03a 	or	r2,r2,r4
 4010418:	003ec606 	br	400ff34 <__subdf3+0x35c>
 401041c:	18bff804 	addi	r2,r3,-32
 4010420:	19000820 	cmpeqi	r4,r3,32
 4010424:	4884d83a 	srl	r2,r9,r2
 4010428:	2000041e 	bne	r4,zero,401043c <__subdf3+0x864>
 401042c:	01001004 	movi	r4,64
 4010430:	20c7c83a 	sub	r3,r4,r3
 4010434:	48d2983a 	sll	r9,r9,r3
 4010438:	725cb03a 	or	r14,r14,r9
 401043c:	7020c03a 	cmpne	r16,r14,zero
 4010440:	80a0b03a 	or	r16,r16,r2
 4010444:	003efd06 	br	401003c <__subdf3+0x464>
 4010448:	7361883a 	add	r16,r14,r13
 401044c:	4bc9883a 	add	r4,r9,r15
 4010450:	835b803a 	cmpltu	r13,r16,r13
 4010454:	2349883a 	add	r4,r4,r13
 4010458:	003f8a06 	br	4010284 <__subdf3+0x6ac>
 401045c:	8104b03a 	or	r2,r16,r4
 4010460:	103f2e26 	beq	r2,zero,401011c <__subdf3+0x544>
 4010464:	003eaa06 	br	400ff10 <__subdf3+0x338>
 4010468:	02400434 	movhi	r9,16
 401046c:	0023883a 	mov	r17,zero
 4010470:	00bfffc4 	movi	r2,-1
 4010474:	4a7fffc4 	addi	r9,r9,-1
 4010478:	003ec906 	br	400ffa0 <__subdf3+0x3c8>
 401047c:	0005883a 	mov	r2,zero
 4010480:	00c1ffc4 	movi	r3,2047
 4010484:	0009883a 	mov	r4,zero
 4010488:	003e4106 	br	400fd90 <__subdf3+0x1b8>

0401048c <__unorddf2>:
 401048c:	2806d53a 	srli	r3,r5,20
 4010490:	3810d53a 	srli	r8,r7,20
 4010494:	02400434 	movhi	r9,16
 4010498:	18c1ffcc 	andi	r3,r3,2047
 401049c:	4a7fffc4 	addi	r9,r9,-1
 40104a0:	18c1ffd8 	cmpnei	r3,r3,2047
 40104a4:	2a4a703a 	and	r5,r5,r9
 40104a8:	3a4e703a 	and	r7,r7,r9
 40104ac:	4201ffcc 	andi	r8,r8,2047
 40104b0:	18000426 	beq	r3,zero,40104c4 <__unorddf2+0x38>
 40104b4:	4201ffd8 	cmpnei	r8,r8,2047
 40104b8:	40000626 	beq	r8,zero,40104d4 <__unorddf2+0x48>
 40104bc:	0005883a 	mov	r2,zero
 40104c0:	f800283a 	ret
 40104c4:	290ab03a 	or	r5,r5,r4
 40104c8:	283ffa26 	beq	r5,zero,40104b4 <__unorddf2+0x28>
 40104cc:	00800044 	movi	r2,1
 40104d0:	f800283a 	ret
 40104d4:	398eb03a 	or	r7,r7,r6
 40104d8:	3804c03a 	cmpne	r2,r7,zero
 40104dc:	f800283a 	ret

040104e0 <__fixdfsi>:
 40104e0:	2806d53a 	srli	r3,r5,20
 40104e4:	01800434 	movhi	r6,16
 40104e8:	31bfffc4 	addi	r6,r6,-1
 40104ec:	18c1ffcc 	andi	r3,r3,2047
 40104f0:	19c0ffd0 	cmplti	r7,r3,1023
 40104f4:	2810d7fa 	srli	r8,r5,31
 40104f8:	298a703a 	and	r5,r5,r6
 40104fc:	3800061e 	bne	r7,zero,4010518 <__fixdfsi+0x38>
 4010500:	18810790 	cmplti	r2,r3,1054
 4010504:	1000061e 	bne	r2,zero,4010520 <__fixdfsi+0x40>
 4010508:	00a00034 	movhi	r2,32768
 401050c:	10bfffc4 	addi	r2,r2,-1
 4010510:	4085883a 	add	r2,r8,r2
 4010514:	f800283a 	ret
 4010518:	0005883a 	mov	r2,zero
 401051c:	f800283a 	ret
 4010520:	01810cc4 	movi	r6,1075
 4010524:	30cdc83a 	sub	r6,r6,r3
 4010528:	30800808 	cmpgei	r2,r6,32
 401052c:	29400434 	orhi	r5,r5,16
 4010530:	1000071e 	bne	r2,zero,4010550 <__fixdfsi+0x70>
 4010534:	18befb44 	addi	r2,r3,-1043
 4010538:	2884983a 	sll	r2,r5,r2
 401053c:	2188d83a 	srl	r4,r4,r6
 4010540:	1104b03a 	or	r2,r2,r4
 4010544:	403ff526 	beq	r8,zero,401051c <__fixdfsi+0x3c>
 4010548:	0085c83a 	sub	r2,zero,r2
 401054c:	f800283a 	ret
 4010550:	008104c4 	movi	r2,1043
 4010554:	10c5c83a 	sub	r2,r2,r3
 4010558:	2884d83a 	srl	r2,r5,r2
 401055c:	003ff906 	br	4010544 <__fixdfsi+0x64>

04010560 <__floatsidf>:
 4010560:	defffd04 	addi	sp,sp,-12
 4010564:	dfc00215 	stw	ra,8(sp)
 4010568:	dc400115 	stw	r17,4(sp)
 401056c:	dc000015 	stw	r16,0(sp)
 4010570:	20001326 	beq	r4,zero,40105c0 <__floatsidf+0x60>
 4010574:	2022d7fa 	srli	r17,r4,31
 4010578:	2021883a 	mov	r16,r4
 401057c:	20002416 	blt	r4,zero,4010610 <__floatsidf+0xb0>
 4010580:	8009883a 	mov	r4,r16
 4010584:	40025880 	call	4002588 <__clzsi2>
 4010588:	01010784 	movi	r4,1054
 401058c:	2089c83a 	sub	r4,r4,r2
 4010590:	114002c8 	cmpgei	r5,r2,11
 4010594:	20c1ffcc 	andi	r3,r4,2047
 4010598:	2800161e 	bne	r5,zero,40105f4 <__floatsidf+0x94>
 401059c:	010002c4 	movi	r4,11
 40105a0:	2089c83a 	sub	r4,r4,r2
 40105a4:	810ad83a 	srl	r5,r16,r4
 40105a8:	01000434 	movhi	r4,16
 40105ac:	10800544 	addi	r2,r2,21
 40105b0:	213fffc4 	addi	r4,r4,-1
 40105b4:	8084983a 	sll	r2,r16,r2
 40105b8:	290a703a 	and	r5,r5,r4
 40105bc:	00000406 	br	40105d0 <__floatsidf+0x70>
 40105c0:	0023883a 	mov	r17,zero
 40105c4:	0007883a 	mov	r3,zero
 40105c8:	000b883a 	mov	r5,zero
 40105cc:	0005883a 	mov	r2,zero
 40105d0:	1808953a 	slli	r4,r3,20
 40105d4:	880697fa 	slli	r3,r17,31
 40105d8:	2148b03a 	or	r4,r4,r5
 40105dc:	20c6b03a 	or	r3,r4,r3
 40105e0:	dfc00217 	ldw	ra,8(sp)
 40105e4:	dc400117 	ldw	r17,4(sp)
 40105e8:	dc000017 	ldw	r16,0(sp)
 40105ec:	dec00304 	addi	sp,sp,12
 40105f0:	f800283a 	ret
 40105f4:	10bffd44 	addi	r2,r2,-11
 40105f8:	808a983a 	sll	r5,r16,r2
 40105fc:	00800434 	movhi	r2,16
 4010600:	10bfffc4 	addi	r2,r2,-1
 4010604:	288a703a 	and	r5,r5,r2
 4010608:	0005883a 	mov	r2,zero
 401060c:	003ff006 	br	40105d0 <__floatsidf+0x70>
 4010610:	0121c83a 	sub	r16,zero,r4
 4010614:	003fda06 	br	4010580 <__floatsidf+0x20>

04010618 <__floatunsidf>:
 4010618:	defffe04 	addi	sp,sp,-8
 401061c:	dc000015 	stw	r16,0(sp)
 4010620:	dfc00115 	stw	ra,4(sp)
 4010624:	2021883a 	mov	r16,r4
 4010628:	20000f26 	beq	r4,zero,4010668 <__floatunsidf+0x50>
 401062c:	40025880 	call	4002588 <__clzsi2>
 4010630:	00c10784 	movi	r3,1054
 4010634:	1887c83a 	sub	r3,r3,r2
 4010638:	110002c8 	cmpgei	r4,r2,11
 401063c:	18c1ffcc 	andi	r3,r3,2047
 4010640:	2000121e 	bne	r4,zero,401068c <__floatunsidf+0x74>
 4010644:	014002c4 	movi	r5,11
 4010648:	288bc83a 	sub	r5,r5,r2
 401064c:	814ad83a 	srl	r5,r16,r5
 4010650:	01000434 	movhi	r4,16
 4010654:	10800544 	addi	r2,r2,21
 4010658:	213fffc4 	addi	r4,r4,-1
 401065c:	80a0983a 	sll	r16,r16,r2
 4010660:	290a703a 	and	r5,r5,r4
 4010664:	00000206 	br	4010670 <__floatunsidf+0x58>
 4010668:	0007883a 	mov	r3,zero
 401066c:	000b883a 	mov	r5,zero
 4010670:	1806953a 	slli	r3,r3,20
 4010674:	8005883a 	mov	r2,r16
 4010678:	1946b03a 	or	r3,r3,r5
 401067c:	dfc00117 	ldw	ra,4(sp)
 4010680:	dc000017 	ldw	r16,0(sp)
 4010684:	dec00204 	addi	sp,sp,8
 4010688:	f800283a 	ret
 401068c:	117ffd44 	addi	r5,r2,-11
 4010690:	814a983a 	sll	r5,r16,r5
 4010694:	00800434 	movhi	r2,16
 4010698:	10bfffc4 	addi	r2,r2,-1
 401069c:	288a703a 	and	r5,r5,r2
 40106a0:	0021883a 	mov	r16,zero
 40106a4:	003ff206 	br	4010670 <__floatunsidf+0x58>

040106a8 <alt_get_errno>:
#undef errno

extern int errno;

static ALT_INLINE int* alt_get_errno(void)
{
 40106a8:	defffe04 	addi	sp,sp,-8
 40106ac:	dfc00115 	stw	ra,4(sp)
 40106b0:	df000015 	stw	fp,0(sp)
 40106b4:	d839883a 	mov	fp,sp
  return ((alt_errno) ? alt_errno() : &errno);
 40106b8:	d0a00b17 	ldw	r2,-32724(gp)
 40106bc:	10000326 	beq	r2,zero,40106cc <alt_get_errno+0x24>
 40106c0:	d0a00b17 	ldw	r2,-32724(gp)
 40106c4:	103ee83a 	callr	r2
 40106c8:	00000106 	br	40106d0 <alt_get_errno+0x28>
 40106cc:	d0a2fd04 	addi	r2,gp,-29708
}
 40106d0:	e037883a 	mov	sp,fp
 40106d4:	dfc00117 	ldw	ra,4(sp)
 40106d8:	df000017 	ldw	fp,0(sp)
 40106dc:	dec00204 	addi	sp,sp,8
 40106e0:	f800283a 	ret

040106e4 <close>:
 *
 * ALT_CLOSE is mapped onto the close() system call in alt_syscall.h
 */
 
int ALT_CLOSE (int fildes)
{
 40106e4:	defffb04 	addi	sp,sp,-20
 40106e8:	dfc00415 	stw	ra,16(sp)
 40106ec:	df000315 	stw	fp,12(sp)
 40106f0:	df000304 	addi	fp,sp,12
 40106f4:	e13ffd15 	stw	r4,-12(fp)
   * A common error case is that when the file descriptor was created, the call
   * to open() failed resulting in a negative file descriptor. This is trapped
   * below so that we don't try and process an invalid file descriptor.
   */

  fd = (fildes < 0) ? NULL : &alt_fd_list[fildes];
 40106f8:	e0bffd17 	ldw	r2,-12(fp)
 40106fc:	10000916 	blt	r2,zero,4010724 <close+0x40>
 4010700:	e0fffd17 	ldw	r3,-12(fp)
 4010704:	1805883a 	mov	r2,r3
 4010708:	1085883a 	add	r2,r2,r2
 401070c:	10c5883a 	add	r2,r2,r3
 4010710:	100490ba 	slli	r2,r2,2
 4010714:	00c10074 	movhi	r3,1025
 4010718:	18cc4a04 	addi	r3,r3,12584
 401071c:	10c5883a 	add	r2,r2,r3
 4010720:	00000106 	br	4010728 <close+0x44>
 4010724:	0005883a 	mov	r2,zero
 4010728:	e0bfff15 	stw	r2,-4(fp)

  if (fd)
 401072c:	e0bfff17 	ldw	r2,-4(fp)
 4010730:	10001926 	beq	r2,zero,4010798 <close+0xb4>
    /*
     * If the associated file system/device has a close function, call it so 
     * that any necessary cleanup code can run.
     */

    rval = (fd->dev->close) ? fd->dev->close(fd) : 0;
 4010734:	e0bfff17 	ldw	r2,-4(fp)
 4010738:	10800017 	ldw	r2,0(r2)
 401073c:	10800417 	ldw	r2,16(r2)
 4010740:	10000626 	beq	r2,zero,401075c <close+0x78>
 4010744:	e0bfff17 	ldw	r2,-4(fp)
 4010748:	10800017 	ldw	r2,0(r2)
 401074c:	10800417 	ldw	r2,16(r2)
 4010750:	e13fff17 	ldw	r4,-4(fp)
 4010754:	103ee83a 	callr	r2
 4010758:	00000106 	br	4010760 <close+0x7c>
 401075c:	0005883a 	mov	r2,zero
 4010760:	e0bffe15 	stw	r2,-8(fp)

    /* Free the file descriptor structure and return. */

    alt_release_fd (fildes);
 4010764:	e13ffd17 	ldw	r4,-12(fp)
 4010768:	40112380 	call	4011238 <alt_release_fd>
    if (rval < 0)
 401076c:	e0bffe17 	ldw	r2,-8(fp)
 4010770:	1000070e 	bge	r2,zero,4010790 <close+0xac>
    {
      ALT_ERRNO = -rval;
 4010774:	40106a80 	call	40106a8 <alt_get_errno>
 4010778:	1007883a 	mov	r3,r2
 401077c:	e0bffe17 	ldw	r2,-8(fp)
 4010780:	0085c83a 	sub	r2,zero,r2
 4010784:	18800015 	stw	r2,0(r3)
      return -1;
 4010788:	00bfffc4 	movi	r2,-1
 401078c:	00000706 	br	40107ac <close+0xc8>
    }
    return 0;
 4010790:	0005883a 	mov	r2,zero
 4010794:	00000506 	br	40107ac <close+0xc8>
  }
  else
  {
    ALT_ERRNO = EBADFD;
 4010798:	40106a80 	call	40106a8 <alt_get_errno>
 401079c:	1007883a 	mov	r3,r2
 40107a0:	00801444 	movi	r2,81
 40107a4:	18800015 	stw	r2,0(r3)
    return -1;
 40107a8:	00bfffc4 	movi	r2,-1
  }
}
 40107ac:	e037883a 	mov	sp,fp
 40107b0:	dfc00117 	ldw	ra,4(sp)
 40107b4:	df000017 	ldw	fp,0(sp)
 40107b8:	dec00204 	addi	sp,sp,8
 40107bc:	f800283a 	ret

040107c0 <alt_dev_null_write>:
 * by the alt_dev_null device. It simple discards all data passed to it, and
 * indicates that the data has been successfully transmitted.
 */

static int alt_dev_null_write (alt_fd* fd, const char* ptr, int len)
{
 40107c0:	defffc04 	addi	sp,sp,-16
 40107c4:	df000315 	stw	fp,12(sp)
 40107c8:	df000304 	addi	fp,sp,12
 40107cc:	e13fff15 	stw	r4,-4(fp)
 40107d0:	e17ffe15 	stw	r5,-8(fp)
 40107d4:	e1bffd15 	stw	r6,-12(fp)
  return len;
 40107d8:	e0bffd17 	ldw	r2,-12(fp)
}
 40107dc:	e037883a 	mov	sp,fp
 40107e0:	df000017 	ldw	fp,0(sp)
 40107e4:	dec00104 	addi	sp,sp,4
 40107e8:	f800283a 	ret

040107ec <_exit>:
 *
 * ALT_EXIT is mapped onto the _exit() system call in alt_syscall.h
 */

void ALT_EXIT (int exit_code)
{
 40107ec:	defffd04 	addi	sp,sp,-12
 40107f0:	df000215 	stw	fp,8(sp)
 40107f4:	df000204 	addi	fp,sp,8
 40107f8:	e13ffe15 	stw	r4,-8(fp)
  ALT_LOG_PRINT_BOOT("[alt_exit.c] Entering _exit() function.\r\n");
  ALT_LOG_PRINT_BOOT("[alt_exit.c] Exit code from main was %d.\r\n",exit_code);
  /* Stop all other threads */

  ALT_LOG_PRINT_BOOT("[alt_exit.c] Calling ALT_OS_STOP().\r\n");
  ALT_OS_STOP();
 40107fc:	0001883a 	nop
 4010800:	e0bffe17 	ldw	r2,-8(fp)
 4010804:	e0bfff15 	stw	r2,-4(fp)
/*
 * Routine called on exit.
 */
static ALT_INLINE ALT_ALWAYS_INLINE void alt_sim_halt(int exit_code)
{
  register int r2 asm ("r2") = exit_code;
 4010808:	e0bfff17 	ldw	r2,-4(fp)
  __asm__ volatile ("\n0:\n\taddi %0,%0, -1\n\tbgt %0,zero,0b" : : "r" (ALT_CPU_FREQ/100) ); /* Delay for >30ms */

  __asm__ volatile ("break 2" : : "r"(r2), "r"(r3) ALT_GMON_DATA );

#else /* !DEBUG_STUB */
  if (r2) {
 401080c:	10000226 	beq	r2,zero,4010818 <_exit+0x2c>
    ALT_SIM_FAIL();
 4010810:	002af070 	cmpltui	zero,zero,43969
  } else {
    ALT_SIM_PASS();
  }
#endif /* DEBUG_STUB */
}
 4010814:	00000106 	br	401081c <_exit+0x30>
    ALT_SIM_PASS();
 4010818:	002af0b0 	cmpltui	zero,zero,43970
}
 401081c:	0001883a 	nop
  ALT_SIM_HALT(exit_code);

  /* spin forever, since there's no where to go back to */

  ALT_LOG_PRINT_BOOT("[alt_exit.c] Spinning forever.\r\n");
  while (1);
 4010820:	003fff06 	br	4010820 <_exit+0x34>

04010824 <alt_get_errno>:
{
 4010824:	defffe04 	addi	sp,sp,-8
 4010828:	dfc00115 	stw	ra,4(sp)
 401082c:	df000015 	stw	fp,0(sp)
 4010830:	d839883a 	mov	fp,sp
  return ((alt_errno) ? alt_errno() : &errno);
 4010834:	d0a00b17 	ldw	r2,-32724(gp)
 4010838:	10000326 	beq	r2,zero,4010848 <alt_get_errno+0x24>
 401083c:	d0a00b17 	ldw	r2,-32724(gp)
 4010840:	103ee83a 	callr	r2
 4010844:	00000106 	br	401084c <alt_get_errno+0x28>
 4010848:	d0a2fd04 	addi	r2,gp,-29708
}
 401084c:	e037883a 	mov	sp,fp
 4010850:	dfc00117 	ldw	ra,4(sp)
 4010854:	df000017 	ldw	fp,0(sp)
 4010858:	dec00204 	addi	sp,sp,8
 401085c:	f800283a 	ret

04010860 <fstat>:
}

#else /* !ALT_USE_DIRECT_DRIVERS */

int ALT_FSTAT (int file, struct stat *st)
{
 4010860:	defffb04 	addi	sp,sp,-20
 4010864:	dfc00415 	stw	ra,16(sp)
 4010868:	df000315 	stw	fp,12(sp)
 401086c:	df000304 	addi	fp,sp,12
 4010870:	e13ffe15 	stw	r4,-8(fp)
 4010874:	e17ffd15 	stw	r5,-12(fp)
   * A common error case is that when the file descriptor was created, the call
   * to open() failed resulting in a negative file descriptor. This is trapped
   * below so that we don't try and process an invalid file descriptor.
   */

  fd = (file < 0) ? NULL : &alt_fd_list[file];
 4010878:	e0bffe17 	ldw	r2,-8(fp)
 401087c:	10000916 	blt	r2,zero,40108a4 <fstat+0x44>
 4010880:	e0fffe17 	ldw	r3,-8(fp)
 4010884:	1805883a 	mov	r2,r3
 4010888:	1085883a 	add	r2,r2,r2
 401088c:	10c5883a 	add	r2,r2,r3
 4010890:	100490ba 	slli	r2,r2,2
 4010894:	00c10074 	movhi	r3,1025
 4010898:	18cc4a04 	addi	r3,r3,12584
 401089c:	10c5883a 	add	r2,r2,r3
 40108a0:	00000106 	br	40108a8 <fstat+0x48>
 40108a4:	0005883a 	mov	r2,zero
 40108a8:	e0bfff15 	stw	r2,-4(fp)
  
  if (fd)
 40108ac:	e0bfff17 	ldw	r2,-4(fp)
 40108b0:	10001026 	beq	r2,zero,40108f4 <fstat+0x94>
  {
    /* Call the drivers fstat() function to fill out the "st" structure. */

    if (fd->dev->fstat)
 40108b4:	e0bfff17 	ldw	r2,-4(fp)
 40108b8:	10800017 	ldw	r2,0(r2)
 40108bc:	10800817 	ldw	r2,32(r2)
 40108c0:	10000726 	beq	r2,zero,40108e0 <fstat+0x80>
    {
      return fd->dev->fstat(fd, st);
 40108c4:	e0bfff17 	ldw	r2,-4(fp)
 40108c8:	10800017 	ldw	r2,0(r2)
 40108cc:	10800817 	ldw	r2,32(r2)
 40108d0:	e17ffd17 	ldw	r5,-12(fp)
 40108d4:	e13fff17 	ldw	r4,-4(fp)
 40108d8:	103ee83a 	callr	r2
 40108dc:	00000a06 	br	4010908 <fstat+0xa8>
     * device.
     */
 
    else
    {
      st->st_mode = _IFCHR;
 40108e0:	e0bffd17 	ldw	r2,-12(fp)
 40108e4:	00c80004 	movi	r3,8192
 40108e8:	10c00115 	stw	r3,4(r2)
      return 0;
 40108ec:	0005883a 	mov	r2,zero
 40108f0:	00000506 	br	4010908 <fstat+0xa8>
    }
  }
  else
  {
    ALT_ERRNO = EBADFD;
 40108f4:	40108240 	call	4010824 <alt_get_errno>
 40108f8:	1007883a 	mov	r3,r2
 40108fc:	00801444 	movi	r2,81
 4010900:	18800015 	stw	r2,0(r3)
    return -1;
 4010904:	00bfffc4 	movi	r2,-1
  }
}
 4010908:	e037883a 	mov	sp,fp
 401090c:	dfc00117 	ldw	ra,4(sp)
 4010910:	df000017 	ldw	fp,0(sp)
 4010914:	dec00204 	addi	sp,sp,8
 4010918:	f800283a 	ret

0401091c <getpid>:
 *
 * ALT_GETPID is mapped onto the getpid() system call in alt_syscall.h
 */
 
int ALT_GETPID (void)
{
 401091c:	deffff04 	addi	sp,sp,-4
 4010920:	df000015 	stw	fp,0(sp)
 4010924:	d839883a 	mov	fp,sp
  return 0;
 4010928:	0005883a 	mov	r2,zero
}
 401092c:	e037883a 	mov	sp,fp
 4010930:	df000017 	ldw	fp,0(sp)
 4010934:	dec00104 	addi	sp,sp,4
 4010938:	f800283a 	ret

0401093c <alt_ic_isr_register>:
  * @param irq              IRQ number
  * @return                 0 if successful, else error (-1)
  */
int alt_ic_isr_register(alt_u32 ic_id, alt_u32 irq, alt_isr_func isr, 
  void *isr_context, void *flags)
{
 401093c:	defff904 	addi	sp,sp,-28
 4010940:	dfc00615 	stw	ra,24(sp)
 4010944:	df000515 	stw	fp,20(sp)
 4010948:	df000504 	addi	fp,sp,20
 401094c:	e13fff15 	stw	r4,-4(fp)
 4010950:	e17ffe15 	stw	r5,-8(fp)
 4010954:	e1bffd15 	stw	r6,-12(fp)
 4010958:	e1fffc15 	stw	r7,-16(fp)
    return alt_iic_isr_register(ic_id, irq, isr, isr_context, flags);
 401095c:	e0800217 	ldw	r2,8(fp)
 4010960:	d8800015 	stw	r2,0(sp)
 4010964:	e1fffc17 	ldw	r7,-16(fp)
 4010968:	e1bffd17 	ldw	r6,-12(fp)
 401096c:	e17ffe17 	ldw	r5,-8(fp)
 4010970:	e13fff17 	ldw	r4,-4(fp)
 4010974:	4010aec0 	call	4010aec <alt_iic_isr_register>
}  
 4010978:	e037883a 	mov	sp,fp
 401097c:	dfc00117 	ldw	ra,4(sp)
 4010980:	df000017 	ldw	fp,0(sp)
 4010984:	dec00204 	addi	sp,sp,8
 4010988:	f800283a 	ret

0401098c <alt_ic_irq_enable>:
  * @param ic_id            Ignored.
  * @param irq              IRQ number
  * @return                 0 if successful, else error (-1)
  */
int alt_ic_irq_enable (alt_u32 ic_id, alt_u32 irq)
{
 401098c:	defff904 	addi	sp,sp,-28
 4010990:	df000615 	stw	fp,24(sp)
 4010994:	df000604 	addi	fp,sp,24
 4010998:	e13ffb15 	stw	r4,-20(fp)
 401099c:	e17ffa15 	stw	r5,-24(fp)
 40109a0:	e0bffa17 	ldw	r2,-24(fp)
 40109a4:	e0bfff15 	stw	r2,-4(fp)
  NIOS2_READ_STATUS (context);
 40109a8:	0005303a 	rdctl	r2,status
 40109ac:	e0bffe15 	stw	r2,-8(fp)
  NIOS2_WRITE_STATUS (context & ~NIOS2_STATUS_PIE_MSK);
 40109b0:	e0fffe17 	ldw	r3,-8(fp)
 40109b4:	00bfff84 	movi	r2,-2
 40109b8:	1884703a 	and	r2,r3,r2
 40109bc:	1001703a 	wrctl	status,r2
  return context;
 40109c0:	e0bffe17 	ldw	r2,-8(fp)
static ALT_INLINE int ALT_ALWAYS_INLINE alt_irq_enable (alt_u32 id)
{
  alt_irq_context  status;
  extern volatile alt_u32 alt_irq_active;

  status = alt_irq_disable_all ();
 40109c4:	e0bffd15 	stw	r2,-12(fp)

  alt_irq_active |= (1 << id);
 40109c8:	00c00044 	movi	r3,1
 40109cc:	e0bfff17 	ldw	r2,-4(fp)
 40109d0:	1884983a 	sll	r2,r3,r2
 40109d4:	1007883a 	mov	r3,r2
 40109d8:	d0a2ff17 	ldw	r2,-29700(gp)
 40109dc:	1884b03a 	or	r2,r3,r2
 40109e0:	d0a2ff15 	stw	r2,-29700(gp)
  NIOS2_WRITE_IENABLE (alt_irq_active);
 40109e4:	d0a2ff17 	ldw	r2,-29700(gp)
 40109e8:	100170fa 	wrctl	ienable,r2
 40109ec:	e0bffd17 	ldw	r2,-12(fp)
 40109f0:	e0bffc15 	stw	r2,-16(fp)
  NIOS2_WRITE_STATUS (context);
 40109f4:	e0bffc17 	ldw	r2,-16(fp)
 40109f8:	1001703a 	wrctl	status,r2
}
 40109fc:	0001883a 	nop

  alt_irq_enable_all(status);

  return 0;
 4010a00:	0005883a 	mov	r2,zero
    return alt_irq_enable(irq);
}
 4010a04:	e037883a 	mov	sp,fp
 4010a08:	df000017 	ldw	fp,0(sp)
 4010a0c:	dec00104 	addi	sp,sp,4
 4010a10:	f800283a 	ret

04010a14 <alt_ic_irq_disable>:
  * @param ic_id            Ignored.
  * @param irq              IRQ number
  * @return                 0 if successful, else error (-1)
  */
int alt_ic_irq_disable(alt_u32 ic_id, alt_u32 irq)
{
 4010a14:	defff904 	addi	sp,sp,-28
 4010a18:	df000615 	stw	fp,24(sp)
 4010a1c:	df000604 	addi	fp,sp,24
 4010a20:	e13ffb15 	stw	r4,-20(fp)
 4010a24:	e17ffa15 	stw	r5,-24(fp)
 4010a28:	e0bffa17 	ldw	r2,-24(fp)
 4010a2c:	e0bfff15 	stw	r2,-4(fp)
  NIOS2_READ_STATUS (context);
 4010a30:	0005303a 	rdctl	r2,status
 4010a34:	e0bffe15 	stw	r2,-8(fp)
  NIOS2_WRITE_STATUS (context & ~NIOS2_STATUS_PIE_MSK);
 4010a38:	e0fffe17 	ldw	r3,-8(fp)
 4010a3c:	00bfff84 	movi	r2,-2
 4010a40:	1884703a 	and	r2,r3,r2
 4010a44:	1001703a 	wrctl	status,r2
  return context;
 4010a48:	e0bffe17 	ldw	r2,-8(fp)
  status = alt_irq_disable_all ();
 4010a4c:	e0bffd15 	stw	r2,-12(fp)
  alt_irq_active &= ~(1 << id);
 4010a50:	00c00044 	movi	r3,1
 4010a54:	e0bfff17 	ldw	r2,-4(fp)
 4010a58:	1884983a 	sll	r2,r3,r2
 4010a5c:	0084303a 	nor	r2,zero,r2
 4010a60:	1007883a 	mov	r3,r2
 4010a64:	d0a2ff17 	ldw	r2,-29700(gp)
 4010a68:	1884703a 	and	r2,r3,r2
 4010a6c:	d0a2ff15 	stw	r2,-29700(gp)
  NIOS2_WRITE_IENABLE (alt_irq_active);
 4010a70:	d0a2ff17 	ldw	r2,-29700(gp)
 4010a74:	100170fa 	wrctl	ienable,r2
 4010a78:	e0bffd17 	ldw	r2,-12(fp)
 4010a7c:	e0bffc15 	stw	r2,-16(fp)
  NIOS2_WRITE_STATUS (context);
 4010a80:	e0bffc17 	ldw	r2,-16(fp)
 4010a84:	1001703a 	wrctl	status,r2
}
 4010a88:	0001883a 	nop
  return 0;
 4010a8c:	0005883a 	mov	r2,zero
    return alt_irq_disable(irq);
}
 4010a90:	e037883a 	mov	sp,fp
 4010a94:	df000017 	ldw	fp,0(sp)
 4010a98:	dec00104 	addi	sp,sp,4
 4010a9c:	f800283a 	ret

04010aa0 <alt_ic_irq_enabled>:
  * @param irq              IRQ number
  * @return                 Zero if corresponding interrupt is disabled and
  *                         non-zero otherwise.
  */
alt_u32 alt_ic_irq_enabled(alt_u32 ic_id, alt_u32 irq)
{
 4010aa0:	defffc04 	addi	sp,sp,-16
 4010aa4:	df000315 	stw	fp,12(sp)
 4010aa8:	df000304 	addi	fp,sp,12
 4010aac:	e13ffe15 	stw	r4,-8(fp)
 4010ab0:	e17ffd15 	stw	r5,-12(fp)
    alt_u32 irq_enabled;

    NIOS2_READ_IENABLE(irq_enabled);
 4010ab4:	000530fa 	rdctl	r2,ienable
 4010ab8:	e0bfff15 	stw	r2,-4(fp)

    return (irq_enabled & (1 << irq)) ? 1: 0;
 4010abc:	00c00044 	movi	r3,1
 4010ac0:	e0bffd17 	ldw	r2,-12(fp)
 4010ac4:	1884983a 	sll	r2,r3,r2
 4010ac8:	1007883a 	mov	r3,r2
 4010acc:	e0bfff17 	ldw	r2,-4(fp)
 4010ad0:	1884703a 	and	r2,r3,r2
 4010ad4:	1004c03a 	cmpne	r2,r2,zero
 4010ad8:	10803fcc 	andi	r2,r2,255
}
 4010adc:	e037883a 	mov	sp,fp
 4010ae0:	df000017 	ldw	fp,0(sp)
 4010ae4:	dec00104 	addi	sp,sp,4
 4010ae8:	f800283a 	ret

04010aec <alt_iic_isr_register>:
  * @param flags            
  * @return                 0 if successful, else error (-1)
  */
int alt_iic_isr_register(alt_u32 ic_id, alt_u32 irq, alt_isr_func isr, 
  void *isr_context, void *flags)
{
 4010aec:	defff504 	addi	sp,sp,-44
 4010af0:	dfc00a15 	stw	ra,40(sp)
 4010af4:	df000915 	stw	fp,36(sp)
 4010af8:	df000904 	addi	fp,sp,36
 4010afc:	e13ffa15 	stw	r4,-24(fp)
 4010b00:	e17ff915 	stw	r5,-28(fp)
 4010b04:	e1bff815 	stw	r6,-32(fp)
 4010b08:	e1fff715 	stw	r7,-36(fp)
  int rc = -EINVAL;  
 4010b0c:	00bffa84 	movi	r2,-22
 4010b10:	e0bfff15 	stw	r2,-4(fp)
  int id = irq;             /* IRQ interpreted as the interrupt ID. */
 4010b14:	e0bff917 	ldw	r2,-28(fp)
 4010b18:	e0bffe15 	stw	r2,-8(fp)
  alt_irq_context status;

  if (id < ALT_NIRQ)
 4010b1c:	e0bffe17 	ldw	r2,-8(fp)
 4010b20:	10800808 	cmpgei	r2,r2,32
 4010b24:	1000251e 	bne	r2,zero,4010bbc <alt_iic_isr_register+0xd0>
  NIOS2_READ_STATUS (context);
 4010b28:	0005303a 	rdctl	r2,status
 4010b2c:	e0bffc15 	stw	r2,-16(fp)
  NIOS2_WRITE_STATUS (context & ~NIOS2_STATUS_PIE_MSK);
 4010b30:	e0fffc17 	ldw	r3,-16(fp)
 4010b34:	00bfff84 	movi	r2,-2
 4010b38:	1884703a 	and	r2,r3,r2
 4010b3c:	1001703a 	wrctl	status,r2
  return context;
 4010b40:	e0bffc17 	ldw	r2,-16(fp)
     * interrupts are disabled while the handler tables are updated to ensure
     * that an interrupt doesn't occur while the tables are in an inconsistant
     * state.
     */

    status = alt_irq_disable_all();
 4010b44:	e0bffd15 	stw	r2,-12(fp)

    alt_irq[id].handler = isr;
 4010b48:	e0bffe17 	ldw	r2,-8(fp)
 4010b4c:	100890fa 	slli	r4,r2,3
 4010b50:	e0fff817 	ldw	r3,-32(fp)
 4010b54:	00810074 	movhi	r2,1025
 4010b58:	2085883a 	add	r2,r4,r2
 4010b5c:	10d0c315 	stw	r3,17164(r2)
    alt_irq[id].context = isr_context;
 4010b60:	e0bffe17 	ldw	r2,-8(fp)
 4010b64:	100890fa 	slli	r4,r2,3
 4010b68:	e0fff717 	ldw	r3,-36(fp)
 4010b6c:	00810074 	movhi	r2,1025
 4010b70:	2085883a 	add	r2,r4,r2
 4010b74:	10d0c415 	stw	r3,17168(r2)

    rc = (isr) ? alt_ic_irq_enable(ic_id, id) : alt_ic_irq_disable(ic_id, id);
 4010b78:	e0bff817 	ldw	r2,-32(fp)
 4010b7c:	10000526 	beq	r2,zero,4010b94 <alt_iic_isr_register+0xa8>
 4010b80:	e0bffe17 	ldw	r2,-8(fp)
 4010b84:	100b883a 	mov	r5,r2
 4010b88:	e13ffa17 	ldw	r4,-24(fp)
 4010b8c:	401098c0 	call	401098c <alt_ic_irq_enable>
 4010b90:	00000406 	br	4010ba4 <alt_iic_isr_register+0xb8>
 4010b94:	e0bffe17 	ldw	r2,-8(fp)
 4010b98:	100b883a 	mov	r5,r2
 4010b9c:	e13ffa17 	ldw	r4,-24(fp)
 4010ba0:	4010a140 	call	4010a14 <alt_ic_irq_disable>
 4010ba4:	e0bfff15 	stw	r2,-4(fp)
 4010ba8:	e0bffd17 	ldw	r2,-12(fp)
 4010bac:	e0bffb15 	stw	r2,-20(fp)
  NIOS2_WRITE_STATUS (context);
 4010bb0:	e0bffb17 	ldw	r2,-20(fp)
 4010bb4:	1001703a 	wrctl	status,r2
}
 4010bb8:	0001883a 	nop

    alt_irq_enable_all(status);
  }

  return rc; 
 4010bbc:	e0bfff17 	ldw	r2,-4(fp)
}
 4010bc0:	e037883a 	mov	sp,fp
 4010bc4:	dfc00117 	ldw	ra,4(sp)
 4010bc8:	df000017 	ldw	fp,0(sp)
 4010bcc:	dec00204 	addi	sp,sp,8
 4010bd0:	f800283a 	ret

04010bd4 <alt_get_errno>:
{
 4010bd4:	defffe04 	addi	sp,sp,-8
 4010bd8:	dfc00115 	stw	ra,4(sp)
 4010bdc:	df000015 	stw	fp,0(sp)
 4010be0:	d839883a 	mov	fp,sp
  return ((alt_errno) ? alt_errno() : &errno);
 4010be4:	d0a00b17 	ldw	r2,-32724(gp)
 4010be8:	10000326 	beq	r2,zero,4010bf8 <alt_get_errno+0x24>
 4010bec:	d0a00b17 	ldw	r2,-32724(gp)
 4010bf0:	103ee83a 	callr	r2
 4010bf4:	00000106 	br	4010bfc <alt_get_errno+0x28>
 4010bf8:	d0a2fd04 	addi	r2,gp,-29708
}
 4010bfc:	e037883a 	mov	sp,fp
 4010c00:	dfc00117 	ldw	ra,4(sp)
 4010c04:	df000017 	ldw	fp,0(sp)
 4010c08:	dec00204 	addi	sp,sp,8
 4010c0c:	f800283a 	ret

04010c10 <isatty>:
 *
 * ALT_ISATTY is mapped onto the isatty() system call in alt_syscall.h
 */
 
int ALT_ISATTY (int file)
{
 4010c10:	deffea04 	addi	sp,sp,-88
 4010c14:	dfc01515 	stw	ra,84(sp)
 4010c18:	df001415 	stw	fp,80(sp)
 4010c1c:	df001404 	addi	fp,sp,80
 4010c20:	e13fec15 	stw	r4,-80(fp)
   * A common error case is that when the file descriptor was created, the call
   * to open() failed resulting in a negative file descriptor. This is trapped
   * below so that we don't try and process an invalid file descriptor.
   */

  fd = (file < 0) ? NULL : &alt_fd_list[file];
 4010c24:	e0bfec17 	ldw	r2,-80(fp)
 4010c28:	10000916 	blt	r2,zero,4010c50 <isatty+0x40>
 4010c2c:	e0ffec17 	ldw	r3,-80(fp)
 4010c30:	1805883a 	mov	r2,r3
 4010c34:	1085883a 	add	r2,r2,r2
 4010c38:	10c5883a 	add	r2,r2,r3
 4010c3c:	100490ba 	slli	r2,r2,2
 4010c40:	00c10074 	movhi	r3,1025
 4010c44:	18cc4a04 	addi	r3,r3,12584
 4010c48:	10c5883a 	add	r2,r2,r3
 4010c4c:	00000106 	br	4010c54 <isatty+0x44>
 4010c50:	0005883a 	mov	r2,zero
 4010c54:	e0bfff15 	stw	r2,-4(fp)
  
  if (fd)
 4010c58:	e0bfff17 	ldw	r2,-4(fp)
 4010c5c:	10000e26 	beq	r2,zero,4010c98 <isatty+0x88>
    /*
     * If a device driver does not provide an fstat() function, then it is 
     * treated as a terminal device by default.
     */

    if (!fd->dev->fstat)
 4010c60:	e0bfff17 	ldw	r2,-4(fp)
 4010c64:	10800017 	ldw	r2,0(r2)
 4010c68:	10800817 	ldw	r2,32(r2)
 4010c6c:	1000021e 	bne	r2,zero,4010c78 <isatty+0x68>
    {
      return 1;
 4010c70:	00800044 	movi	r2,1
 4010c74:	00000d06 	br	4010cac <isatty+0x9c>
     * this is called so that the device can identify itself.
     */ 

    else
    {
      fstat (file, &stat);
 4010c78:	e0bfed04 	addi	r2,fp,-76
 4010c7c:	100b883a 	mov	r5,r2
 4010c80:	e13fec17 	ldw	r4,-80(fp)
 4010c84:	40108600 	call	4010860 <fstat>
      return (stat.st_mode == _IFCHR) ? 1 : 0;
 4010c88:	e0bfee17 	ldw	r2,-72(fp)
 4010c8c:	10880020 	cmpeqi	r2,r2,8192
 4010c90:	10803fcc 	andi	r2,r2,255
 4010c94:	00000506 	br	4010cac <isatty+0x9c>
    }
  }
  else
  {
    ALT_ERRNO = EBADFD;
 4010c98:	4010bd40 	call	4010bd4 <alt_get_errno>
 4010c9c:	1007883a 	mov	r3,r2
 4010ca0:	00801444 	movi	r2,81
 4010ca4:	18800015 	stw	r2,0(r3)
    return 0;
 4010ca8:	0005883a 	mov	r2,zero
  }
}
 4010cac:	e037883a 	mov	sp,fp
 4010cb0:	dfc00117 	ldw	ra,4(sp)
 4010cb4:	df000017 	ldw	fp,0(sp)
 4010cb8:	dec00204 	addi	sp,sp,8
 4010cbc:	f800283a 	ret

04010cc0 <alt_get_errno>:
{
 4010cc0:	defffe04 	addi	sp,sp,-8
 4010cc4:	dfc00115 	stw	ra,4(sp)
 4010cc8:	df000015 	stw	fp,0(sp)
 4010ccc:	d839883a 	mov	fp,sp
  return ((alt_errno) ? alt_errno() : &errno);
 4010cd0:	d0a00b17 	ldw	r2,-32724(gp)
 4010cd4:	10000326 	beq	r2,zero,4010ce4 <alt_get_errno+0x24>
 4010cd8:	d0a00b17 	ldw	r2,-32724(gp)
 4010cdc:	103ee83a 	callr	r2
 4010ce0:	00000106 	br	4010ce8 <alt_get_errno+0x28>
 4010ce4:	d0a2fd04 	addi	r2,gp,-29708
}
 4010ce8:	e037883a 	mov	sp,fp
 4010cec:	dfc00117 	ldw	ra,4(sp)
 4010cf0:	df000017 	ldw	fp,0(sp)
 4010cf4:	dec00204 	addi	sp,sp,8
 4010cf8:	f800283a 	ret

04010cfc <kill>:
 *
 * ALT_KILL is mapped onto the kill() system call in alt_syscall.h
 */

int ALT_KILL (int pid, int sig)
{
 4010cfc:	defffb04 	addi	sp,sp,-20
 4010d00:	dfc00415 	stw	ra,16(sp)
 4010d04:	df000315 	stw	fp,12(sp)
 4010d08:	df000304 	addi	fp,sp,12
 4010d0c:	e13ffe15 	stw	r4,-8(fp)
 4010d10:	e17ffd15 	stw	r5,-12(fp)
  int status = 0;
 4010d14:	e03fff15 	stw	zero,-4(fp)

  if (pid <= 0)
 4010d18:	e0bffe17 	ldw	r2,-8(fp)
 4010d1c:	00802e16 	blt	zero,r2,4010dd8 <kill+0xdc>
 4010d20:	e0bffd17 	ldw	r2,-12(fp)
 4010d24:	10800828 	cmpgeui	r2,r2,32
 4010d28:	1000281e 	bne	r2,zero,4010dcc <kill+0xd0>
 4010d2c:	e0bffd17 	ldw	r2,-12(fp)
 4010d30:	100690ba 	slli	r3,r2,2
 4010d34:	00810074 	movhi	r2,1025
 4010d38:	1885883a 	add	r2,r3,r2
 4010d3c:	10835117 	ldw	r2,3396(r2)
 4010d40:	1000683a 	jmp	r2
 4010d44:	04010dec 	andhi	r16,zero,1079
 4010d48:	04010dcc 	andi	r16,zero,1079
 4010d4c:	04010dcc 	andi	r16,zero,1079
 4010d50:	04010dc4 	movi	r16,1079
 4010d54:	04010dc4 	movi	r16,1079
 4010d58:	04010dc4 	movi	r16,1079
 4010d5c:	04010dc4 	movi	r16,1079
 4010d60:	04010dcc 	andi	r16,zero,1079
 4010d64:	04010dc4 	movi	r16,1079
 4010d68:	04010dc4 	movi	r16,1079
 4010d6c:	04010dc4 	movi	r16,1079
 4010d70:	04010dc4 	movi	r16,1079
 4010d74:	04010dc4 	movi	r16,1079
 4010d78:	04010dc4 	movi	r16,1079
 4010d7c:	04010dc4 	movi	r16,1079
 4010d80:	04010dc4 	movi	r16,1079
 4010d84:	04010dec 	andhi	r16,zero,1079
 4010d88:	04010dcc 	andi	r16,zero,1079
 4010d8c:	04010dcc 	andi	r16,zero,1079
 4010d90:	04010dcc 	andi	r16,zero,1079
 4010d94:	04010dec 	andhi	r16,zero,1079
 4010d98:	04010dcc 	andi	r16,zero,1079
 4010d9c:	04010dcc 	andi	r16,zero,1079
 4010da0:	04010dc4 	movi	r16,1079
 4010da4:	04010dc4 	movi	r16,1079
 4010da8:	04010dc4 	movi	r16,1079
 4010dac:	04010dc4 	movi	r16,1079
 4010db0:	04010dc4 	movi	r16,1079
 4010db4:	04010dcc 	andi	r16,zero,1079
 4010db8:	04010dcc 	andi	r16,zero,1079
 4010dbc:	04010dc4 	movi	r16,1079
 4010dc0:	04010dc4 	movi	r16,1079
       * The Posix standard defines the default behaviour for all these signals 
       * as being eqivalent to a call to _exit(). No mechanism is provided to 
       * change this behaviour.
       */

      _exit(0);
 4010dc4:	0009883a 	mov	r4,zero
 4010dc8:	40107ec0 	call	40107ec <_exit>
      break;
    default:

      /* Tried to send an unsupported signal */

      status = EINVAL;
 4010dcc:	00800584 	movi	r2,22
 4010dd0:	e0bfff15 	stw	r2,-4(fp)
 4010dd4:	00000606 	br	4010df0 <kill+0xf4>
    }
  }

  else if (pid > 0)
 4010dd8:	e0bffe17 	ldw	r2,-8(fp)
 4010ddc:	0080040e 	bge	zero,r2,4010df0 <kill+0xf4>
  {
    /* Attempted to signal a non-existant process */

    status = ESRCH;
 4010de0:	008000c4 	movi	r2,3
 4010de4:	e0bfff15 	stw	r2,-4(fp)
 4010de8:	00000106 	br	4010df0 <kill+0xf4>
      break;
 4010dec:	0001883a 	nop
  }

  if (status)
 4010df0:	e0bfff17 	ldw	r2,-4(fp)
 4010df4:	10000626 	beq	r2,zero,4010e10 <kill+0x114>
  {
    ALT_ERRNO = status;
 4010df8:	4010cc00 	call	4010cc0 <alt_get_errno>
 4010dfc:	1007883a 	mov	r3,r2
 4010e00:	e0bfff17 	ldw	r2,-4(fp)
 4010e04:	18800015 	stw	r2,0(r3)
    return -1;
 4010e08:	00bfffc4 	movi	r2,-1
 4010e0c:	00000106 	br	4010e14 <kill+0x118>
  }

  return 0;
 4010e10:	0005883a 	mov	r2,zero
}
 4010e14:	e037883a 	mov	sp,fp
 4010e18:	dfc00117 	ldw	ra,4(sp)
 4010e1c:	df000017 	ldw	fp,0(sp)
 4010e20:	dec00204 	addi	sp,sp,8
 4010e24:	f800283a 	ret

04010e28 <alt_load_section>:
 */

static void ALT_INLINE alt_load_section (alt_u32* from, 
                                         alt_u32* to, 
                                         alt_u32* end)
{
 4010e28:	defffc04 	addi	sp,sp,-16
 4010e2c:	df000315 	stw	fp,12(sp)
 4010e30:	df000304 	addi	fp,sp,12
 4010e34:	e13fff15 	stw	r4,-4(fp)
 4010e38:	e17ffe15 	stw	r5,-8(fp)
 4010e3c:	e1bffd15 	stw	r6,-12(fp)
  if (to != from)
 4010e40:	e0fffe17 	ldw	r3,-8(fp)
 4010e44:	e0bfff17 	ldw	r2,-4(fp)
 4010e48:	18800c26 	beq	r3,r2,4010e7c <alt_load_section+0x54>
  {
    while( to != end )
 4010e4c:	00000806 	br	4010e70 <alt_load_section+0x48>
    {
      *to++ = *from++;
 4010e50:	e0ffff17 	ldw	r3,-4(fp)
 4010e54:	18800104 	addi	r2,r3,4
 4010e58:	e0bfff15 	stw	r2,-4(fp)
 4010e5c:	e0bffe17 	ldw	r2,-8(fp)
 4010e60:	11000104 	addi	r4,r2,4
 4010e64:	e13ffe15 	stw	r4,-8(fp)
 4010e68:	18c00017 	ldw	r3,0(r3)
 4010e6c:	10c00015 	stw	r3,0(r2)
    while( to != end )
 4010e70:	e0fffe17 	ldw	r3,-8(fp)
 4010e74:	e0bffd17 	ldw	r2,-12(fp)
 4010e78:	18bff51e 	bne	r3,r2,4010e50 <alt_load_section+0x28>
    }
  }
}
 4010e7c:	0001883a 	nop
 4010e80:	e037883a 	mov	sp,fp
 4010e84:	df000017 	ldw	fp,0(sp)
 4010e88:	dec00104 	addi	sp,sp,4
 4010e8c:	f800283a 	ret

04010e90 <alt_load>:
 * there is no bootloader, so this application is responsible for loading to
 * RAM any sections that are required.
 */  

void alt_load (void)
{
 4010e90:	defffe04 	addi	sp,sp,-8
 4010e94:	dfc00115 	stw	ra,4(sp)
 4010e98:	df000015 	stw	fp,0(sp)
 4010e9c:	d839883a 	mov	fp,sp
  /* 
   * Copy the .rwdata section. 
   */

  alt_load_section (&__flash_rwdata_start, 
 4010ea0:	01810074 	movhi	r6,1025
 4010ea4:	318cb804 	addi	r6,r6,13024
 4010ea8:	01410074 	movhi	r5,1025
 4010eac:	2949da04 	addi	r5,r5,10088
 4010eb0:	01010074 	movhi	r4,1025
 4010eb4:	210cb804 	addi	r4,r4,13024
 4010eb8:	4010e280 	call	4010e28 <alt_load_section>

  /*
   * Copy the exception handler.
   */

  alt_load_section (&__flash_exceptions_start, 
 4010ebc:	01810034 	movhi	r6,1024
 4010ec0:	31808904 	addi	r6,r6,548
 4010ec4:	01410034 	movhi	r5,1024
 4010ec8:	29400804 	addi	r5,r5,32
 4010ecc:	01010034 	movhi	r4,1024
 4010ed0:	21000804 	addi	r4,r4,32
 4010ed4:	4010e280 	call	4010e28 <alt_load_section>

  /*
   * Copy the .rodata section.
   */

  alt_load_section (&__flash_rodata_start, 
 4010ed8:	01810074 	movhi	r6,1025
 4010edc:	3189da04 	addi	r6,r6,10088
 4010ee0:	01410074 	movhi	r5,1025
 4010ee4:	29481d04 	addi	r5,r5,8308
 4010ee8:	01010074 	movhi	r4,1025
 4010eec:	21081d04 	addi	r4,r4,8308
 4010ef0:	4010e280 	call	4010e28 <alt_load_section>
  
  /*
   * Now ensure that the caches are in synch.
   */
  
  alt_dcache_flush_all();
 4010ef4:	40116280 	call	4011628 <alt_dcache_flush_all>
  alt_icache_flush_all();
 4010ef8:	40117100 	call	4011710 <alt_icache_flush_all>
}
 4010efc:	0001883a 	nop
 4010f00:	e037883a 	mov	sp,fp
 4010f04:	dfc00117 	ldw	ra,4(sp)
 4010f08:	df000017 	ldw	fp,0(sp)
 4010f0c:	dec00204 	addi	sp,sp,8
 4010f10:	f800283a 	ret

04010f14 <alt_get_errno>:
{
 4010f14:	defffe04 	addi	sp,sp,-8
 4010f18:	dfc00115 	stw	ra,4(sp)
 4010f1c:	df000015 	stw	fp,0(sp)
 4010f20:	d839883a 	mov	fp,sp
  return ((alt_errno) ? alt_errno() : &errno);
 4010f24:	d0a00b17 	ldw	r2,-32724(gp)
 4010f28:	10000326 	beq	r2,zero,4010f38 <alt_get_errno+0x24>
 4010f2c:	d0a00b17 	ldw	r2,-32724(gp)
 4010f30:	103ee83a 	callr	r2
 4010f34:	00000106 	br	4010f3c <alt_get_errno+0x28>
 4010f38:	d0a2fd04 	addi	r2,gp,-29708
}
 4010f3c:	e037883a 	mov	sp,fp
 4010f40:	dfc00117 	ldw	ra,4(sp)
 4010f44:	df000017 	ldw	fp,0(sp)
 4010f48:	dec00204 	addi	sp,sp,8
 4010f4c:	f800283a 	ret

04010f50 <lseek>:
 * ALT_LSEEK is mapped onto the lseek() system call in alt_syscall.h
 *
 */

off_t ALT_LSEEK (int file, off_t ptr, int dir)
{
 4010f50:	defff904 	addi	sp,sp,-28
 4010f54:	dfc00615 	stw	ra,24(sp)
 4010f58:	df000515 	stw	fp,20(sp)
 4010f5c:	df000504 	addi	fp,sp,20
 4010f60:	e13ffd15 	stw	r4,-12(fp)
 4010f64:	e17ffc15 	stw	r5,-16(fp)
 4010f68:	e1bffb15 	stw	r6,-20(fp)
  alt_fd* fd;
  off_t   rc = 0; 
 4010f6c:	e03fff15 	stw	zero,-4(fp)
   * A common error case is that when the file descriptor was created, the call
   * to open() failed resulting in a negative file descriptor. This is trapped
   * below so that we don't try and process an invalid file descriptor.
   */

  fd = (file < 0) ? NULL : &alt_fd_list[file];
 4010f70:	e0bffd17 	ldw	r2,-12(fp)
 4010f74:	10000916 	blt	r2,zero,4010f9c <lseek+0x4c>
 4010f78:	e0fffd17 	ldw	r3,-12(fp)
 4010f7c:	1805883a 	mov	r2,r3
 4010f80:	1085883a 	add	r2,r2,r2
 4010f84:	10c5883a 	add	r2,r2,r3
 4010f88:	100490ba 	slli	r2,r2,2
 4010f8c:	00c10074 	movhi	r3,1025
 4010f90:	18cc4a04 	addi	r3,r3,12584
 4010f94:	10c5883a 	add	r2,r2,r3
 4010f98:	00000106 	br	4010fa0 <lseek+0x50>
 4010f9c:	0005883a 	mov	r2,zero
 4010fa0:	e0bffe15 	stw	r2,-8(fp)
  
  if (fd) 
 4010fa4:	e0bffe17 	ldw	r2,-8(fp)
 4010fa8:	10001026 	beq	r2,zero,4010fec <lseek+0x9c>
    /*
     * If the device driver provides an implementation of the lseek() function,
     * then call that to process the request.
     */
 
    if (fd->dev->lseek)
 4010fac:	e0bffe17 	ldw	r2,-8(fp)
 4010fb0:	10800017 	ldw	r2,0(r2)
 4010fb4:	10800717 	ldw	r2,28(r2)
 4010fb8:	10000926 	beq	r2,zero,4010fe0 <lseek+0x90>
    {
      rc = fd->dev->lseek(fd, ptr, dir);
 4010fbc:	e0bffe17 	ldw	r2,-8(fp)
 4010fc0:	10800017 	ldw	r2,0(r2)
 4010fc4:	10800717 	ldw	r2,28(r2)
 4010fc8:	e1bffb17 	ldw	r6,-20(fp)
 4010fcc:	e17ffc17 	ldw	r5,-16(fp)
 4010fd0:	e13ffe17 	ldw	r4,-8(fp)
 4010fd4:	103ee83a 	callr	r2
 4010fd8:	e0bfff15 	stw	r2,-4(fp)
 4010fdc:	00000506 	br	4010ff4 <lseek+0xa4>
     * Otherwise return an error.
     */

    else
    {
      rc = -ENOTSUP;
 4010fe0:	00bfde84 	movi	r2,-134
 4010fe4:	e0bfff15 	stw	r2,-4(fp)
 4010fe8:	00000206 	br	4010ff4 <lseek+0xa4>
    }
  }
  else  
  {
    rc = -EBADFD;
 4010fec:	00bfebc4 	movi	r2,-81
 4010ff0:	e0bfff15 	stw	r2,-4(fp)
  }

  if (rc < 0)
 4010ff4:	e0bfff17 	ldw	r2,-4(fp)
 4010ff8:	1000070e 	bge	r2,zero,4011018 <lseek+0xc8>
  {
    ALT_ERRNO = -rc;
 4010ffc:	4010f140 	call	4010f14 <alt_get_errno>
 4011000:	1007883a 	mov	r3,r2
 4011004:	e0bfff17 	ldw	r2,-4(fp)
 4011008:	0085c83a 	sub	r2,zero,r2
 401100c:	18800015 	stw	r2,0(r3)
    rc = -1;
 4011010:	00bfffc4 	movi	r2,-1
 4011014:	e0bfff15 	stw	r2,-4(fp)
  }

  return rc;
 4011018:	e0bfff17 	ldw	r2,-4(fp)
}
 401101c:	e037883a 	mov	sp,fp
 4011020:	dfc00117 	ldw	ra,4(sp)
 4011024:	df000017 	ldw	fp,0(sp)
 4011028:	dec00204 	addi	sp,sp,8
 401102c:	f800283a 	ret

04011030 <alt_main>:
 * devices/filesystems/components in the system; and call the entry point for
 * the users application, i.e. main().
 */

void alt_main (void)
{
 4011030:	defffd04 	addi	sp,sp,-12
 4011034:	dfc00215 	stw	ra,8(sp)
 4011038:	df000115 	stw	fp,4(sp)
 401103c:	df000104 	addi	fp,sp,4
#endif

  /* ALT LOG - please see HAL/sys/alt_log_printf.h for details */
  ALT_LOG_PRINT_BOOT("[alt_main.c] Entering alt_main, calling alt_irq_init.\r\n");
  /* Initialize the interrupt controller. */
  alt_irq_init (NULL);
 4011040:	0009883a 	mov	r4,zero
 4011044:	40114a00 	call	40114a0 <alt_irq_init>

  /* Initialize the operating system */
  ALT_LOG_PRINT_BOOT("[alt_main.c] Done alt_irq_init, calling alt_os_init.\r\n");
  ALT_OS_INIT();
 4011048:	0001883a 	nop
  ALT_LOG_PRINT_BOOT("[alt_main.c] Done OS Init, calling alt_sem_create.\r\n");
  ALT_SEM_CREATE (&alt_fd_list_lock, 1);

  /* Initialize the device drivers/software components. */
  ALT_LOG_PRINT_BOOT("[alt_main.c] Calling alt_sys_init.\r\n");
  alt_sys_init();
 401104c:	40114dc0 	call	40114dc <alt_sys_init>
   * devices be present (not equal to /dev/null) and if direct drivers
   * aren't being used.
   */

    ALT_LOG_PRINT_BOOT("[alt_main.c] Redirecting IO.\r\n");
    alt_io_redirect(ALT_STDOUT, ALT_STDIN, ALT_STDERR);
 4011050:	01810074 	movhi	r6,1025
 4011054:	3189d704 	addi	r6,r6,10076
 4011058:	01410074 	movhi	r5,1025
 401105c:	2949d704 	addi	r5,r5,10076
 4011060:	01010074 	movhi	r4,1025
 4011064:	2109d704 	addi	r4,r4,10076
 4011068:	401189c0 	call	401189c <alt_io_redirect>
  /* 
   * Call the C++ constructors 
   */

  ALT_LOG_PRINT_BOOT("[alt_main.c] Calling C++ constructors.\r\n");
  _do_ctors ();
 401106c:	40116480 	call	4011648 <_do_ctors>
   * redefined as _exit()). This is in the interest of reducing code footprint,
   * in that the atexit() overhead is removed when it's not needed.
   */

  ALT_LOG_PRINT_BOOT("[alt_main.c] Calling atexit.\r\n");
  atexit (_do_dtors);
 4011070:	01010074 	movhi	r4,1025
 4011074:	2105ab04 	addi	r4,r4,5804
 4011078:	4011e040 	call	4011e04 <atexit>
  ALT_LOG_PRINT_BOOT("[alt_main.c] Calling main.\r\n");

#ifdef ALT_NO_EXIT
  main (alt_argc, alt_argv, alt_envp);
#else
  result = main (alt_argc, alt_argv, alt_envp);
 401107c:	d0a30017 	ldw	r2,-29696(gp)
 4011080:	d0e30117 	ldw	r3,-29692(gp)
 4011084:	d1230217 	ldw	r4,-29688(gp)
 4011088:	200d883a 	mov	r6,r4
 401108c:	180b883a 	mov	r5,r3
 4011090:	1009883a 	mov	r4,r2
 4011094:	4000afc0 	call	4000afc <main>
 4011098:	e0bfff15 	stw	r2,-4(fp)
  close(STDOUT_FILENO);
 401109c:	01000044 	movi	r4,1
 40110a0:	40106e40 	call	40106e4 <close>
  exit (result);
 40110a4:	e13fff17 	ldw	r4,-4(fp)
 40110a8:	4011e180 	call	4011e18 <exit>

040110ac <__malloc_lock>:
 * configuration is single threaded, so there is nothing to do here. Note that 
 * this requires that malloc is never called by an interrupt service routine.
 */

void __malloc_lock ( struct _reent *_r )
{
 40110ac:	defffe04 	addi	sp,sp,-8
 40110b0:	df000115 	stw	fp,4(sp)
 40110b4:	df000104 	addi	fp,sp,4
 40110b8:	e13fff15 	stw	r4,-4(fp)
}
 40110bc:	0001883a 	nop
 40110c0:	e037883a 	mov	sp,fp
 40110c4:	df000017 	ldw	fp,0(sp)
 40110c8:	dec00104 	addi	sp,sp,4
 40110cc:	f800283a 	ret

040110d0 <__malloc_unlock>:
/*
 *
 */

void __malloc_unlock ( struct _reent *_r )
{
 40110d0:	defffe04 	addi	sp,sp,-8
 40110d4:	df000115 	stw	fp,4(sp)
 40110d8:	df000104 	addi	fp,sp,4
 40110dc:	e13fff15 	stw	r4,-4(fp)
}
 40110e0:	0001883a 	nop
 40110e4:	e037883a 	mov	sp,fp
 40110e8:	df000017 	ldw	fp,0(sp)
 40110ec:	dec00104 	addi	sp,sp,4
 40110f0:	f800283a 	ret

040110f4 <alt_get_errno>:
{
 40110f4:	defffe04 	addi	sp,sp,-8
 40110f8:	dfc00115 	stw	ra,4(sp)
 40110fc:	df000015 	stw	fp,0(sp)
 4011100:	d839883a 	mov	fp,sp
  return ((alt_errno) ? alt_errno() : &errno);
 4011104:	d0a00b17 	ldw	r2,-32724(gp)
 4011108:	10000326 	beq	r2,zero,4011118 <alt_get_errno+0x24>
 401110c:	d0a00b17 	ldw	r2,-32724(gp)
 4011110:	103ee83a 	callr	r2
 4011114:	00000106 	br	401111c <alt_get_errno+0x28>
 4011118:	d0a2fd04 	addi	r2,gp,-29708
}
 401111c:	e037883a 	mov	sp,fp
 4011120:	dfc00117 	ldw	ra,4(sp)
 4011124:	df000017 	ldw	fp,0(sp)
 4011128:	dec00204 	addi	sp,sp,8
 401112c:	f800283a 	ret

04011130 <read>:
}

#else /* !ALT_USE_DIRECT_DRIVERS */

int ALT_READ (int file, void *ptr, size_t len)
{
 4011130:	defff904 	addi	sp,sp,-28
 4011134:	dfc00615 	stw	ra,24(sp)
 4011138:	df000515 	stw	fp,20(sp)
 401113c:	df000504 	addi	fp,sp,20
 4011140:	e13ffd15 	stw	r4,-12(fp)
 4011144:	e17ffc15 	stw	r5,-16(fp)
 4011148:	e1bffb15 	stw	r6,-20(fp)
   * A common error case is that when the file descriptor was created, the call
   * to open() failed resulting in a negative file descriptor. This is trapped
   * below so that we don't try and process an invalid file descriptor.
   */

  fd = (file < 0) ? NULL : &alt_fd_list[file];
 401114c:	e0bffd17 	ldw	r2,-12(fp)
 4011150:	10000916 	blt	r2,zero,4011178 <read+0x48>
 4011154:	e0fffd17 	ldw	r3,-12(fp)
 4011158:	1805883a 	mov	r2,r3
 401115c:	1085883a 	add	r2,r2,r2
 4011160:	10c5883a 	add	r2,r2,r3
 4011164:	100490ba 	slli	r2,r2,2
 4011168:	00c10074 	movhi	r3,1025
 401116c:	18cc4a04 	addi	r3,r3,12584
 4011170:	10c5883a 	add	r2,r2,r3
 4011174:	00000106 	br	401117c <read+0x4c>
 4011178:	0005883a 	mov	r2,zero
 401117c:	e0bfff15 	stw	r2,-4(fp)
  
  if (fd)
 4011180:	e0bfff17 	ldw	r2,-4(fp)
 4011184:	10002226 	beq	r2,zero,4011210 <read+0xe0>
     * If the file has not been opened with read access, or if the driver does
     * not provide an implementation of read(), generate an error. Otherwise
     * call the drivers read() function to process the request.
     */

    if (((fd->fd_flags & O_ACCMODE) != O_WRONLY) && 
 4011188:	e0bfff17 	ldw	r2,-4(fp)
 401118c:	10800217 	ldw	r2,8(r2)
 4011190:	108000cc 	andi	r2,r2,3
 4011194:	10800060 	cmpeqi	r2,r2,1
 4011198:	1000181e 	bne	r2,zero,40111fc <read+0xcc>
        (fd->dev->read))
 401119c:	e0bfff17 	ldw	r2,-4(fp)
 40111a0:	10800017 	ldw	r2,0(r2)
 40111a4:	10800517 	ldw	r2,20(r2)
    if (((fd->fd_flags & O_ACCMODE) != O_WRONLY) && 
 40111a8:	10001426 	beq	r2,zero,40111fc <read+0xcc>
      {
        if ((rval = fd->dev->read(fd, ptr, len)) < 0)
 40111ac:	e0bfff17 	ldw	r2,-4(fp)
 40111b0:	10800017 	ldw	r2,0(r2)
 40111b4:	10800517 	ldw	r2,20(r2)
 40111b8:	e0fffb17 	ldw	r3,-20(fp)
 40111bc:	180d883a 	mov	r6,r3
 40111c0:	e17ffc17 	ldw	r5,-16(fp)
 40111c4:	e13fff17 	ldw	r4,-4(fp)
 40111c8:	103ee83a 	callr	r2
 40111cc:	e0bffe15 	stw	r2,-8(fp)
 40111d0:	e0bffe17 	ldw	r2,-8(fp)
 40111d4:	1000070e 	bge	r2,zero,40111f4 <read+0xc4>
        {
          ALT_ERRNO = -rval;
 40111d8:	40110f40 	call	40110f4 <alt_get_errno>
 40111dc:	1007883a 	mov	r3,r2
 40111e0:	e0bffe17 	ldw	r2,-8(fp)
 40111e4:	0085c83a 	sub	r2,zero,r2
 40111e8:	18800015 	stw	r2,0(r3)
          return -1;
 40111ec:	00bfffc4 	movi	r2,-1
 40111f0:	00000c06 	br	4011224 <read+0xf4>
        }
        return rval;
 40111f4:	e0bffe17 	ldw	r2,-8(fp)
 40111f8:	00000a06 	br	4011224 <read+0xf4>
      }
      else
      {
        ALT_ERRNO = EACCES;
 40111fc:	40110f40 	call	40110f4 <alt_get_errno>
 4011200:	1007883a 	mov	r3,r2
 4011204:	00800344 	movi	r2,13
 4011208:	18800015 	stw	r2,0(r3)
 401120c:	00000406 	br	4011220 <read+0xf0>
      }
    }
  else
  {
    ALT_ERRNO = EBADFD;
 4011210:	40110f40 	call	40110f4 <alt_get_errno>
 4011214:	1007883a 	mov	r3,r2
 4011218:	00801444 	movi	r2,81
 401121c:	18800015 	stw	r2,0(r3)
  }
  return -1;
 4011220:	00bfffc4 	movi	r2,-1
}
 4011224:	e037883a 	mov	sp,fp
 4011228:	dfc00117 	ldw	ra,4(sp)
 401122c:	df000017 	ldw	fp,0(sp)
 4011230:	dec00204 	addi	sp,sp,8
 4011234:	f800283a 	ret

04011238 <alt_release_fd>:
 * File descriptors correcponding to standard in, standard out and standard 
 * error cannont be released backed to the pool. They are always reserved.
 */

void alt_release_fd (int fd)
{
 4011238:	defffe04 	addi	sp,sp,-8
 401123c:	df000115 	stw	fp,4(sp)
 4011240:	df000104 	addi	fp,sp,4
 4011244:	e13fff15 	stw	r4,-4(fp)
  if (fd > 2)
 4011248:	e0bfff17 	ldw	r2,-4(fp)
 401124c:	108000d0 	cmplti	r2,r2,3
 4011250:	1000101e 	bne	r2,zero,4011294 <alt_release_fd+0x5c>
  {
    alt_fd_list[fd].fd_flags = 0;
 4011254:	e0ffff17 	ldw	r3,-4(fp)
 4011258:	1805883a 	mov	r2,r3
 401125c:	1085883a 	add	r2,r2,r2
 4011260:	10c5883a 	add	r2,r2,r3
 4011264:	100490ba 	slli	r2,r2,2
 4011268:	00c10074 	movhi	r3,1025
 401126c:	10c7883a 	add	r3,r2,r3
 4011270:	180c4c15 	stw	zero,12592(r3)
    alt_fd_list[fd].dev      = 0;
 4011274:	e0ffff17 	ldw	r3,-4(fp)
 4011278:	1805883a 	mov	r2,r3
 401127c:	1085883a 	add	r2,r2,r2
 4011280:	10c5883a 	add	r2,r2,r3
 4011284:	100490ba 	slli	r2,r2,2
 4011288:	00c10074 	movhi	r3,1025
 401128c:	10c7883a 	add	r3,r2,r3
 4011290:	180c4a15 	stw	zero,12584(r3)
  }
}
 4011294:	0001883a 	nop
 4011298:	e037883a 	mov	sp,fp
 401129c:	df000017 	ldw	fp,0(sp)
 40112a0:	dec00104 	addi	sp,sp,4
 40112a4:	f800283a 	ret

040112a8 <sbrk>:
#endif
 
caddr_t ALT_SBRK (int incr) __attribute__ ((no_instrument_function ));

caddr_t ALT_SBRK (int incr)
{ 
 40112a8:	defff904 	addi	sp,sp,-28
 40112ac:	df000615 	stw	fp,24(sp)
 40112b0:	df000604 	addi	fp,sp,24
 40112b4:	e13ffa15 	stw	r4,-24(fp)
  NIOS2_READ_STATUS (context);
 40112b8:	0005303a 	rdctl	r2,status
 40112bc:	e0bffd15 	stw	r2,-12(fp)
  NIOS2_WRITE_STATUS (context & ~NIOS2_STATUS_PIE_MSK);
 40112c0:	e0fffd17 	ldw	r3,-12(fp)
 40112c4:	00bfff84 	movi	r2,-2
 40112c8:	1884703a 	and	r2,r3,r2
 40112cc:	1001703a 	wrctl	status,r2
  return context;
 40112d0:	e0bffd17 	ldw	r2,-12(fp)
  alt_irq_context context;
  char *prev_heap_end; 

  context = alt_irq_disable_all();
 40112d4:	e0bfff15 	stw	r2,-4(fp)

  /* Always return data aligned on a word boundary */
  heap_end = (char *)(((unsigned int)heap_end + 3) & ~3);
 40112d8:	d0a00d17 	ldw	r2,-32716(gp)
 40112dc:	10c000c4 	addi	r3,r2,3
 40112e0:	00bfff04 	movi	r2,-4
 40112e4:	1884703a 	and	r2,r3,r2
 40112e8:	d0a00d15 	stw	r2,-32716(gp)
  if (((heap_end + incr) - __alt_heap_start) > ALT_MAX_HEAP_BYTES) {
    alt_irq_enable_all(context);
    return (caddr_t)-1;
  }
#else
  if ((heap_end + incr) > __alt_heap_limit) {
 40112ec:	d0e00d17 	ldw	r3,-32716(gp)
 40112f0:	e0bffa17 	ldw	r2,-24(fp)
 40112f4:	1887883a 	add	r3,r3,r2
 40112f8:	00812034 	movhi	r2,1152
 40112fc:	10800004 	addi	r2,r2,0
 4011300:	10c0072e 	bgeu	r2,r3,4011320 <sbrk+0x78>
 4011304:	e0bfff17 	ldw	r2,-4(fp)
 4011308:	e0bffc15 	stw	r2,-16(fp)
  NIOS2_WRITE_STATUS (context);
 401130c:	e0bffc17 	ldw	r2,-16(fp)
 4011310:	1001703a 	wrctl	status,r2
}
 4011314:	0001883a 	nop
    alt_irq_enable_all(context);
    return (caddr_t)-1;
 4011318:	00bfffc4 	movi	r2,-1
 401131c:	00000c06 	br	4011350 <sbrk+0xa8>
  }
#endif

  prev_heap_end = heap_end; 
 4011320:	d0a00d17 	ldw	r2,-32716(gp)
 4011324:	e0bffe15 	stw	r2,-8(fp)
  heap_end += incr; 
 4011328:	d0e00d17 	ldw	r3,-32716(gp)
 401132c:	e0bffa17 	ldw	r2,-24(fp)
 4011330:	1885883a 	add	r2,r3,r2
 4011334:	d0a00d15 	stw	r2,-32716(gp)
 4011338:	e0bfff17 	ldw	r2,-4(fp)
 401133c:	e0bffb15 	stw	r2,-20(fp)
  NIOS2_WRITE_STATUS (context);
 4011340:	e0bffb17 	ldw	r2,-20(fp)
 4011344:	1001703a 	wrctl	status,r2
}
 4011348:	0001883a 	nop

#endif

  alt_irq_enable_all(context);

  return (caddr_t) prev_heap_end; 
 401134c:	e0bffe17 	ldw	r2,-8(fp)
} 
 4011350:	e037883a 	mov	sp,fp
 4011354:	df000017 	ldw	fp,0(sp)
 4011358:	dec00104 	addi	sp,sp,4
 401135c:	f800283a 	ret

04011360 <alt_get_errno>:
{
 4011360:	defffe04 	addi	sp,sp,-8
 4011364:	dfc00115 	stw	ra,4(sp)
 4011368:	df000015 	stw	fp,0(sp)
 401136c:	d839883a 	mov	fp,sp
  return ((alt_errno) ? alt_errno() : &errno);
 4011370:	d0a00b17 	ldw	r2,-32724(gp)
 4011374:	10000326 	beq	r2,zero,4011384 <alt_get_errno+0x24>
 4011378:	d0a00b17 	ldw	r2,-32724(gp)
 401137c:	103ee83a 	callr	r2
 4011380:	00000106 	br	4011388 <alt_get_errno+0x28>
 4011384:	d0a2fd04 	addi	r2,gp,-29708
}
 4011388:	e037883a 	mov	sp,fp
 401138c:	dfc00117 	ldw	ra,4(sp)
 4011390:	df000017 	ldw	fp,0(sp)
 4011394:	dec00204 	addi	sp,sp,8
 4011398:	f800283a 	ret

0401139c <write>:
}

#else /* !ALT_USE_DIRECT_DRIVERS */

int ALT_WRITE (int file, const void *ptr, size_t len)
{
 401139c:	defff904 	addi	sp,sp,-28
 40113a0:	dfc00615 	stw	ra,24(sp)
 40113a4:	df000515 	stw	fp,20(sp)
 40113a8:	df000504 	addi	fp,sp,20
 40113ac:	e13ffd15 	stw	r4,-12(fp)
 40113b0:	e17ffc15 	stw	r5,-16(fp)
 40113b4:	e1bffb15 	stw	r6,-20(fp)
   * A common error case is that when the file descriptor was created, the call
   * to open() failed resulting in a negative file descriptor. This is trapped
   * below so that we don't try and process an invalid file descriptor.
   */

  fd = (file < 0) ? NULL : &alt_fd_list[file];
 40113b8:	e0bffd17 	ldw	r2,-12(fp)
 40113bc:	10000916 	blt	r2,zero,40113e4 <write+0x48>
 40113c0:	e0fffd17 	ldw	r3,-12(fp)
 40113c4:	1805883a 	mov	r2,r3
 40113c8:	1085883a 	add	r2,r2,r2
 40113cc:	10c5883a 	add	r2,r2,r3
 40113d0:	100490ba 	slli	r2,r2,2
 40113d4:	00c10074 	movhi	r3,1025
 40113d8:	18cc4a04 	addi	r3,r3,12584
 40113dc:	10c5883a 	add	r2,r2,r3
 40113e0:	00000106 	br	40113e8 <write+0x4c>
 40113e4:	0005883a 	mov	r2,zero
 40113e8:	e0bfff15 	stw	r2,-4(fp)
  
  if (fd)
 40113ec:	e0bfff17 	ldw	r2,-4(fp)
 40113f0:	10002126 	beq	r2,zero,4011478 <write+0xdc>
     * If the file has not been opened with write access, or if the driver does
     * not provide an implementation of write(), generate an error. Otherwise
     * call the drivers write() function to process the request.
     */

    if (((fd->fd_flags & O_ACCMODE) != O_RDONLY) && fd->dev->write)
 40113f4:	e0bfff17 	ldw	r2,-4(fp)
 40113f8:	10800217 	ldw	r2,8(r2)
 40113fc:	108000cc 	andi	r2,r2,3
 4011400:	10001826 	beq	r2,zero,4011464 <write+0xc8>
 4011404:	e0bfff17 	ldw	r2,-4(fp)
 4011408:	10800017 	ldw	r2,0(r2)
 401140c:	10800617 	ldw	r2,24(r2)
 4011410:	10001426 	beq	r2,zero,4011464 <write+0xc8>
    {
      
      /* ALT_LOG - see altera_hal/HAL/inc/sys/alt_log_printf.h */
      ALT_LOG_WRITE_FUNCTION(ptr,len);

      if ((rval = fd->dev->write(fd, ptr, len)) < 0)
 4011414:	e0bfff17 	ldw	r2,-4(fp)
 4011418:	10800017 	ldw	r2,0(r2)
 401141c:	10800617 	ldw	r2,24(r2)
 4011420:	e0fffb17 	ldw	r3,-20(fp)
 4011424:	180d883a 	mov	r6,r3
 4011428:	e17ffc17 	ldw	r5,-16(fp)
 401142c:	e13fff17 	ldw	r4,-4(fp)
 4011430:	103ee83a 	callr	r2
 4011434:	e0bffe15 	stw	r2,-8(fp)
 4011438:	e0bffe17 	ldw	r2,-8(fp)
 401143c:	1000070e 	bge	r2,zero,401145c <write+0xc0>
      {
        ALT_ERRNO = -rval;
 4011440:	40113600 	call	4011360 <alt_get_errno>
 4011444:	1007883a 	mov	r3,r2
 4011448:	e0bffe17 	ldw	r2,-8(fp)
 401144c:	0085c83a 	sub	r2,zero,r2
 4011450:	18800015 	stw	r2,0(r3)
        return -1;
 4011454:	00bfffc4 	movi	r2,-1
 4011458:	00000c06 	br	401148c <write+0xf0>
      }
      return rval;
 401145c:	e0bffe17 	ldw	r2,-8(fp)
 4011460:	00000a06 	br	401148c <write+0xf0>
    }
    else
    {
      ALT_ERRNO = EACCES;
 4011464:	40113600 	call	4011360 <alt_get_errno>
 4011468:	1007883a 	mov	r3,r2
 401146c:	00800344 	movi	r2,13
 4011470:	18800015 	stw	r2,0(r3)
 4011474:	00000406 	br	4011488 <write+0xec>
    }
  }
  else  
  {
    ALT_ERRNO = EBADFD;
 4011478:	40113600 	call	4011360 <alt_get_errno>
 401147c:	1007883a 	mov	r3,r2
 4011480:	00801444 	movi	r2,81
 4011484:	18800015 	stw	r2,0(r3)
  }
  return -1;
 4011488:	00bfffc4 	movi	r2,-1
}
 401148c:	e037883a 	mov	sp,fp
 4011490:	dfc00117 	ldw	ra,4(sp)
 4011494:	df000017 	ldw	fp,0(sp)
 4011498:	dec00204 	addi	sp,sp,8
 401149c:	f800283a 	ret

040114a0 <alt_irq_init>:
 * The "base" parameter is ignored and only
 * present for backwards-compatibility.
 */

void alt_irq_init ( const void* base )
{
 40114a0:	defffd04 	addi	sp,sp,-12
 40114a4:	dfc00215 	stw	ra,8(sp)
 40114a8:	df000115 	stw	fp,4(sp)
 40114ac:	df000104 	addi	fp,sp,4
 40114b0:	e13fff15 	stw	r4,-4(fp)
    ALTERA_NIOS2_GEN2_IRQ_INIT ( CORE0, core0);
 40114b4:	4011b900 	call	4011b90 <altera_nios2_gen2_irq_init>
    NIOS2_WRITE_STATUS(NIOS2_STATUS_PIE_MSK
 40114b8:	00800044 	movi	r2,1
 40114bc:	1001703a 	wrctl	status,r2
}
 40114c0:	0001883a 	nop
    alt_irq_cpu_enable_interrupts();
}
 40114c4:	0001883a 	nop
 40114c8:	e037883a 	mov	sp,fp
 40114cc:	dfc00117 	ldw	ra,4(sp)
 40114d0:	df000017 	ldw	fp,0(sp)
 40114d4:	dec00204 	addi	sp,sp,8
 40114d8:	f800283a 	ret

040114dc <alt_sys_init>:
 * Initialize the non-interrupt controller devices.
 * Called after alt_irq_init().
 */

void alt_sys_init( void )
{
 40114dc:	deffff04 	addi	sp,sp,-4
 40114e0:	df000015 	stw	fp,0(sp)
 40114e4:	d839883a 	mov	fp,sp
    ALTERA_AVALON_TIMER_INIT ( TIMER_0, timer_0);
 40114e8:	00840034 	movhi	r2,4096
 40114ec:	d0a30315 	stw	r2,-29684(gp)
 40114f0:	0080bef4 	movhi	r2,763
 40114f4:	10bc2004 	addi	r2,r2,-3968
 40114f8:	d0a30415 	stw	r2,-29680(gp)
}
 40114fc:	0001883a 	nop
 4011500:	e037883a 	mov	sp,fp
 4011504:	df000017 	ldw	fp,0(sp)
 4011508:	dec00104 	addi	sp,sp,4
 401150c:	f800283a 	ret

04011510 <alt_timestamp_start>:
 * The return value of this function is 0 upon sucess and -1 if in timestamp
 * device has not been registered. 
 */

int alt_timestamp_start(void)
{
 4011510:	defffe04 	addi	sp,sp,-8
 4011514:	df000115 	stw	fp,4(sp)
 4011518:	df000104 	addi	fp,sp,4
  void* base = altera_avalon_timer_ts_base;
 401151c:	d0a30317 	ldw	r2,-29684(gp)
 4011520:	e0bfff15 	stw	r2,-4(fp)

  if (!altera_avalon_timer_ts_freq)
 4011524:	d0a30417 	ldw	r2,-29680(gp)
 4011528:	1000021e 	bne	r2,zero,4011534 <alt_timestamp_start+0x24>
  {
    return -1;
 401152c:	00bfffc4 	movi	r2,-1
 4011530:	00001106 	br	4011578 <alt_timestamp_start+0x68>
        IOWR_ALTERA_AVALON_TIMER_PERIOD_1 (base, 0xFFFF);;
        IOWR_ALTERA_AVALON_TIMER_PERIOD_2 (base, 0xFFFF);
        IOWR_ALTERA_AVALON_TIMER_PERIOD_3 (base, 0xFFFF);
        IOWR_ALTERA_AVALON_TIMER_CONTROL (base, ALTERA_AVALON_TIMER_CONTROL_START_MSK);
    } else {
        IOWR_ALTERA_AVALON_TIMER_CONTROL (base,ALTERA_AVALON_TIMER_CONTROL_STOP_MSK);
 4011534:	e0bfff17 	ldw	r2,-4(fp)
 4011538:	10800104 	addi	r2,r2,4
 401153c:	00c00204 	movi	r3,8
 4011540:	10c00035 	stwio	r3,0(r2)
        IOWR_ALTERA_AVALON_TIMER_PERIODL (base, 0xFFFF);
 4011544:	e0bfff17 	ldw	r2,-4(fp)
 4011548:	10800204 	addi	r2,r2,8
 401154c:	00ffffd4 	movui	r3,65535
 4011550:	10c00035 	stwio	r3,0(r2)
        IOWR_ALTERA_AVALON_TIMER_PERIODH (base, 0xFFFF);
 4011554:	e0bfff17 	ldw	r2,-4(fp)
 4011558:	10800304 	addi	r2,r2,12
 401155c:	00ffffd4 	movui	r3,65535
 4011560:	10c00035 	stwio	r3,0(r2)
        IOWR_ALTERA_AVALON_TIMER_CONTROL (base, ALTERA_AVALON_TIMER_CONTROL_START_MSK); 
 4011564:	e0bfff17 	ldw	r2,-4(fp)
 4011568:	10800104 	addi	r2,r2,4
 401156c:	00c00104 	movi	r3,4
 4011570:	10c00035 	stwio	r3,0(r2)
    } 
  }
  return 0;
 4011574:	0005883a 	mov	r2,zero
}
 4011578:	e037883a 	mov	sp,fp
 401157c:	df000017 	ldw	fp,0(sp)
 4011580:	dec00104 	addi	sp,sp,4
 4011584:	f800283a 	ret

04011588 <alt_timestamp>:
 * The returned timestamp counts up from the last time the period register
 * was reset. 
 */

alt_timestamp_type alt_timestamp(void)
{
 4011588:	defffc04 	addi	sp,sp,-16
 401158c:	df000315 	stw	fp,12(sp)
 4011590:	df000304 	addi	fp,sp,12

  void* base = altera_avalon_timer_ts_base;
 4011594:	d0a30317 	ldw	r2,-29684(gp)
 4011598:	e0bfff15 	stw	r2,-4(fp)

  if (!altera_avalon_timer_ts_freq)
 401159c:	d0a30417 	ldw	r2,-29680(gp)
 40115a0:	1000021e 	bne	r2,zero,40115ac <alt_timestamp+0x24>
  {
#if (ALT_TIMESTAMP_COUNTER_SIZE == 64)
        return 0xFFFFFFFFFFFFFFFFULL;
#else
        return 0xFFFFFFFF;
 40115a4:	00bfffc4 	movi	r2,-1
 40115a8:	00001306 	br	40115f8 <alt_timestamp+0x70>
        alt_timestamp_type snap_2 = IORD_ALTERA_AVALON_TIMER_SNAP_2(base) & ALTERA_AVALON_TIMER_SNAP_2_MSK;
        alt_timestamp_type snap_3 = IORD_ALTERA_AVALON_TIMER_SNAP_3(base) & ALTERA_AVALON_TIMER_SNAP_3_MSK;
        
        return (0xFFFFFFFFFFFFFFFFULL - ( (snap_3 << 48) | (snap_2 << 32) | (snap_1 << 16) | (snap_0) ));
#else
        IOWR_ALTERA_AVALON_TIMER_SNAPL (base, 0);
 40115ac:	e0bfff17 	ldw	r2,-4(fp)
 40115b0:	10800404 	addi	r2,r2,16
 40115b4:	0007883a 	mov	r3,zero
 40115b8:	10c00035 	stwio	r3,0(r2)
        alt_timestamp_type lower = IORD_ALTERA_AVALON_TIMER_SNAPL(base) & ALTERA_AVALON_TIMER_SNAPL_MSK;
 40115bc:	e0bfff17 	ldw	r2,-4(fp)
 40115c0:	10800404 	addi	r2,r2,16
 40115c4:	10800037 	ldwio	r2,0(r2)
 40115c8:	10bfffcc 	andi	r2,r2,65535
 40115cc:	e0bffe15 	stw	r2,-8(fp)
        alt_timestamp_type upper = IORD_ALTERA_AVALON_TIMER_SNAPH(base) & ALTERA_AVALON_TIMER_SNAPH_MSK;
 40115d0:	e0bfff17 	ldw	r2,-4(fp)
 40115d4:	10800504 	addi	r2,r2,20
 40115d8:	10800037 	ldwio	r2,0(r2)
 40115dc:	10bfffcc 	andi	r2,r2,65535
 40115e0:	e0bffd15 	stw	r2,-12(fp)
        
        return (0xFFFFFFFF - ((upper << 16) | lower)); 
 40115e4:	e0bffd17 	ldw	r2,-12(fp)
 40115e8:	1006943a 	slli	r3,r2,16
 40115ec:	e0bffe17 	ldw	r2,-8(fp)
 40115f0:	1884b03a 	or	r2,r3,r2
 40115f4:	0084303a 	nor	r2,zero,r2
#endif
  }
}
 40115f8:	e037883a 	mov	sp,fp
 40115fc:	df000017 	ldw	fp,0(sp)
 4011600:	dec00104 	addi	sp,sp,4
 4011604:	f800283a 	ret

04011608 <alt_timestamp_freq>:
 * Return the number of timestamp ticks per second. This will be 0 if no
 * timestamp device has been registered.
 */

alt_u32 alt_timestamp_freq(void)
{
 4011608:	deffff04 	addi	sp,sp,-4
 401160c:	df000015 	stw	fp,0(sp)
 4011610:	d839883a 	mov	fp,sp
  return altera_avalon_timer_ts_freq;
 4011614:	d0a30417 	ldw	r2,-29680(gp)
}
 4011618:	e037883a 	mov	sp,fp
 401161c:	df000017 	ldw	fp,0(sp)
 4011620:	dec00104 	addi	sp,sp,4
 4011624:	f800283a 	ret

04011628 <alt_dcache_flush_all>:
/*
 * alt_dcache_flush_all() is called to flush the entire data cache.
 */

void alt_dcache_flush_all (void)
{
 4011628:	deffff04 	addi	sp,sp,-4
 401162c:	df000015 	stw	fp,0(sp)
 4011630:	d839883a 	mov	fp,sp
  for (i = (char*) 0; i < (char*) NIOS2_DCACHE_SIZE; i+= NIOS2_DCACHE_LINE_SIZE)
  { 
    __asm__ volatile ("flushd (%0)" :: "r" (i));
  }
#endif /* NIOS2_DCACHE_SIZE > 0 */
}
 4011634:	0001883a 	nop
 4011638:	e037883a 	mov	sp,fp
 401163c:	df000017 	ldw	fp,0(sp)
 4011640:	dec00104 	addi	sp,sp,4
 4011644:	f800283a 	ret

04011648 <_do_ctors>:
/*
 * Run the C++ static constructors.
 */

void _do_ctors(void)
{
 4011648:	defffd04 	addi	sp,sp,-12
 401164c:	dfc00215 	stw	ra,8(sp)
 4011650:	df000115 	stw	fp,4(sp)
 4011654:	df000104 	addi	fp,sp,4
  constructor* ctor;

  for (ctor = &__CTOR_END__[-1]; ctor >= __CTOR_LIST__; ctor--)
 4011658:	00810074 	movhi	r2,1025
 401165c:	10881c04 	addi	r2,r2,8304
 4011660:	e0bfff15 	stw	r2,-4(fp)
 4011664:	00000606 	br	4011680 <_do_ctors+0x38>
        (*ctor) (); 
 4011668:	e0bfff17 	ldw	r2,-4(fp)
 401166c:	10800017 	ldw	r2,0(r2)
 4011670:	103ee83a 	callr	r2
  for (ctor = &__CTOR_END__[-1]; ctor >= __CTOR_LIST__; ctor--)
 4011674:	e0bfff17 	ldw	r2,-4(fp)
 4011678:	10bfff04 	addi	r2,r2,-4
 401167c:	e0bfff15 	stw	r2,-4(fp)
 4011680:	e0ffff17 	ldw	r3,-4(fp)
 4011684:	00810074 	movhi	r2,1025
 4011688:	10881d04 	addi	r2,r2,8308
 401168c:	18bff62e 	bgeu	r3,r2,4011668 <_do_ctors+0x20>
}
 4011690:	0001883a 	nop
 4011694:	0001883a 	nop
 4011698:	e037883a 	mov	sp,fp
 401169c:	dfc00117 	ldw	ra,4(sp)
 40116a0:	df000017 	ldw	fp,0(sp)
 40116a4:	dec00204 	addi	sp,sp,8
 40116a8:	f800283a 	ret

040116ac <_do_dtors>:
/*
 * Run the C++ static destructors.
 */

void _do_dtors(void)
{
 40116ac:	defffd04 	addi	sp,sp,-12
 40116b0:	dfc00215 	stw	ra,8(sp)
 40116b4:	df000115 	stw	fp,4(sp)
 40116b8:	df000104 	addi	fp,sp,4
  destructor* dtor;

  for (dtor = &__DTOR_END__[-1]; dtor >= __DTOR_LIST__; dtor--)
 40116bc:	00810074 	movhi	r2,1025
 40116c0:	10881c04 	addi	r2,r2,8304
 40116c4:	e0bfff15 	stw	r2,-4(fp)
 40116c8:	00000606 	br	40116e4 <_do_dtors+0x38>
        (*dtor) (); 
 40116cc:	e0bfff17 	ldw	r2,-4(fp)
 40116d0:	10800017 	ldw	r2,0(r2)
 40116d4:	103ee83a 	callr	r2
  for (dtor = &__DTOR_END__[-1]; dtor >= __DTOR_LIST__; dtor--)
 40116d8:	e0bfff17 	ldw	r2,-4(fp)
 40116dc:	10bfff04 	addi	r2,r2,-4
 40116e0:	e0bfff15 	stw	r2,-4(fp)
 40116e4:	e0ffff17 	ldw	r3,-4(fp)
 40116e8:	00810074 	movhi	r2,1025
 40116ec:	10881d04 	addi	r2,r2,8308
 40116f0:	18bff62e 	bgeu	r3,r2,40116cc <_do_dtors+0x20>
}
 40116f4:	0001883a 	nop
 40116f8:	0001883a 	nop
 40116fc:	e037883a 	mov	sp,fp
 4011700:	dfc00117 	ldw	ra,4(sp)
 4011704:	df000017 	ldw	fp,0(sp)
 4011708:	dec00204 	addi	sp,sp,8
 401170c:	f800283a 	ret

04011710 <alt_icache_flush_all>:
/*
 * alt_icache_flush_all() is called to flush the entire instruction cache.
 */

void alt_icache_flush_all (void)
{
 4011710:	deffff04 	addi	sp,sp,-4
 4011714:	df000015 	stw	fp,0(sp)
 4011718:	d839883a 	mov	fp,sp
#if NIOS2_ICACHE_SIZE > 0
  alt_icache_flush (0, NIOS2_ICACHE_SIZE);
#endif
}
 401171c:	0001883a 	nop
 4011720:	e037883a 	mov	sp,fp
 4011724:	df000017 	ldw	fp,0(sp)
 4011728:	dec00104 	addi	sp,sp,4
 401172c:	f800283a 	ret

04011730 <alt_exception_cause_generated_bad_addr>:
 * Return: 1: BADADDR (bad_addr argument to handler) is valid
 *         0: BADADDR is not valid
 */
int 
alt_exception_cause_generated_bad_addr(alt_exception_cause cause)
{
 4011730:	defffe04 	addi	sp,sp,-8
 4011734:	df000115 	stw	fp,4(sp)
 4011738:	df000104 	addi	fp,sp,4
 401173c:	e13fff15 	stw	r4,-4(fp)
 4011740:	e0bfff17 	ldw	r2,-4(fp)
 4011744:	10bffe84 	addi	r2,r2,-6
 4011748:	10c00428 	cmpgeui	r3,r2,16
 401174c:	1800191e 	bne	r3,zero,40117b4 <alt_exception_cause_generated_bad_addr+0x84>
 4011750:	100690ba 	slli	r3,r2,2
 4011754:	00810074 	movhi	r2,1025
 4011758:	1885883a 	add	r2,r3,r2
 401175c:	1085d917 	ldw	r2,5988(r2)
 4011760:	1000683a 	jmp	r2
 4011764:	040117a4 	muli	r16,zero,1118
 4011768:	040117a4 	muli	r16,zero,1118
 401176c:	040117b4 	movhi	r16,1118
 4011770:	040117b4 	movhi	r16,1118
 4011774:	040117b4 	movhi	r16,1118
 4011778:	040117a4 	muli	r16,zero,1118
 401177c:	040117ac 	andhi	r16,zero,1118
 4011780:	040117b4 	movhi	r16,1118
 4011784:	040117a4 	muli	r16,zero,1118
 4011788:	040117a4 	muli	r16,zero,1118
 401178c:	040117b4 	movhi	r16,1118
 4011790:	040117a4 	muli	r16,zero,1118
 4011794:	040117ac 	andhi	r16,zero,1118
 4011798:	040117b4 	movhi	r16,1118
 401179c:	040117b4 	movhi	r16,1118
 40117a0:	040117a4 	muli	r16,zero,1118
  case NIOS2_EXCEPTION_MISALIGNED_TARGET_PC:
  case NIOS2_EXCEPTION_TLB_READ_PERM_VIOLATION:
  case NIOS2_EXCEPTION_TLB_WRITE_PERM_VIOLATION:
  case NIOS2_EXCEPTION_MPU_DATA_REGION_VIOLATION:
  case NIOS2_EXCEPTION_ECC_DATA_ERR:
    return 1;
 40117a4:	00800044 	movi	r2,1
 40117a8:	00000306 	br	40117b8 <alt_exception_cause_generated_bad_addr+0x88>

  case NIOS2_EXCEPTION_TLB_MISS:
  case NIOS2_EXCEPTION_ECC_TLB_ERR:
    return 0;
 40117ac:	0005883a 	mov	r2,zero
 40117b0:	00000106 	br	40117b8 <alt_exception_cause_generated_bad_addr+0x88>

  default:
    return 0;
 40117b4:	0005883a 	mov	r2,zero
  }
}
 40117b8:	e037883a 	mov	sp,fp
 40117bc:	df000017 	ldw	fp,0(sp)
 40117c0:	dec00104 	addi	sp,sp,4
 40117c4:	f800283a 	ret

040117c8 <alt_open_fd>:
 * If the device can not be succesfully opened, then the input file descriptor
 * remains unchanged.
 */

static void alt_open_fd(alt_fd* fd, const char* name, int flags, int mode)
{
 40117c8:	defff904 	addi	sp,sp,-28
 40117cc:	dfc00615 	stw	ra,24(sp)
 40117d0:	df000515 	stw	fp,20(sp)
 40117d4:	df000504 	addi	fp,sp,20
 40117d8:	e13ffe15 	stw	r4,-8(fp)
 40117dc:	e17ffd15 	stw	r5,-12(fp)
 40117e0:	e1bffc15 	stw	r6,-16(fp)
 40117e4:	e1fffb15 	stw	r7,-20(fp)
  int old;

  old = open (name, flags, mode);
 40117e8:	e1bffb17 	ldw	r6,-20(fp)
 40117ec:	e17ffc17 	ldw	r5,-16(fp)
 40117f0:	e13ffd17 	ldw	r4,-12(fp)
 40117f4:	4011a300 	call	4011a30 <open>
 40117f8:	e0bfff15 	stw	r2,-4(fp)

  if (old >= 0)
 40117fc:	e0bfff17 	ldw	r2,-4(fp)
 4011800:	10002016 	blt	r2,zero,4011884 <alt_open_fd+0xbc>
  {
    fd->dev      = alt_fd_list[old].dev;
 4011804:	e0ffff17 	ldw	r3,-4(fp)
 4011808:	1805883a 	mov	r2,r3
 401180c:	1085883a 	add	r2,r2,r2
 4011810:	10c5883a 	add	r2,r2,r3
 4011814:	100490ba 	slli	r2,r2,2
 4011818:	00c10074 	movhi	r3,1025
 401181c:	10c7883a 	add	r3,r2,r3
 4011820:	18cc4a17 	ldw	r3,12584(r3)
 4011824:	e0bffe17 	ldw	r2,-8(fp)
 4011828:	10c00015 	stw	r3,0(r2)
    fd->priv     = alt_fd_list[old].priv;
 401182c:	e0ffff17 	ldw	r3,-4(fp)
 4011830:	1805883a 	mov	r2,r3
 4011834:	1085883a 	add	r2,r2,r2
 4011838:	10c5883a 	add	r2,r2,r3
 401183c:	100490ba 	slli	r2,r2,2
 4011840:	00c10074 	movhi	r3,1025
 4011844:	10c7883a 	add	r3,r2,r3
 4011848:	18cc4b17 	ldw	r3,12588(r3)
 401184c:	e0bffe17 	ldw	r2,-8(fp)
 4011850:	10c00115 	stw	r3,4(r2)
    fd->fd_flags = alt_fd_list[old].fd_flags;
 4011854:	e0ffff17 	ldw	r3,-4(fp)
 4011858:	1805883a 	mov	r2,r3
 401185c:	1085883a 	add	r2,r2,r2
 4011860:	10c5883a 	add	r2,r2,r3
 4011864:	100490ba 	slli	r2,r2,2
 4011868:	00c10074 	movhi	r3,1025
 401186c:	10c7883a 	add	r3,r2,r3
 4011870:	18cc4c17 	ldw	r3,12592(r3)
 4011874:	e0bffe17 	ldw	r2,-8(fp)
 4011878:	10c00215 	stw	r3,8(r2)

    alt_release_fd (old);
 401187c:	e13fff17 	ldw	r4,-4(fp)
 4011880:	40112380 	call	4011238 <alt_release_fd>
  }
} 
 4011884:	0001883a 	nop
 4011888:	e037883a 	mov	sp,fp
 401188c:	dfc00117 	ldw	ra,4(sp)
 4011890:	df000017 	ldw	fp,0(sp)
 4011894:	dec00204 	addi	sp,sp,8
 4011898:	f800283a 	ret

0401189c <alt_io_redirect>:
 */
 
void alt_io_redirect(const char* stdout_dev, 
                     const char* stdin_dev, 
                     const char* stderr_dev)
{
 401189c:	defffb04 	addi	sp,sp,-20
 40118a0:	dfc00415 	stw	ra,16(sp)
 40118a4:	df000315 	stw	fp,12(sp)
 40118a8:	df000304 	addi	fp,sp,12
 40118ac:	e13fff15 	stw	r4,-4(fp)
 40118b0:	e17ffe15 	stw	r5,-8(fp)
 40118b4:	e1bffd15 	stw	r6,-12(fp)
  /* Redirect the channels */

  alt_open_fd (&alt_fd_list[STDOUT_FILENO], stdout_dev, O_WRONLY, 0777);
 40118b8:	01c07fc4 	movi	r7,511
 40118bc:	01800044 	movi	r6,1
 40118c0:	e17fff17 	ldw	r5,-4(fp)
 40118c4:	01010074 	movhi	r4,1025
 40118c8:	210c4d04 	addi	r4,r4,12596
 40118cc:	40117c80 	call	40117c8 <alt_open_fd>
  alt_open_fd (&alt_fd_list[STDIN_FILENO], stdin_dev, O_RDONLY, 0777);
 40118d0:	01c07fc4 	movi	r7,511
 40118d4:	000d883a 	mov	r6,zero
 40118d8:	e17ffe17 	ldw	r5,-8(fp)
 40118dc:	01010074 	movhi	r4,1025
 40118e0:	210c4a04 	addi	r4,r4,12584
 40118e4:	40117c80 	call	40117c8 <alt_open_fd>
  alt_open_fd (&alt_fd_list[STDERR_FILENO], stderr_dev, O_WRONLY, 0777);
 40118e8:	01c07fc4 	movi	r7,511
 40118ec:	01800044 	movi	r6,1
 40118f0:	e17ffd17 	ldw	r5,-12(fp)
 40118f4:	01010074 	movhi	r4,1025
 40118f8:	210c5004 	addi	r4,r4,12608
 40118fc:	40117c80 	call	40117c8 <alt_open_fd>
}  
 4011900:	0001883a 	nop
 4011904:	e037883a 	mov	sp,fp
 4011908:	dfc00117 	ldw	ra,4(sp)
 401190c:	df000017 	ldw	fp,0(sp)
 4011910:	dec00204 	addi	sp,sp,8
 4011914:	f800283a 	ret

04011918 <alt_get_errno>:
{
 4011918:	defffe04 	addi	sp,sp,-8
 401191c:	dfc00115 	stw	ra,4(sp)
 4011920:	df000015 	stw	fp,0(sp)
 4011924:	d839883a 	mov	fp,sp
  return ((alt_errno) ? alt_errno() : &errno);
 4011928:	d0a00b17 	ldw	r2,-32724(gp)
 401192c:	10000326 	beq	r2,zero,401193c <alt_get_errno+0x24>
 4011930:	d0a00b17 	ldw	r2,-32724(gp)
 4011934:	103ee83a 	callr	r2
 4011938:	00000106 	br	4011940 <alt_get_errno+0x28>
 401193c:	d0a2fd04 	addi	r2,gp,-29708
}
 4011940:	e037883a 	mov	sp,fp
 4011944:	dfc00117 	ldw	ra,4(sp)
 4011948:	df000017 	ldw	fp,0(sp)
 401194c:	dec00204 	addi	sp,sp,8
 4011950:	f800283a 	ret

04011954 <alt_file_locked>:
 * performed for devices. Filesystems are required to handle the ioctl() call
 * themselves, and report the error from the filesystems open() function. 
 */ 

static int alt_file_locked (alt_fd* fd)
{
 4011954:	defffd04 	addi	sp,sp,-12
 4011958:	df000215 	stw	fp,8(sp)
 401195c:	df000204 	addi	fp,sp,8
 4011960:	e13ffe15 	stw	r4,-8(fp)

  /*
   * Mark the file descriptor as belonging to a device.
   */

  fd->fd_flags |= ALT_FD_DEV;
 4011964:	e0bffe17 	ldw	r2,-8(fp)
 4011968:	10800217 	ldw	r2,8(r2)
 401196c:	10d00034 	orhi	r3,r2,16384
 4011970:	e0bffe17 	ldw	r2,-8(fp)
 4011974:	10c00215 	stw	r3,8(r2)
  /*
   * Loop through all current file descriptors searching for one that's locked
   * for exclusive access. If a match is found, generate an error.
   */

  for (i = 0; i <= alt_max_fd; i++)
 4011978:	e03fff15 	stw	zero,-4(fp)
 401197c:	00002306 	br	4011a0c <alt_file_locked+0xb8>
  {
    if ((alt_fd_list[i].dev == fd->dev) &&
 4011980:	e0ffff17 	ldw	r3,-4(fp)
 4011984:	1805883a 	mov	r2,r3
 4011988:	1085883a 	add	r2,r2,r2
 401198c:	10c5883a 	add	r2,r2,r3
 4011990:	100490ba 	slli	r2,r2,2
 4011994:	00c10074 	movhi	r3,1025
 4011998:	10c7883a 	add	r3,r2,r3
 401199c:	18cc4a17 	ldw	r3,12584(r3)
 40119a0:	e0bffe17 	ldw	r2,-8(fp)
 40119a4:	10800017 	ldw	r2,0(r2)
 40119a8:	1880151e 	bne	r3,r2,4011a00 <alt_file_locked+0xac>
        (alt_fd_list[i].fd_flags & ALT_FD_EXCL) &&
 40119ac:	e0ffff17 	ldw	r3,-4(fp)
 40119b0:	1805883a 	mov	r2,r3
 40119b4:	1085883a 	add	r2,r2,r2
 40119b8:	10c5883a 	add	r2,r2,r3
 40119bc:	100490ba 	slli	r2,r2,2
 40119c0:	00c10074 	movhi	r3,1025
 40119c4:	10c7883a 	add	r3,r2,r3
 40119c8:	188c4c17 	ldw	r2,12592(r3)
    if ((alt_fd_list[i].dev == fd->dev) &&
 40119cc:	10000c0e 	bge	r2,zero,4011a00 <alt_file_locked+0xac>
        (&alt_fd_list[i] != fd))
 40119d0:	e0ffff17 	ldw	r3,-4(fp)
 40119d4:	1805883a 	mov	r2,r3
 40119d8:	1085883a 	add	r2,r2,r2
 40119dc:	10c5883a 	add	r2,r2,r3
 40119e0:	100490ba 	slli	r2,r2,2
 40119e4:	00c10074 	movhi	r3,1025
 40119e8:	18cc4a04 	addi	r3,r3,12584
 40119ec:	10c5883a 	add	r2,r2,r3
        (alt_fd_list[i].fd_flags & ALT_FD_EXCL) &&
 40119f0:	e0fffe17 	ldw	r3,-8(fp)
 40119f4:	18800226 	beq	r3,r2,4011a00 <alt_file_locked+0xac>
    {
      return -EACCES;
 40119f8:	00bffcc4 	movi	r2,-13
 40119fc:	00000806 	br	4011a20 <alt_file_locked+0xcc>
  for (i = 0; i <= alt_max_fd; i++)
 4011a00:	e0bfff17 	ldw	r2,-4(fp)
 4011a04:	10800044 	addi	r2,r2,1
 4011a08:	e0bfff15 	stw	r2,-4(fp)
 4011a0c:	d0a00a17 	ldw	r2,-32728(gp)
 4011a10:	1007883a 	mov	r3,r2
 4011a14:	e0bfff17 	ldw	r2,-4(fp)
 4011a18:	18bfd92e 	bgeu	r3,r2,4011980 <alt_file_locked+0x2c>
    }
  }
  
  /* The device is not locked */
 
  return 0;
 4011a1c:	0005883a 	mov	r2,zero
}
 4011a20:	e037883a 	mov	sp,fp
 4011a24:	df000017 	ldw	fp,0(sp)
 4011a28:	dec00104 	addi	sp,sp,4
 4011a2c:	f800283a 	ret

04011a30 <open>:
 *
 * ALT_OPEN is mapped onto the open() system call in alt_syscall.h
 */
 
int ALT_OPEN (const char* file, int flags, int mode)
{ 
 4011a30:	defff604 	addi	sp,sp,-40
 4011a34:	dfc00915 	stw	ra,36(sp)
 4011a38:	df000815 	stw	fp,32(sp)
 4011a3c:	df000804 	addi	fp,sp,32
 4011a40:	e13ffa15 	stw	r4,-24(fp)
 4011a44:	e17ff915 	stw	r5,-28(fp)
 4011a48:	e1bff815 	stw	r6,-32(fp)
  alt_dev* dev;
  alt_fd*  fd;
  int index  = -1;
 4011a4c:	00bfffc4 	movi	r2,-1
 4011a50:	e0bffe15 	stw	r2,-8(fp)
  int status = -ENODEV;
 4011a54:	00bffb44 	movi	r2,-19
 4011a58:	e0bffd15 	stw	r2,-12(fp)
  int isafs = 0;
 4011a5c:	e03ffc15 	stw	zero,-16(fp)
  /* 
   * Check the device list, to see if a device with a matching name is 
   * registered.
   */
  
  if (!(dev = alt_find_dev (file, &alt_dev_list)))
 4011a60:	d1600804 	addi	r5,gp,-32736
 4011a64:	e13ffa17 	ldw	r4,-24(fp)
 4011a68:	4011bb40 	call	4011bb4 <alt_find_dev>
 4011a6c:	e0bfff15 	stw	r2,-4(fp)
 4011a70:	e0bfff17 	ldw	r2,-4(fp)
 4011a74:	1000051e 	bne	r2,zero,4011a8c <open+0x5c>
  {
    /* No matching device, so try the filesystem list */

    dev   = alt_find_file (file);
 4011a78:	e13ffa17 	ldw	r4,-24(fp)
 4011a7c:	4011c440 	call	4011c44 <alt_find_file>
 4011a80:	e0bfff15 	stw	r2,-4(fp)
    isafs = 1;
 4011a84:	00800044 	movi	r2,1
 4011a88:	e0bffc15 	stw	r2,-16(fp)

  /* 
   * If a matching device or filesystem is found, allocate a file descriptor. 
   */

  if (dev)
 4011a8c:	e0bfff17 	ldw	r2,-4(fp)
 4011a90:	10002c26 	beq	r2,zero,4011b44 <open+0x114>
  {
    if ((index = alt_get_fd (dev)) < 0)
 4011a94:	e13fff17 	ldw	r4,-4(fp)
 4011a98:	4011d4c0 	call	4011d4c <alt_get_fd>
 4011a9c:	e0bffe15 	stw	r2,-8(fp)
 4011aa0:	e0bffe17 	ldw	r2,-8(fp)
 4011aa4:	1000030e 	bge	r2,zero,4011ab4 <open+0x84>
    {
      status = index;
 4011aa8:	e0bffe17 	ldw	r2,-8(fp)
 4011aac:	e0bffd15 	stw	r2,-12(fp)
 4011ab0:	00002606 	br	4011b4c <open+0x11c>
    }
    else
    {
      fd = &alt_fd_list[index];
 4011ab4:	e0fffe17 	ldw	r3,-8(fp)
 4011ab8:	1805883a 	mov	r2,r3
 4011abc:	1085883a 	add	r2,r2,r2
 4011ac0:	10c5883a 	add	r2,r2,r3
 4011ac4:	100490ba 	slli	r2,r2,2
 4011ac8:	00c10074 	movhi	r3,1025
 4011acc:	18cc4a04 	addi	r3,r3,12584
 4011ad0:	10c5883a 	add	r2,r2,r3
 4011ad4:	e0bffb15 	stw	r2,-20(fp)
      fd->fd_flags = (flags & ~ALT_FD_FLAGS_MASK);
 4011ad8:	e0fff917 	ldw	r3,-28(fp)
 4011adc:	00900034 	movhi	r2,16384
 4011ae0:	10bfffc4 	addi	r2,r2,-1
 4011ae4:	1886703a 	and	r3,r3,r2
 4011ae8:	e0bffb17 	ldw	r2,-20(fp)
 4011aec:	10c00215 	stw	r3,8(r2)
      
      /* If this is a device, ensure it isn't already locked */

      if (isafs || ((status = alt_file_locked (fd)) >= 0))
 4011af0:	e0bffc17 	ldw	r2,-16(fp)
 4011af4:	1000051e 	bne	r2,zero,4011b0c <open+0xdc>
 4011af8:	e13ffb17 	ldw	r4,-20(fp)
 4011afc:	40119540 	call	4011954 <alt_file_locked>
 4011b00:	e0bffd15 	stw	r2,-12(fp)
 4011b04:	e0bffd17 	ldw	r2,-12(fp)
 4011b08:	10001016 	blt	r2,zero,4011b4c <open+0x11c>
        /* 
         * If the device or filesystem provides an open() callback function,
         * call it now to perform any device/filesystem specific operations.
         */
    
        status = (dev->open) ? dev->open(fd, file, flags, mode): 0;
 4011b0c:	e0bfff17 	ldw	r2,-4(fp)
 4011b10:	10800317 	ldw	r2,12(r2)
 4011b14:	10000826 	beq	r2,zero,4011b38 <open+0x108>
 4011b18:	e0bfff17 	ldw	r2,-4(fp)
 4011b1c:	10800317 	ldw	r2,12(r2)
 4011b20:	e1fff817 	ldw	r7,-32(fp)
 4011b24:	e1bff917 	ldw	r6,-28(fp)
 4011b28:	e17ffa17 	ldw	r5,-24(fp)
 4011b2c:	e13ffb17 	ldw	r4,-20(fp)
 4011b30:	103ee83a 	callr	r2
 4011b34:	00000106 	br	4011b3c <open+0x10c>
 4011b38:	0005883a 	mov	r2,zero
 4011b3c:	e0bffd15 	stw	r2,-12(fp)
 4011b40:	00000206 	br	4011b4c <open+0x11c>
      }
    }
  }
  else
  {
    status = -ENODEV;
 4011b44:	00bffb44 	movi	r2,-19
 4011b48:	e0bffd15 	stw	r2,-12(fp)
  }

  /* Allocation failed, so clean up and return an error */ 

  if (status < 0)
 4011b4c:	e0bffd17 	ldw	r2,-12(fp)
 4011b50:	1000090e 	bge	r2,zero,4011b78 <open+0x148>
  {
    alt_release_fd (index);  
 4011b54:	e13ffe17 	ldw	r4,-8(fp)
 4011b58:	40112380 	call	4011238 <alt_release_fd>
    ALT_ERRNO = -status;
 4011b5c:	40119180 	call	4011918 <alt_get_errno>
 4011b60:	1007883a 	mov	r3,r2
 4011b64:	e0bffd17 	ldw	r2,-12(fp)
 4011b68:	0085c83a 	sub	r2,zero,r2
 4011b6c:	18800015 	stw	r2,0(r3)
    return -1;
 4011b70:	00bfffc4 	movi	r2,-1
 4011b74:	00000106 	br	4011b7c <open+0x14c>
  }
  
  /* return the reference upon success */

  return index;
 4011b78:	e0bffe17 	ldw	r2,-8(fp)
}
 4011b7c:	e037883a 	mov	sp,fp
 4011b80:	dfc00117 	ldw	ra,4(sp)
 4011b84:	df000017 	ldw	fp,0(sp)
 4011b88:	dec00204 	addi	sp,sp,8
 4011b8c:	f800283a 	ret

04011b90 <altera_nios2_gen2_irq_init>:
/*
 * To initialize the internal interrupt controller, just clear the IENABLE
 * register so that all possible IRQs are disabled.
 */
void altera_nios2_gen2_irq_init(void) 
{
 4011b90:	deffff04 	addi	sp,sp,-4
 4011b94:	df000015 	stw	fp,0(sp)
 4011b98:	d839883a 	mov	fp,sp
    NIOS2_WRITE_IENABLE(0);
 4011b9c:	000170fa 	wrctl	ienable,zero
}
 4011ba0:	0001883a 	nop
 4011ba4:	e037883a 	mov	sp,fp
 4011ba8:	df000017 	ldw	fp,0(sp)
 4011bac:	dec00104 	addi	sp,sp,4
 4011bb0:	f800283a 	ret

04011bb4 <alt_find_dev>:
 * "name" must be an exact match for the devices registered name for a match to
 * be found.
 */
 
alt_dev* alt_find_dev(const char* name, alt_llist* llist)
{
 4011bb4:	defffa04 	addi	sp,sp,-24
 4011bb8:	dfc00515 	stw	ra,20(sp)
 4011bbc:	df000415 	stw	fp,16(sp)
 4011bc0:	df000404 	addi	fp,sp,16
 4011bc4:	e13ffd15 	stw	r4,-12(fp)
 4011bc8:	e17ffc15 	stw	r5,-16(fp)
  alt_dev* next = (alt_dev*) llist->next;
 4011bcc:	e0bffc17 	ldw	r2,-16(fp)
 4011bd0:	10800017 	ldw	r2,0(r2)
 4011bd4:	e0bfff15 	stw	r2,-4(fp)
  alt_32 len;

  len  = strlen(name) + 1;
 4011bd8:	e13ffd17 	ldw	r4,-12(fp)
 4011bdc:	4007ca40 	call	4007ca4 <strlen>
 4011be0:	10800044 	addi	r2,r2,1
 4011be4:	e0bffe15 	stw	r2,-8(fp)
  /*
   * Check each list entry in turn, until a match is found, or we reach the
   * end of the list (i.e. next winds up pointing back to the list head).
   */ 

  while (next != (alt_dev*) llist)
 4011be8:	00000d06 	br	4011c20 <alt_find_dev+0x6c>
    /* 
     * memcmp() is used here rather than strcmp() in order to reduce the size
     * of the executable.
     */

    if (!memcmp (next->name, name, len))
 4011bec:	e0bfff17 	ldw	r2,-4(fp)
 4011bf0:	10800217 	ldw	r2,8(r2)
 4011bf4:	e0fffe17 	ldw	r3,-8(fp)
 4011bf8:	180d883a 	mov	r6,r3
 4011bfc:	e17ffd17 	ldw	r5,-12(fp)
 4011c00:	1009883a 	mov	r4,r2
 4011c04:	4011e4c0 	call	4011e4c <memcmp>
 4011c08:	1000021e 	bne	r2,zero,4011c14 <alt_find_dev+0x60>
    {
      /* match found */

      return next;
 4011c0c:	e0bfff17 	ldw	r2,-4(fp)
 4011c10:	00000706 	br	4011c30 <alt_find_dev+0x7c>
    }
    next = (alt_dev*) next->llist.next;
 4011c14:	e0bfff17 	ldw	r2,-4(fp)
 4011c18:	10800017 	ldw	r2,0(r2)
 4011c1c:	e0bfff15 	stw	r2,-4(fp)
  while (next != (alt_dev*) llist)
 4011c20:	e0ffff17 	ldw	r3,-4(fp)
 4011c24:	e0bffc17 	ldw	r2,-16(fp)
 4011c28:	18bff01e 	bne	r3,r2,4011bec <alt_find_dev+0x38>
  }
  
  /* No match found */
  
  return NULL;
 4011c2c:	0005883a 	mov	r2,zero
}
 4011c30:	e037883a 	mov	sp,fp
 4011c34:	dfc00117 	ldw	ra,4(sp)
 4011c38:	df000017 	ldw	fp,0(sp)
 4011c3c:	dec00204 	addi	sp,sp,8
 4011c40:	f800283a 	ret

04011c44 <alt_find_file>:
 * either '/' or '\0' is the prefix of the filename. For example the filename:
 * "/myfilesystem/junk.txt" would match: "/myfilesystem", but not: "/myfile". 
 */
 
alt_dev* alt_find_file (const char* name)
{
 4011c44:	defffb04 	addi	sp,sp,-20
 4011c48:	dfc00415 	stw	ra,16(sp)
 4011c4c:	df000315 	stw	fp,12(sp)
 4011c50:	df000304 	addi	fp,sp,12
 4011c54:	e13ffd15 	stw	r4,-12(fp)
  alt_dev* next = (alt_dev*) alt_fs_list.next;   
 4011c58:	d0a00617 	ldw	r2,-32744(gp)
 4011c5c:	e0bfff15 	stw	r2,-4(fp)
  /*
   * Check each list entry in turn, until a match is found, or we reach the
   * end of the list (i.e. next winds up pointing back to the list head).
   */ 
 
  while (next != (alt_dev*) &alt_fs_list)
 4011c60:	00003106 	br	4011d28 <alt_find_file+0xe4>
  {
    len = strlen(next->name);
 4011c64:	e0bfff17 	ldw	r2,-4(fp)
 4011c68:	10800217 	ldw	r2,8(r2)
 4011c6c:	1009883a 	mov	r4,r2
 4011c70:	4007ca40 	call	4007ca4 <strlen>
 4011c74:	e0bffe15 	stw	r2,-8(fp)
    
    if (next->name[len-1] == '/')
 4011c78:	e0bfff17 	ldw	r2,-4(fp)
 4011c7c:	10c00217 	ldw	r3,8(r2)
 4011c80:	e0bffe17 	ldw	r2,-8(fp)
 4011c84:	10bfffc4 	addi	r2,r2,-1
 4011c88:	1885883a 	add	r2,r3,r2
 4011c8c:	10800003 	ldbu	r2,0(r2)
 4011c90:	10803fcc 	andi	r2,r2,255
 4011c94:	1080201c 	xori	r2,r2,128
 4011c98:	10bfe004 	addi	r2,r2,-128
 4011c9c:	10800bd8 	cmpnei	r2,r2,47
 4011ca0:	1000031e 	bne	r2,zero,4011cb0 <alt_find_file+0x6c>
    {
      len -= 1;
 4011ca4:	e0bffe17 	ldw	r2,-8(fp)
 4011ca8:	10bfffc4 	addi	r2,r2,-1
 4011cac:	e0bffe15 	stw	r2,-8(fp)
    }

    if (((name[len] == '/') || (name[len] == '\0')) && 
 4011cb0:	e0bffe17 	ldw	r2,-8(fp)
 4011cb4:	e0fffd17 	ldw	r3,-12(fp)
 4011cb8:	1885883a 	add	r2,r3,r2
 4011cbc:	10800003 	ldbu	r2,0(r2)
 4011cc0:	10803fcc 	andi	r2,r2,255
 4011cc4:	1080201c 	xori	r2,r2,128
 4011cc8:	10bfe004 	addi	r2,r2,-128
 4011ccc:	10800be0 	cmpeqi	r2,r2,47
 4011cd0:	1000081e 	bne	r2,zero,4011cf4 <alt_find_file+0xb0>
 4011cd4:	e0bffe17 	ldw	r2,-8(fp)
 4011cd8:	e0fffd17 	ldw	r3,-12(fp)
 4011cdc:	1885883a 	add	r2,r3,r2
 4011ce0:	10800003 	ldbu	r2,0(r2)
 4011ce4:	10803fcc 	andi	r2,r2,255
 4011ce8:	1080201c 	xori	r2,r2,128
 4011cec:	10bfe004 	addi	r2,r2,-128
 4011cf0:	10000a1e 	bne	r2,zero,4011d1c <alt_find_file+0xd8>
        !memcmp (next->name, name, len))
 4011cf4:	e0bfff17 	ldw	r2,-4(fp)
 4011cf8:	10800217 	ldw	r2,8(r2)
 4011cfc:	e0fffe17 	ldw	r3,-8(fp)
 4011d00:	180d883a 	mov	r6,r3
 4011d04:	e17ffd17 	ldw	r5,-12(fp)
 4011d08:	1009883a 	mov	r4,r2
 4011d0c:	4011e4c0 	call	4011e4c <memcmp>
    if (((name[len] == '/') || (name[len] == '\0')) && 
 4011d10:	1000021e 	bne	r2,zero,4011d1c <alt_find_file+0xd8>
    {
      /* match found */

      return next;
 4011d14:	e0bfff17 	ldw	r2,-4(fp)
 4011d18:	00000706 	br	4011d38 <alt_find_file+0xf4>
    }
    next = (alt_dev*) next->llist.next;
 4011d1c:	e0bfff17 	ldw	r2,-4(fp)
 4011d20:	10800017 	ldw	r2,0(r2)
 4011d24:	e0bfff15 	stw	r2,-4(fp)
  while (next != (alt_dev*) &alt_fs_list)
 4011d28:	e0ffff17 	ldw	r3,-4(fp)
 4011d2c:	d0a00604 	addi	r2,gp,-32744
 4011d30:	18bfcc1e 	bne	r3,r2,4011c64 <alt_find_file+0x20>
  }
  
  /* No match found */
  
  return NULL;     
 4011d34:	0005883a 	mov	r2,zero
}
 4011d38:	e037883a 	mov	sp,fp
 4011d3c:	dfc00117 	ldw	ra,4(sp)
 4011d40:	df000017 	ldw	fp,0(sp)
 4011d44:	dec00204 	addi	sp,sp,8
 4011d48:	f800283a 	ret

04011d4c <alt_get_fd>:
 * the offset of the file descriptor within the file descriptor array). A
 * negative value indicates failure.
 */

int alt_get_fd (alt_dev* dev)
{
 4011d4c:	defffc04 	addi	sp,sp,-16
 4011d50:	df000315 	stw	fp,12(sp)
 4011d54:	df000304 	addi	fp,sp,12
 4011d58:	e13ffd15 	stw	r4,-12(fp)
  alt_32 i;
  int rc = -EMFILE;
 4011d5c:	00bffa04 	movi	r2,-24
 4011d60:	e0bffe15 	stw	r2,-8(fp)
   * indicates the highest file descriptor ever allocated. This is used to
   * improve efficency when searching the file descriptor list, and 
   * therefore reduce contention on the alt_fd_list_lock semaphore. 
   */

  for (i = 0; i < ALT_MAX_FD; i++)
 4011d64:	e03fff15 	stw	zero,-4(fp)
 4011d68:	00001d06 	br	4011de0 <alt_get_fd+0x94>
  {
    if (!alt_fd_list[i].dev)
 4011d6c:	e0ffff17 	ldw	r3,-4(fp)
 4011d70:	1805883a 	mov	r2,r3
 4011d74:	1085883a 	add	r2,r2,r2
 4011d78:	10c5883a 	add	r2,r2,r3
 4011d7c:	100490ba 	slli	r2,r2,2
 4011d80:	00c10074 	movhi	r3,1025
 4011d84:	10c7883a 	add	r3,r2,r3
 4011d88:	188c4a17 	ldw	r2,12584(r3)
 4011d8c:	1000111e 	bne	r2,zero,4011dd4 <alt_get_fd+0x88>
    {
      alt_fd_list[i].dev = dev;
 4011d90:	e0ffff17 	ldw	r3,-4(fp)
 4011d94:	1805883a 	mov	r2,r3
 4011d98:	1085883a 	add	r2,r2,r2
 4011d9c:	10c5883a 	add	r2,r2,r3
 4011da0:	100490ba 	slli	r2,r2,2
 4011da4:	e13ffd17 	ldw	r4,-12(fp)
 4011da8:	00c10074 	movhi	r3,1025
 4011dac:	10c7883a 	add	r3,r2,r3
 4011db0:	190c4a15 	stw	r4,12584(r3)
      if (i > alt_max_fd)
 4011db4:	d0e00a17 	ldw	r3,-32728(gp)
 4011db8:	e0bfff17 	ldw	r2,-4(fp)
 4011dbc:	1880020e 	bge	r3,r2,4011dc8 <alt_get_fd+0x7c>
      {
        alt_max_fd = i;
 4011dc0:	e0bfff17 	ldw	r2,-4(fp)
 4011dc4:	d0a00a15 	stw	r2,-32728(gp)
      }
      rc = i;
 4011dc8:	e0bfff17 	ldw	r2,-4(fp)
 4011dcc:	e0bffe15 	stw	r2,-8(fp)
      goto alt_get_fd_exit;
 4011dd0:	00000706 	br	4011df0 <alt_get_fd+0xa4>
  for (i = 0; i < ALT_MAX_FD; i++)
 4011dd4:	e0bfff17 	ldw	r2,-4(fp)
 4011dd8:	10800044 	addi	r2,r2,1
 4011ddc:	e0bfff15 	stw	r2,-4(fp)
 4011de0:	e0bfff17 	ldw	r2,-4(fp)
 4011de4:	10800810 	cmplti	r2,r2,32
 4011de8:	103fe01e 	bne	r2,zero,4011d6c <alt_get_fd+0x20>
    }
  }

 alt_get_fd_exit:
 4011dec:	0001883a 	nop
   * file descriptor pool.
   */

  ALT_SEM_POST(alt_fd_list_lock);

  return rc;
 4011df0:	e0bffe17 	ldw	r2,-8(fp)
}
 4011df4:	e037883a 	mov	sp,fp
 4011df8:	df000017 	ldw	fp,0(sp)
 4011dfc:	dec00104 	addi	sp,sp,4
 4011e00:	f800283a 	ret

04011e04 <atexit>:
 4011e04:	200b883a 	mov	r5,r4
 4011e08:	000f883a 	mov	r7,zero
 4011e0c:	000d883a 	mov	r6,zero
 4011e10:	0009883a 	mov	r4,zero
 4011e14:	4011ec41 	jmpi	4011ec4 <__register_exitproc>

04011e18 <exit>:
 4011e18:	defffe04 	addi	sp,sp,-8
 4011e1c:	000b883a 	mov	r5,zero
 4011e20:	dc000015 	stw	r16,0(sp)
 4011e24:	dfc00115 	stw	ra,4(sp)
 4011e28:	2021883a 	mov	r16,r4
 4011e2c:	4011f540 	call	4011f54 <__call_exitprocs>
 4011e30:	00810074 	movhi	r2,1025
 4011e34:	110cac17 	ldw	r4,12976(r2)
 4011e38:	20800f17 	ldw	r2,60(r4)
 4011e3c:	10000126 	beq	r2,zero,4011e44 <exit+0x2c>
 4011e40:	103ee83a 	callr	r2
 4011e44:	8009883a 	mov	r4,r16
 4011e48:	40107ec0 	call	40107ec <_exit>

04011e4c <memcmp>:
 4011e4c:	30800130 	cmpltui	r2,r6,4
 4011e50:	10000b1e 	bne	r2,zero,4011e80 <memcmp+0x34>
 4011e54:	2144b03a 	or	r2,r4,r5
 4011e58:	108000cc 	andi	r2,r2,3
 4011e5c:	1000171e 	bne	r2,zero,4011ebc <memcmp+0x70>
 4011e60:	20c00017 	ldw	r3,0(r4)
 4011e64:	28800017 	ldw	r2,0(r5)
 4011e68:	1880141e 	bne	r3,r2,4011ebc <memcmp+0x70>
 4011e6c:	31bfff04 	addi	r6,r6,-4
 4011e70:	30800128 	cmpgeui	r2,r6,4
 4011e74:	21000104 	addi	r4,r4,4
 4011e78:	29400104 	addi	r5,r5,4
 4011e7c:	103ff81e 	bne	r2,zero,4011e60 <memcmp+0x14>
 4011e80:	30bfffc4 	addi	r2,r6,-1
 4011e84:	30000b26 	beq	r6,zero,4011eb4 <memcmp+0x68>
 4011e88:	11800044 	addi	r6,r2,1
 4011e8c:	218d883a 	add	r6,r4,r6
 4011e90:	00000106 	br	4011e98 <memcmp+0x4c>
 4011e94:	21800726 	beq	r4,r6,4011eb4 <memcmp+0x68>
 4011e98:	20800003 	ldbu	r2,0(r4)
 4011e9c:	28c00003 	ldbu	r3,0(r5)
 4011ea0:	21000044 	addi	r4,r4,1
 4011ea4:	29400044 	addi	r5,r5,1
 4011ea8:	10fffa26 	beq	r2,r3,4011e94 <memcmp+0x48>
 4011eac:	10c5c83a 	sub	r2,r2,r3
 4011eb0:	f800283a 	ret
 4011eb4:	0005883a 	mov	r2,zero
 4011eb8:	f800283a 	ret
 4011ebc:	30bfffc4 	addi	r2,r6,-1
 4011ec0:	003ff106 	br	4011e88 <memcmp+0x3c>

04011ec4 <__register_exitproc>:
 4011ec4:	00810074 	movhi	r2,1025
 4011ec8:	10ccac17 	ldw	r3,12976(r2)
 4011ecc:	18805217 	ldw	r2,328(r3)
 4011ed0:	10001726 	beq	r2,zero,4011f30 <__register_exitproc+0x6c>
 4011ed4:	10c00117 	ldw	r3,4(r2)
 4011ed8:	1a000808 	cmpgei	r8,r3,32
 4011edc:	40001b1e 	bne	r8,zero,4011f4c <__register_exitproc+0x88>
 4011ee0:	20000b26 	beq	r4,zero,4011f10 <__register_exitproc+0x4c>
 4011ee4:	181090ba 	slli	r8,r3,2
 4011ee8:	02400044 	movi	r9,1
 4011eec:	48d2983a 	sll	r9,r9,r3
 4011ef0:	1211883a 	add	r8,r2,r8
 4011ef4:	41802215 	stw	r6,136(r8)
 4011ef8:	11806217 	ldw	r6,392(r2)
 4011efc:	21000098 	cmpnei	r4,r4,2
 4011f00:	324cb03a 	or	r6,r6,r9
 4011f04:	11806215 	stw	r6,392(r2)
 4011f08:	41c04215 	stw	r7,264(r8)
 4011f0c:	20000b26 	beq	r4,zero,4011f3c <__register_exitproc+0x78>
 4011f10:	19000084 	addi	r4,r3,2
 4011f14:	200890ba 	slli	r4,r4,2
 4011f18:	18c00044 	addi	r3,r3,1
 4011f1c:	10c00115 	stw	r3,4(r2)
 4011f20:	1105883a 	add	r2,r2,r4
 4011f24:	11400015 	stw	r5,0(r2)
 4011f28:	0005883a 	mov	r2,zero
 4011f2c:	f800283a 	ret
 4011f30:	18805304 	addi	r2,r3,332
 4011f34:	18805215 	stw	r2,328(r3)
 4011f38:	003fe606 	br	4011ed4 <__register_exitproc+0x10>
 4011f3c:	11006317 	ldw	r4,396(r2)
 4011f40:	2252b03a 	or	r9,r4,r9
 4011f44:	12406315 	stw	r9,396(r2)
 4011f48:	003ff106 	br	4011f10 <__register_exitproc+0x4c>
 4011f4c:	00bfffc4 	movi	r2,-1
 4011f50:	f800283a 	ret

04011f54 <__call_exitprocs>:
 4011f54:	defff704 	addi	sp,sp,-36
 4011f58:	00810074 	movhi	r2,1025
 4011f5c:	dcc00315 	stw	r19,12(sp)
 4011f60:	14ccac17 	ldw	r19,12976(r2)
 4011f64:	dc800215 	stw	r18,8(sp)
 4011f68:	dfc00815 	stw	ra,32(sp)
 4011f6c:	9c805217 	ldw	r18,328(r19)
 4011f70:	ddc00715 	stw	r23,28(sp)
 4011f74:	dd800615 	stw	r22,24(sp)
 4011f78:	dd400515 	stw	r21,20(sp)
 4011f7c:	dd000415 	stw	r20,16(sp)
 4011f80:	dc400115 	stw	r17,4(sp)
 4011f84:	dc000015 	stw	r16,0(sp)
 4011f88:	90001026 	beq	r18,zero,4011fcc <__call_exitprocs+0x78>
 4011f8c:	202b883a 	mov	r21,r4
 4011f90:	282d883a 	mov	r22,r5
 4011f94:	05000044 	movi	r20,1
 4011f98:	94000117 	ldw	r16,4(r18)
 4011f9c:	847fffc4 	addi	r17,r16,-1
 4011fa0:	88000a16 	blt	r17,zero,4011fcc <__call_exitprocs+0x78>
 4011fa4:	84000044 	addi	r16,r16,1
 4011fa8:	802090ba 	slli	r16,r16,2
 4011fac:	9421883a 	add	r16,r18,r16
 4011fb0:	b0001126 	beq	r22,zero,4011ff8 <__call_exitprocs+0xa4>
 4011fb4:	80804017 	ldw	r2,256(r16)
 4011fb8:	15800f26 	beq	r2,r22,4011ff8 <__call_exitprocs+0xa4>
 4011fbc:	8c7fffc4 	addi	r17,r17,-1
 4011fc0:	88bfffd8 	cmpnei	r2,r17,-1
 4011fc4:	843fff04 	addi	r16,r16,-4
 4011fc8:	103ff91e 	bne	r2,zero,4011fb0 <__call_exitprocs+0x5c>
 4011fcc:	dfc00817 	ldw	ra,32(sp)
 4011fd0:	ddc00717 	ldw	r23,28(sp)
 4011fd4:	dd800617 	ldw	r22,24(sp)
 4011fd8:	dd400517 	ldw	r21,20(sp)
 4011fdc:	dd000417 	ldw	r20,16(sp)
 4011fe0:	dcc00317 	ldw	r19,12(sp)
 4011fe4:	dc800217 	ldw	r18,8(sp)
 4011fe8:	dc400117 	ldw	r17,4(sp)
 4011fec:	dc000017 	ldw	r16,0(sp)
 4011ff0:	dec00904 	addi	sp,sp,36
 4011ff4:	f800283a 	ret
 4011ff8:	90800117 	ldw	r2,4(r18)
 4011ffc:	81800017 	ldw	r6,0(r16)
 4012000:	10bfffc4 	addi	r2,r2,-1
 4012004:	14401726 	beq	r2,r17,4012064 <__call_exitprocs+0x110>
 4012008:	80000015 	stw	zero,0(r16)
 401200c:	303feb26 	beq	r6,zero,4011fbc <__call_exitprocs+0x68>
 4012010:	a446983a 	sll	r3,r20,r17
 4012014:	90806217 	ldw	r2,392(r18)
 4012018:	95c00117 	ldw	r23,4(r18)
 401201c:	1884703a 	and	r2,r3,r2
 4012020:	1000081e 	bne	r2,zero,4012044 <__call_exitprocs+0xf0>
 4012024:	303ee83a 	callr	r6
 4012028:	90c00117 	ldw	r3,4(r18)
 401202c:	98805217 	ldw	r2,328(r19)
 4012030:	1dc0011e 	bne	r3,r23,4012038 <__call_exitprocs+0xe4>
 4012034:	90bfe126 	beq	r18,r2,4011fbc <__call_exitprocs+0x68>
 4012038:	103fe426 	beq	r2,zero,4011fcc <__call_exitprocs+0x78>
 401203c:	1025883a 	mov	r18,r2
 4012040:	003fd506 	br	4011f98 <__call_exitprocs+0x44>
 4012044:	90806317 	ldw	r2,396(r18)
 4012048:	81002017 	ldw	r4,128(r16)
 401204c:	1886703a 	and	r3,r3,r2
 4012050:	1800061e 	bne	r3,zero,401206c <__call_exitprocs+0x118>
 4012054:	200b883a 	mov	r5,r4
 4012058:	a809883a 	mov	r4,r21
 401205c:	303ee83a 	callr	r6
 4012060:	003ff106 	br	4012028 <__call_exitprocs+0xd4>
 4012064:	94400115 	stw	r17,4(r18)
 4012068:	003fe806 	br	401200c <__call_exitprocs+0xb8>
 401206c:	303ee83a 	callr	r6
 4012070:	003fed06 	br	4012028 <__call_exitprocs+0xd4>
